

Microchip MPLAB XC8 Assembler V2.31 build 20201012212115 
                                                                                               Mon Mar 08 18:49:29 2021

Microchip MPLAB XC8 C Compiler v2.31 (Free license) build 20201012212115 Og1 
     1                           	processor	18LF67K40
     2                           	fnconf	rparam,??,?,0
     3                           	pagewidth 120
     4                           	opt	flic
     5                           	psect	idataBANK0,global,class=CODE,delta=1,noexec
     6                           	psect	mediumconst,global,reloc=2,class=MEDIUMCONST,delta=1,noexec
     7                           	psect	cinit,global,reloc=2,class=CODE,delta=1
     8                           	psect	bssBANK0,global,class=BANK0,space=1,delta=1,lowdata,noexec
     9                           	psect	dataBANK0,global,class=BANK0,space=1,delta=1,lowdata,noexec
    10                           	psect	cstackBANK0,global,class=BANK0,space=1,delta=1,lowdata,noexec
    11                           	psect	cstackCOMRAM,global,class=COMRAM,space=1,delta=1,lowdata,noexec
    12                           	psect	text0,global,reloc=2,class=CODE,delta=1
    13                           	psect	text1,global,reloc=2,class=CODE,delta=1
    14                           	psect	text2,global,reloc=2,class=CODE,delta=1
    15                           	psect	text3,global,reloc=2,class=CODE,delta=1
    16                           	psect	text4,global,reloc=2,class=CODE,delta=1
    17                           	psect	text5,global,reloc=2,class=CODE,delta=1
    18                           	psect	text6,global,reloc=2,class=CODE,delta=1
    19                           	psect	text7,global,reloc=2,class=CODE,delta=1
    20                           	psect	text8,global,reloc=2,class=CODE,delta=1
    21                           	psect	text9,global,reloc=2,class=CODE,delta=1
    22                           	psect	text10,global,reloc=2,class=CODE,delta=1
    23                           	psect	text11,global,reloc=2,class=CODE,delta=1
    24                           	psect	text12,global,reloc=2,class=CODE,delta=1
    25                           	psect	text13,global,reloc=2,class=CODE,delta=1
    26                           	psect	text14,global,reloc=2,class=CODE,delta=1
    27                           	psect	text15,global,reloc=2,class=CODE,delta=1
    28                           	psect	text16,global,reloc=2,class=CODE,delta=1
    29                           	psect	text17,global,reloc=2,class=CODE,delta=1
    30                           	psect	text18,global,reloc=2,class=CODE,delta=1
    31                           	psect	text19,global,reloc=2,class=CODE,delta=1
    32                           	psect	text20,global,reloc=2,class=CODE,delta=1,group=3
    33                           	psect	text21,global,reloc=2,class=CODE,delta=1,group=1
    34                           	psect	text22,global,reloc=2,class=CODE,delta=1,group=1
    35                           	psect	text23,global,reloc=2,class=CODE,delta=1,group=1
    36                           	psect	text24,global,reloc=2,class=CODE,delta=1,group=3
    37                           	psect	text25,global,reloc=2,class=CODE,delta=1,group=3
    38                           	psect	text26,global,reloc=2,class=CODE,delta=1,group=3
    39                           	psect	text27,global,reloc=2,class=CODE,delta=1,group=3
    40                           	psect	text28,global,reloc=2,class=CODE,delta=1,group=1
    41                           	psect	text29,global,reloc=2,class=CODE,delta=1,group=1
    42                           	psect	text30,global,reloc=2,class=CODE,delta=1,group=3
    43                           	psect	text31,global,reloc=2,class=CODE,delta=1,group=3
    44                           	psect	text32,global,reloc=2,class=CODE,delta=1,group=3
    45                           	psect	text33,global,reloc=2,class=CODE,delta=1
    46                           	psect	text34,global,reloc=2,class=CODE,delta=1
    47                           	psect	text35,global,reloc=2,class=CODE,delta=1,group=3
    48                           	psect	text36,global,reloc=2,class=CODE,delta=1,group=2
    49                           	psect	text37,global,reloc=2,class=CODE,delta=1,group=2
    50                           	psect	text38,global,reloc=2,class=CODE,delta=1,group=3
    51                           	psect	text39,global,reloc=2,class=CODE,delta=1,group=3
    52                           	psect	text40,global,reloc=2,class=CODE,delta=1,group=3
    53                           	psect	text41,global,reloc=2,class=CODE,delta=1,group=2
    54                           	psect	text42,global,reloc=2,class=CODE,delta=1,group=2
    55                           	psect	text43,global,reloc=2,class=CODE,delta=1,group=2
    56                           	psect	text44,global,reloc=2,class=CODE,delta=1,group=2
    57                           	psect	text45,global,reloc=2,class=CODE,delta=1
    58                           	psect	text46,global,reloc=2,class=CODE,delta=1
    59                           	psect	text47,global,reloc=2,class=CODE,delta=1
    60                           	psect	text48,global,reloc=2,class=CODE,delta=1
    61                           	psect	intsave_regs,global,class=BIGRAM,space=1,delta=1,noexec
    62                           	psect	rparam,global,class=COMRAM,space=1,delta=1,noexec
    63                           	psect	idloc,global,abs,ovrld,class=IDLOC,space=5,delta=1,noexec
    64                           	psect	config,global,abs,ovrld,class=CONFIG,space=4,delta=1,noexec
    65  0000                     
    66                           ; Version 2.20
    67                           ; Generated 05/05/2020 GMT
    68                           ; 
    69                           ; Copyright © 2020, Microchip Technology Inc. and its subsidiaries ("Microchip")
    70                           ; All rights reserved.
    71                           ; 
    72                           ; This software is developed by Microchip Technology Inc. and its subsidiaries ("Microch
      +                          ip").
    73                           ; 
    74                           ; Redistribution and use in source and binary forms, with or without modification, are
    75                           ; permitted provided that the following conditions are met:
    76                           ; 
    77                           ;     1. Redistributions of source code must retain the above copyright notice, this lis
      +                          t of
    78                           ;        conditions and the following disclaimer.
    79                           ; 
    80                           ;     2. Redistributions in binary form must reproduce the above copyright notice, this 
      +                          list
    81                           ;        of conditions and the following disclaimer in the documentation and/or other
    82                           ;        materials provided with the distribution.
    83                           ; 
    84                           ;     3. Microchip's name may not be used to endorse or promote products derived from th
      +                          is
    85                           ;        software without specific prior written permission.
    86                           ; 
    87                           ; THIS SOFTWARE IS PROVIDED BY MICROCHIP "AS IS" AND ANY EXPRESS OR IMPLIED WARRANTIES,
    88                           ; INCLUDING, BUT NOT LIMITED TO, THE IMPLIED WARRANTIES OF MERCHANTABILITY AND FITNESS F
      +                          OR
    89                           ; PURPOSE ARE DISCLAIMED.  IN NO EVENT SHALL MICROCHIP BE LIABLE FOR ANY DIRECT, INDIREC
      +                          T,
    90                           ; INCIDENTAL, SPECIAL, EXEMPLARY, OR CONSEQUENTIAL DAMAGES (INCLUDING BUT NOT LIMITED TO
    91                           ; PROCUREMENT OF SUBSTITUTE GOODS OR SERVICES; LOSS OF USE, DATA OR PROFITS; OR BUSINESS
    92                           ; INTERRUPTION) HOWSOEVER CAUSED AND ON ANY THEORY OF LIABILITY, WHETHER IN CONTRACT, ST
      +                          RICT
    93                           ; LIABILITY, OR TORT (INCLUDING NEGLIGENCE OR OTHERWISE) ARISING IN ANY WAY OUT OF THE U
      +                          SE OF
    94                           ; THIS SOFTWARE, EVEN IF ADVISED OF THE POSSIBILITY OF SUCH DAMAGE.
    95                           ; 
    96                           ; 
    97                           ; Code-generator required, PIC18LF67K40 Definitions
    98                           ; 
    99                           ; SFR Addresses
   100  0000                     
   101                           	psect	idataBANK0
   102  0132B4                     __pidataBANK0:
   103                           	callstack 0
   104                           
   105                           ;initializer for _hello
   106  0132B4  0D                 	db	13
   107  0132B5  0A                 	db	10
   108  0132B6  48                 	db	72
   109  0132B7  65                 	db	101
   110  0132B8  6C                 	db	108
   111  0132B9  6C                 	db	108
   112  0132BA  6F                 	db	111
   113  0132BB  21                 	db	33
   114  0132BC  0D                 	db	13
   115  0132BD  0A                 	db	10
   116  0132BE  00                 	db	0
   117  0000                     _TX5REG	set	3805
   118  0000                     _PIR4bits	set	3639
   119  0000                     _RG3PPS	set	3717
   120  0000                     _SP5BRGL	set	3806
   121  0000                     _TX5STA	set	3809
   122  0000                     _RC5STA	set	3808
   123  0000                     _BAUD5CON	set	3810
   124  0000                     _RX5PPSbits	set	3607
   125  0000                     _ANSELGbits	set	3772
   126  0000                     _ANSELF	set	3764
   127  0000                     _OSCFRQ	set	3657
   128  0000                     _OSCCON1	set	3651
   129  0000                     _ANSELFbits	set	3764
   130  0000                     _ODCONFbits	set	3762
   131  0000                     _WPUC	set	3745
   132  0000                     _SSP1DATPPS	set	3610
   133  0000                     _SSP1CLKPPS	set	3609
   134  0000                     _RC4PPS	set	3686
   135  0000                     _RC3PPS	set	3685
   136  0000                     _WPUE	set	3758
   137  0000                     _INLVLCbits	set	3742
   138  0000                     _WPUCbits	set	3745
   139  0000                     _ODCONCbits	set	3744
   140  0000                     _TBLPTRU	set	4088
   141  0000                     _TRISGbits	set	3975
   142  0000                     _TRISFbits	set	3974
   143  0000                     _TRISDbits	set	3972
   144  0000                     _TRISAbits	set	3969
   145  0000                     _SSP1CON1bits	set	3989
   146  0000                     _SSP1ADD	set	3986
   147  0000                     _SSP1CON3	set	3991
   148  0000                     _SSP1CON2	set	3990
   149  0000                     _SSP1CON1	set	3989
   150  0000                     _SSP1STAT	set	3988
   151  0000                     _SSP1STATbits	set	3988
   152  0000                     _SSP1BUF	set	3985
   153  0000                     _SSP1CON2bits	set	3990
   154  0000                     _TRISCbits	set	3971
   155  0000                     _WREG	set	4072
   156  0000                     _PORTCbits	set	3979
   157  0000                     _LATCbits	set	3963
   158  0000                     _RF5	set	31861
   159  0000                     _RF7	set	31863
   160  0000                     _RF6	set	31862
   161  0000                     _LATF0	set	31728
   162  0000                     _LATD7	set	31719
   163                           
   164                           	psect	mediumconst
   165  00FC22                     __pmediumconst:
   166                           	callstack 0
   167  00FC22  00                 	db	0
   168  00FC23                     STR_50:
   169  00FC23  49                 	db	73	;'I'
   170  00FC24  49                 	db	73	;'I'
   171  00FC25  4E                 	db	78	;'N'
   172  00FC26  50                 	db	80	;'P'
   173  00FC27  56                 	db	86	;'V'
   174  00FC28  6F                 	db	111	;'o'
   175  00FC29  6C                 	db	108	;'l'
   176  00FC2A  74                 	db	116	;'t'
   177  00FC2B  61                 	db	97	;'a'
   178  00FC2C  67                 	db	103	;'g'
   179  00FC2D  65                 	db	101	;'e'
   180  00FC2E  20                 	db	32
   181  00FC2F  20                 	db	32
   182  00FC30  20                 	db	32
   183  00FC31  20                 	db	32
   184  00FC32  3D                 	db	61	;'='
   185  00FC33  25                 	db	37
   186  00FC34  30                 	db	48	;'0'
   187  00FC35  34                 	db	52	;'4'
   188  00FC36  78                 	db	120	;'x'
   189  00FC37  20                 	db	32
   190  00FC38  25                 	db	37
   191  00FC39  35                 	db	53	;'5'
   192  00FC3A  64                 	db	100	;'d'
   193  00FC3B  5B                 	db	91	;'['
   194  00FC3C  6D                 	db	109	;'m'
   195  00FC3D  41                 	db	65	;'A'
   196  00FC3E  5D                 	db	93	;']'
   197  00FC3F  0A                 	db	10
   198  00FC40  00                 	db	0
   199  00FC41                     STR_51:
   200  00FC41  49                 	db	73	;'I'
   201  00FC42  6E                 	db	110	;'n'
   202  00FC43  70                 	db	112	;'p'
   203  00FC44  75                 	db	117	;'u'
   204  00FC45  74                 	db	116	;'t'
   205  00FC46  43                 	db	67	;'C'
   206  00FC47  75                 	db	117	;'u'
   207  00FC48  72                 	db	114	;'r'
   208  00FC49  72                 	db	114	;'r'
   209  00FC4A  65                 	db	101	;'e'
   210  00FC4B  6E                 	db	110	;'n'
   211  00FC4C  74                 	db	116	;'t'
   212  00FC4D  20                 	db	32
   213  00FC4E  20                 	db	32
   214  00FC4F  20                 	db	32
   215  00FC50  3D                 	db	61	;'='
   216  00FC51  25                 	db	37
   217  00FC52  30                 	db	48	;'0'
   218  00FC53  34                 	db	52	;'4'
   219  00FC54  78                 	db	120	;'x'
   220  00FC55  20                 	db	32
   221  00FC56  25                 	db	37
   222  00FC57  35                 	db	53	;'5'
   223  00FC58  64                 	db	100	;'d'
   224  00FC59  5B                 	db	91	;'['
   225  00FC5A  6D                 	db	109	;'m'
   226  00FC5B  41                 	db	65	;'A'
   227  00FC5C  5D                 	db	93	;']'
   228  00FC5D  0A                 	db	10
   229  00FC5E  00                 	db	0
   230  00FC5F                     STR_20:
   231  00FC5F  54                 	db	84	;'T'
   232  00FC60  65                 	db	101	;'e'
   233  00FC61  6D                 	db	109	;'m'
   234  00FC62  70                 	db	112	;'p'
   235  00FC63  20                 	db	32
   236  00FC64  20                 	db	32
   237  00FC65  20                 	db	32
   238  00FC66  20                 	db	32
   239  00FC67  20                 	db	32
   240  00FC68  20                 	db	32
   241  00FC69  3D                 	db	61	;'='
   242  00FC6A  25                 	db	37
   243  00FC6B  30                 	db	48	;'0'
   244  00FC6C  34                 	db	52	;'4'
   245  00FC6D  78                 	db	120	;'x'
   246  00FC6E  20                 	db	32
   247  00FC6F  20                 	db	32
   248  00FC70  25                 	db	37
   249  00FC71  33                 	db	51	;'3'
   250  00FC72  64                 	db	100	;'d'
   251  00FC73  5B                 	db	91	;'['
   252  00FC74  64                 	db	100	;'d'
   253  00FC75  65                 	db	101	;'e'
   254  00FC76  67                 	db	103	;'g'
   255  00FC77  43                 	db	67	;'C'
   256  00FC78  5D                 	db	93	;']'
   257  00FC79  0A                 	db	10
   258  00FC7A  00                 	db	0
   259  00FC7B                     STR_30:
   260  00FC7B  6E                 	db	110	;'n'
   261  00FC7C  44                 	db	68	;'D'
   262  00FC7D  65                 	db	101	;'e'
   263  00FC7E  73                 	db	115	;'s'
   264  00FC7F  69                 	db	105	;'i'
   265  00FC80  67                 	db	103	;'g'
   266  00FC81  6E                 	db	110	;'n'
   267  00FC82  43                 	db	67	;'C'
   268  00FC83  61                 	db	97	;'a'
   269  00FC84  70                 	db	112	;'p'
   270  00FC85  20                 	db	32
   271  00FC86  3D                 	db	61	;'='
   272  00FC87  25                 	db	37
   273  00FC88  30                 	db	48	;'0'
   274  00FC89  34                 	db	52	;'4'
   275  00FC8A  78                 	db	120	;'x'
   276  00FC8B  20                 	db	32
   277  00FC8C  20                 	db	32
   278  00FC8D  25                 	db	37
   279  00FC8E  35                 	db	53	;'5'
   280  00FC8F  64                 	db	100	;'d'
   281  00FC90  5B                 	db	91	;'['
   282  00FC91  6D                 	db	109	;'m'
   283  00FC92  41                 	db	65	;'A'
   284  00FC93  68                 	db	104	;'h'
   285  00FC94  5D                 	db	93	;']'
   286  00FC95  0A                 	db	10
   287  00FC96  00                 	db	0
   288  00FC97                     STR_29:
   289  00FC97  6E                 	db	110	;'n'
   290  00FC98  46                 	db	70	;'F'
   291  00FC99  75                 	db	117	;'u'
   292  00FC9A  6C                 	db	108	;'l'
   293  00FC9B  6C                 	db	108	;'l'
   294  00FC9C  43                 	db	67	;'C'
   295  00FC9D  61                 	db	97	;'a'
   296  00FC9E  70                 	db	112	;'p'
   297  00FC9F  4E                 	db	78	;'N'
   298  00FCA0  6F                 	db	111	;'o'
   299  00FCA1  6D                 	db	109	;'m'
   300  00FCA2  3D                 	db	61	;'='
   301  00FCA3  25                 	db	37
   302  00FCA4  30                 	db	48	;'0'
   303  00FCA5  34                 	db	52	;'4'
   304  00FCA6  78                 	db	120	;'x'
   305  00FCA7  20                 	db	32
   306  00FCA8  20                 	db	32
   307  00FCA9  25                 	db	37
   308  00FCAA  35                 	db	53	;'5'
   309  00FCAB  64                 	db	100	;'d'
   310  00FCAC  5B                 	db	91	;'['
   311  00FCAD  6D                 	db	109	;'m'
   312  00FCAE  41                 	db	65	;'A'
   313  00FCAF  68                 	db	104	;'h'
   314  00FCB0  5D                 	db	93	;']'
   315  00FCB1  0A                 	db	10
   316  00FCB2  00                 	db	0
   317  00FCB3                     STR_28:
   318  00FCB3  6E                 	db	110	;'n'
   319  00FCB4  46                 	db	70	;'F'
   320  00FCB5  75                 	db	117	;'u'
   321  00FCB6  6C                 	db	108	;'l'
   322  00FCB7  6C                 	db	108	;'l'
   323  00FCB8  43                 	db	67	;'C'
   324  00FCB9  61                 	db	97	;'a'
   325  00FCBA  70                 	db	112	;'p'
   326  00FCBB  52                 	db	82	;'R'
   327  00FCBC  65                 	db	101	;'e'
   328  00FCBD  70                 	db	112	;'p'
   329  00FCBE  3D                 	db	61	;'='
   330  00FCBF  25                 	db	37
   331  00FCC0  30                 	db	48	;'0'
   332  00FCC1  34                 	db	52	;'4'
   333  00FCC2  78                 	db	120	;'x'
   334  00FCC3  20                 	db	32
   335  00FCC4  20                 	db	32
   336  00FCC5  25                 	db	37
   337  00FCC6  35                 	db	53	;'5'
   338  00FCC7  64                 	db	100	;'d'
   339  00FCC8  5B                 	db	91	;'['
   340  00FCC9  6D                 	db	109	;'m'
   341  00FCCA  41                 	db	65	;'A'
   342  00FCCB  68                 	db	104	;'h'
   343  00FCCC  5D                 	db	93	;']'
   344  00FCCD  0A                 	db	10
   345  00FCCE  00                 	db	0
   346  00FCCF                     STR_10:
   347  00FCCF  52                 	db	82	;'R'
   348  00FCD0  65                 	db	101	;'e'
   349  00FCD1  70                 	db	112	;'p'
   350  00FCD2  43                 	db	67	;'C'
   351  00FCD3  61                 	db	97	;'a'
   352  00FCD4  70                 	db	112	;'p'
   353  00FCD5  20                 	db	32
   354  00FCD6  20                 	db	32
   355  00FCD7  20                 	db	32
   356  00FCD8  20                 	db	32
   357  00FCD9  3D                 	db	61	;'='
   358  00FCDA  25                 	db	37
   359  00FCDB  30                 	db	48	;'0'
   360  00FCDC  34                 	db	52	;'4'
   361  00FCDD  78                 	db	120	;'x'
   362  00FCDE  20                 	db	32
   363  00FCDF  20                 	db	32
   364  00FCE0  25                 	db	37
   365  00FCE1  35                 	db	53	;'5'
   366  00FCE2  64                 	db	100	;'d'
   367  00FCE3  5B                 	db	91	;'['
   368  00FCE4  6D                 	db	109	;'m'
   369  00FCE5  41                 	db	65	;'A'
   370  00FCE6  68                 	db	104	;'h'
   371  00FCE7  5D                 	db	93	;']'
   372  00FCE8  0A                 	db	10
   373  00FCE9  00                 	db	0
   374  00FCEA                     STR_13:
   375  00FCEA  41                 	db	65	;'A'
   376  00FCEB  76                 	db	118	;'v'
   377  00FCEC  53                 	db	83	;'S'
   378  00FCED  4F                 	db	79	;'O'
   379  00FCEE  43                 	db	67	;'C'
   380  00FCEF  20                 	db	32
   381  00FCF0  20                 	db	32
   382  00FCF1  20                 	db	32
   383  00FCF2  20                 	db	32
   384  00FCF3  20                 	db	32
   385  00FCF4  3D                 	db	61	;'='
   386  00FCF5  25                 	db	37
   387  00FCF6  30                 	db	48	;'0'
   388  00FCF7  34                 	db	52	;'4'
   389  00FCF8  78                 	db	120	;'x'
   390  00FCF9  20                 	db	32
   391  00FCFA  20                 	db	32
   392  00FCFB  25                 	db	37
   393  00FCFC  33                 	db	51	;'3'
   394  00FCFD  64                 	db	100	;'d'
   395  00FCFE  5B                 	db	91	;'['
   396  00FCFF  25                 	db	37
   397  00FD00  25                 	db	37
   398  00FD01  5D                 	db	93	;']'
   399  00FD02  0A                 	db	10
   400  00FD03  00                 	db	0
   401  00FD04                     STR_12:
   402  00FD04  52                 	db	82	;'R'
   403  00FD05  65                 	db	101	;'e'
   404  00FD06  70                 	db	112	;'p'
   405  00FD07  53                 	db	83	;'S'
   406  00FD08  4F                 	db	79	;'O'
   407  00FD09  43                 	db	67	;'C'
   408  00FD0A  20                 	db	32
   409  00FD0B  20                 	db	32
   410  00FD0C  20                 	db	32
   411  00FD0D  20                 	db	32
   412  00FD0E  3D                 	db	61	;'='
   413  00FD0F  25                 	db	37
   414  00FD10  30                 	db	48	;'0'
   415  00FD11  34                 	db	52	;'4'
   416  00FD12  78                 	db	120	;'x'
   417  00FD13  20                 	db	32
   418  00FD14  20                 	db	32
   419  00FD15  25                 	db	37
   420  00FD16  33                 	db	51	;'3'
   421  00FD17  64                 	db	100	;'d'
   422  00FD18  5B                 	db	91	;'['
   423  00FD19  25                 	db	37
   424  00FD1A  25                 	db	37
   425  00FD1B  5D                 	db	93	;']'
   426  00FD1C  0A                 	db	10
   427  00FD1D  00                 	db	0
   428  00FD1E                     STR_21:
   429  00FD1E  43                 	db	67	;'C'
   430  00FD1F  75                 	db	117	;'u'
   431  00FD20  72                 	db	114	;'r'
   432  00FD21  72                 	db	114	;'r'
   433  00FD22  65                 	db	101	;'e'
   434  00FD23  6E                 	db	110	;'n'
   435  00FD24  74                 	db	116	;'t'
   436  00FD25  20                 	db	32
   437  00FD26  20                 	db	32
   438  00FD27  20                 	db	32
   439  00FD28  3D                 	db	61	;'='
   440  00FD29  25                 	db	37
   441  00FD2A  30                 	db	48	;'0'
   442  00FD2B  34                 	db	52	;'4'
   443  00FD2C  78                 	db	120	;'x'
   444  00FD2D  20                 	db	32
   445  00FD2E  20                 	db	32
   446  00FD2F  25                 	db	37
   447  00FD30  35                 	db	53	;'5'
   448  00FD31  64                 	db	100	;'d'
   449  00FD32  5B                 	db	91	;'['
   450  00FD33  6D                 	db	109	;'m'
   451  00FD34  41                 	db	65	;'A'
   452  00FD35  5D                 	db	93	;']'
   453  00FD36  0A                 	db	10
   454  00FD37  00                 	db	0
   455  00FD38                     STR_22:
   456  00FD38  43                 	db	67	;'C'
   457  00FD39  68                 	db	104	;'h'
   458  00FD3A  67                 	db	103	;'g'
   459  00FD3B  69                 	db	105	;'i'
   460  00FD3C  6E                 	db	110	;'n'
   461  00FD3D  67                 	db	103	;'g'
   462  00FD3E  43                 	db	67	;'C'
   463  00FD3F  75                 	db	117	;'u'
   464  00FD40  72                 	db	114	;'r'
   465  00FD41  72                 	db	114	;'r'
   466  00FD42  3D                 	db	61	;'='
   467  00FD43  25                 	db	37
   468  00FD44  30                 	db	48	;'0'
   469  00FD45  34                 	db	52	;'4'
   470  00FD46  78                 	db	120	;'x'
   471  00FD47  20                 	db	32
   472  00FD48  20                 	db	32
   473  00FD49  25                 	db	37
   474  00FD4A  35                 	db	53	;'5'
   475  00FD4B  64                 	db	100	;'d'
   476  00FD4C  5B                 	db	91	;'['
   477  00FD4D  6D                 	db	109	;'m'
   478  00FD4E  41                 	db	65	;'A'
   479  00FD4F  5D                 	db	93	;']'
   480  00FD50  0A                 	db	10
   481  00FD51  00                 	db	0
   482  00FD52                     STR_19:
   483  00FD52  50                 	db	80	;'P'
   484  00FD53  43                 	db	67	;'C'
   485  00FD54  4B                 	db	75	;'K'
   486  00FD55  50                 	db	80	;'P'
   487  00FD56  20                 	db	32
   488  00FD57  20                 	db	32
   489  00FD58  20                 	db	32
   490  00FD59  20                 	db	32
   491  00FD5A  20                 	db	32
   492  00FD5B  20                 	db	32
   493  00FD5C  3D                 	db	61	;'='
   494  00FD5D  25                 	db	37
   495  00FD5E  30                 	db	48	;'0'
   496  00FD5F  34                 	db	52	;'4'
   497  00FD60  78                 	db	120	;'x'
   498  00FD61  20                 	db	32
   499  00FD62  20                 	db	32
   500  00FD63  25                 	db	37
   501  00FD64  35                 	db	53	;'5'
   502  00FD65  64                 	db	100	;'d'
   503  00FD66  5B                 	db	91	;'['
   504  00FD67  6D                 	db	109	;'m'
   505  00FD68  56                 	db	86	;'V'
   506  00FD69  5D                 	db	93	;']'
   507  00FD6A  0A                 	db	10
   508  00FD6B  00                 	db	0
   509  00FD6C                     STR_18:
   510  00FD6C  42                 	db	66	;'B'
   511  00FD6D  61                 	db	97	;'a'
   512  00FD6E  74                 	db	116	;'t'
   513  00FD6F  74                 	db	116	;'t'
   514  00FD70  20                 	db	32
   515  00FD71  20                 	db	32
   516  00FD72  20                 	db	32
   517  00FD73  20                 	db	32
   518  00FD74  20                 	db	32
   519  00FD75  20                 	db	32
   520  00FD76  3D                 	db	61	;'='
   521  00FD77  25                 	db	37
   522  00FD78  30                 	db	48	;'0'
   523  00FD79  34                 	db	52	;'4'
   524  00FD7A  78                 	db	120	;'x'
   525  00FD7B  20                 	db	32
   526  00FD7C  20                 	db	32
   527  00FD7D  25                 	db	37
   528  00FD7E  35                 	db	53	;'5'
   529  00FD7F  64                 	db	100	;'d'
   530  00FD80  5B                 	db	91	;'['
   531  00FD81  6D                 	db	109	;'m'
   532  00FD82  56                 	db	86	;'V'
   533  00FD83  5D                 	db	93	;']'
   534  00FD84  0A                 	db	10
   535  00FD85  00                 	db	0
   536  00FD86                     STR_14:
   537  00FD86  43                 	db	67	;'C'
   538  00FD87  45                 	db	69	;'E'
   539  00FD88  4C                 	db	76	;'L'
   540  00FD89  4C                 	db	76	;'L'
   541  00FD8A  31                 	db	49	;'1'
   542  00FD8B  20                 	db	32
   543  00FD8C  20                 	db	32
   544  00FD8D  20                 	db	32
   545  00FD8E  20                 	db	32
   546  00FD8F  20                 	db	32
   547  00FD90  3D                 	db	61	;'='
   548  00FD91  25                 	db	37
   549  00FD92  30                 	db	48	;'0'
   550  00FD93  34                 	db	52	;'4'
   551  00FD94  78                 	db	120	;'x'
   552  00FD95  20                 	db	32
   553  00FD96  20                 	db	32
   554  00FD97  25                 	db	37
   555  00FD98  35                 	db	53	;'5'
   556  00FD99  64                 	db	100	;'d'
   557  00FD9A  5B                 	db	91	;'['
   558  00FD9B  6D                 	db	109	;'m'
   559  00FD9C  56                 	db	86	;'V'
   560  00FD9D  5D                 	db	93	;']'
   561  00FD9E  0A                 	db	10
   562  00FD9F  00                 	db	0
   563  00FDA0                     STR_15:
   564  00FDA0  43                 	db	67	;'C'
   565  00FDA1  45                 	db	69	;'E'
   566  00FDA2  4C                 	db	76	;'L'
   567  00FDA3  4C                 	db	76	;'L'
   568  00FDA4  32                 	db	50	;'2'
   569  00FDA5  20                 	db	32
   570  00FDA6  20                 	db	32
   571  00FDA7  20                 	db	32
   572  00FDA8  20                 	db	32
   573  00FDA9  20                 	db	32
   574  00FDAA  3D                 	db	61	;'='
   575  00FDAB  25                 	db	37
   576  00FDAC  30                 	db	48	;'0'
   577  00FDAD  34                 	db	52	;'4'
   578  00FDAE  78                 	db	120	;'x'
   579  00FDAF  20                 	db	32
   580  00FDB0  20                 	db	32
   581  00FDB1  25                 	db	37
   582  00FDB2  35                 	db	53	;'5'
   583  00FDB3  64                 	db	100	;'d'
   584  00FDB4  5B                 	db	91	;'['
   585  00FDB5  6D                 	db	109	;'m'
   586  00FDB6  56                 	db	86	;'V'
   587  00FDB7  5D                 	db	93	;']'
   588  00FDB8  0A                 	db	10
   589  00FDB9  00                 	db	0
   590  00FDBA                     STR_16:
   591  00FDBA  43                 	db	67	;'C'
   592  00FDBB  45                 	db	69	;'E'
   593  00FDBC  4C                 	db	76	;'L'
   594  00FDBD  4C                 	db	76	;'L'
   595  00FDBE  33                 	db	51	;'3'
   596  00FDBF  20                 	db	32
   597  00FDC0  20                 	db	32
   598  00FDC1  20                 	db	32
   599  00FDC2  20                 	db	32
   600  00FDC3  20                 	db	32
   601  00FDC4  3D                 	db	61	;'='
   602  00FDC5  25                 	db	37
   603  00FDC6  30                 	db	48	;'0'
   604  00FDC7  34                 	db	52	;'4'
   605  00FDC8  78                 	db	120	;'x'
   606  00FDC9  20                 	db	32
   607  00FDCA  20                 	db	32
   608  00FDCB  25                 	db	37
   609  00FDCC  35                 	db	53	;'5'
   610  00FDCD  64                 	db	100	;'d'
   611  00FDCE  5B                 	db	91	;'['
   612  00FDCF  6D                 	db	109	;'m'
   613  00FDD0  56                 	db	86	;'V'
   614  00FDD1  5D                 	db	93	;']'
   615  00FDD2  0A                 	db	10
   616  00FDD3  00                 	db	0
   617  00FDD4                     STR_17:
   618  00FDD4  43                 	db	67	;'C'
   619  00FDD5  45                 	db	69	;'E'
   620  00FDD6  4C                 	db	76	;'L'
   621  00FDD7  4C                 	db	76	;'L'
   622  00FDD8  34                 	db	52	;'4'
   623  00FDD9  20                 	db	32
   624  00FDDA  20                 	db	32
   625  00FDDB  20                 	db	32
   626  00FDDC  20                 	db	32
   627  00FDDD  20                 	db	32
   628  00FDDE  3D                 	db	61	;'='
   629  00FDDF  25                 	db	37
   630  00FDE0  30                 	db	48	;'0'
   631  00FDE1  34                 	db	52	;'4'
   632  00FDE2  78                 	db	120	;'x'
   633  00FDE3  20                 	db	32
   634  00FDE4  20                 	db	32
   635  00FDE5  25                 	db	37
   636  00FDE6  35                 	db	53	;'5'
   637  00FDE7  64                 	db	100	;'d'
   638  00FDE8  5B                 	db	91	;'['
   639  00FDE9  6D                 	db	109	;'m'
   640  00FDEA  56                 	db	86	;'V'
   641  00FDEB  5D                 	db	93	;']'
   642  00FDEC  0A                 	db	10
   643  00FDED  00                 	db	0
   644  00FDEE                     STR_23:
   645  00FDEE  43                 	db	67	;'C'
   646  00FDEF  68                 	db	104	;'h'
   647  00FDF0  67                 	db	103	;'g'
   648  00FDF1  69                 	db	105	;'i'
   649  00FDF2  6E                 	db	110	;'n'
   650  00FDF3  67                 	db	103	;'g'
   651  00FDF4  56                 	db	86	;'V'
   652  00FDF5  6F                 	db	111	;'o'
   653  00FDF6  6C                 	db	108	;'l'
   654  00FDF7  74                 	db	116	;'t'
   655  00FDF8  3D                 	db	61	;'='
   656  00FDF9  25                 	db	37
   657  00FDFA  30                 	db	48	;'0'
   658  00FDFB  34                 	db	52	;'4'
   659  00FDFC  78                 	db	120	;'x'
   660  00FDFD  20                 	db	32
   661  00FDFE  20                 	db	32
   662  00FDFF  25                 	db	37
   663  00FE00  35                 	db	53	;'5'
   664  00FE01  64                 	db	100	;'d'
   665  00FE02  5B                 	db	91	;'['
   666  00FE03  6D                 	db	109	;'m'
   667  00FE04  56                 	db	86	;'V'
   668  00FE05  5D                 	db	93	;']'
   669  00FE06  0A                 	db	10
   670  00FE07  00                 	db	0
   671  00FE08                     STR_48:
   672  00FE08  43                 	db	67	;'C'
   673  00FE09  68                 	db	104	;'h'
   674  00FE0A  61                 	db	97	;'a'
   675  00FE0B  72                 	db	114	;'r'
   676  00FE0C  67                 	db	103	;'g'
   677  00FE0D  65                 	db	101	;'e'
   678  00FE0E  56                 	db	86	;'V'
   679  00FE0F  6F                 	db	111	;'o'
   680  00FE10  6C                 	db	108	;'l'
   681  00FE11  74                 	db	116	;'t'
   682  00FE12  61                 	db	97	;'a'
   683  00FE13  67                 	db	103	;'g'
   684  00FE14  65                 	db	101	;'e'
   685  00FE15  20                 	db	32
   686  00FE16  20                 	db	32
   687  00FE17  3D                 	db	61	;'='
   688  00FE18  25                 	db	37
   689  00FE19  30                 	db	48	;'0'
   690  00FE1A  34                 	db	52	;'4'
   691  00FE1B  78                 	db	120	;'x'
   692  00FE1C  0A                 	db	10
   693  00FE1D  00                 	db	0
   694  00FE1E                     STR_47:
   695  00FE1E  43                 	db	67	;'C'
   696  00FE1F  68                 	db	104	;'h'
   697  00FE20  61                 	db	97	;'a'
   698  00FE21  72                 	db	114	;'r'
   699  00FE22  67                 	db	103	;'g'
   700  00FE23  65                 	db	101	;'e'
   701  00FE24  43                 	db	67	;'C'
   702  00FE25  75                 	db	117	;'u'
   703  00FE26  72                 	db	114	;'r'
   704  00FE27  72                 	db	114	;'r'
   705  00FE28  65                 	db	101	;'e'
   706  00FE29  6E                 	db	110	;'n'
   707  00FE2A  74                 	db	116	;'t'
   708  00FE2B  20                 	db	32
   709  00FE2C  20                 	db	32
   710  00FE2D  3D                 	db	61	;'='
   711  00FE2E  25                 	db	37
   712  00FE2F  30                 	db	48	;'0'
   713  00FE30  34                 	db	52	;'4'
   714  00FE31  78                 	db	120	;'x'
   715  00FE32  0A                 	db	10
   716  00FE33  00                 	db	0
   717  00FE34                     STR_49:
   718  00FE34  52                 	db	82	;'R'
   719  00FE35  65                 	db	101	;'e'
   720  00FE36  6C                 	db	108	;'l'
   721  00FE37  65                 	db	101	;'e'
   722  00FE38  61                 	db	97	;'a'
   723  00FE39  72                 	db	114	;'r'
   724  00FE3A  6E                 	db	110	;'n'
   725  00FE3B  20                 	db	32
   726  00FE3C  56                 	db	86	;'V'
   727  00FE3D  6F                 	db	111	;'o'
   728  00FE3E  6C                 	db	108	;'l'
   729  00FE3F  74                 	db	116	;'t'
   730  00FE40  61                 	db	97	;'a'
   731  00FE41  67                 	db	103	;'g'
   732  00FE42  65                 	db	101	;'e'
   733  00FE43  3D                 	db	61	;'='
   734  00FE44  25                 	db	37
   735  00FE45  30                 	db	48	;'0'
   736  00FE46  34                 	db	52	;'4'
   737  00FE47  78                 	db	120	;'x'
   738  00FE48  0A                 	db	10
   739  00FE49  00                 	db	0
   740  00FE4A                     STR_44:
   741  00FE4A  6E                 	db	110	;'n'
   742  00FE4B  4E                 	db	78	;'N'
   743  00FE4C  56                 	db	86	;'V'
   744  00FE4D  43                 	db	67	;'C'
   745  00FE4E  66                 	db	102	;'f'
   746  00FE4F  67                 	db	103	;'g'
   747  00FE50  30                 	db	48	;'0'
   748  00FE51  20                 	db	32
   749  00FE52  20                 	db	32
   750  00FE53  20                 	db	32
   751  00FE54  20                 	db	32
   752  00FE55  3D                 	db	61	;'='
   753  00FE56  25                 	db	37
   754  00FE57  30                 	db	48	;'0'
   755  00FE58  34                 	db	52	;'4'
   756  00FE59  78                 	db	120	;'x'
   757  00FE5A  0A                 	db	10
   758  00FE5B  00                 	db	0
   759  00FE5C                     STR_42:
   760  00FE5C  6E                 	db	110	;'n'
   761  00FE5D  4A                 	db	74	;'J'
   762  00FE5E  45                 	db	69	;'E'
   763  00FE5F  49                 	db	73	;'I'
   764  00FE60  54                 	db	84	;'T'
   765  00FE61  41                 	db	65	;'A'
   766  00FE62  43                 	db	67	;'C'
   767  00FE63  20                 	db	32
   768  00FE64  20                 	db	32
   769  00FE65  20                 	db	32
   770  00FE66  20                 	db	32
   771  00FE67  3D                 	db	61	;'='
   772  00FE68  25                 	db	37
   773  00FE69  30                 	db	48	;'0'
   774  00FE6A  34                 	db	52	;'4'
   775  00FE6B  78                 	db	120	;'x'
   776  00FE6C  0A                 	db	10
   777  00FE6D  00                 	db	0
   778  00FE6E                     STR_43:
   779  00FE6E  6E                 	db	110	;'n'
   780  00FE6F  4A                 	db	74	;'J'
   781  00FE70  45                 	db	69	;'E'
   782  00FE71  49                 	db	73	;'I'
   783  00FE72  54                 	db	84	;'T'
   784  00FE73  41                 	db	65	;'A'
   785  00FE74  56                 	db	86	;'V'
   786  00FE75  20                 	db	32
   787  00FE76  20                 	db	32
   788  00FE77  20                 	db	32
   789  00FE78  20                 	db	32
   790  00FE79  3D                 	db	61	;'='
   791  00FE7A  25                 	db	37
   792  00FE7B  30                 	db	48	;'0'
   793  00FE7C  34                 	db	52	;'4'
   794  00FE7D  78                 	db	120	;'x'
   795  00FE7E  0A                 	db	10
   796  00FE7F  00                 	db	0
   797  00FE80                     STR_38:
   798  00FE80  6E                 	db	110	;'n'
   799  00FE81  48                 	db	72	;'H'
   800  00FE82  69                 	db	105	;'i'
   801  00FE83  62                 	db	98	;'b'
   802  00FE84  43                 	db	67	;'C'
   803  00FE85  66                 	db	102	;'f'
   804  00FE86  67                 	db	103	;'g'
   805  00FE87  20                 	db	32
   806  00FE88  20                 	db	32
   807  00FE89  20                 	db	32
   808  00FE8A  20                 	db	32
   809  00FE8B  3D                 	db	61	;'='
   810  00FE8C  25                 	db	37
   811  00FE8D  30                 	db	48	;'0'
   812  00FE8E  34                 	db	52	;'4'
   813  00FE8F  78                 	db	120	;'x'
   814  00FE90  0A                 	db	10
   815  00FE91  00                 	db	0
   816  00FE92                     STR_35:
   817  00FE92  6E                 	db	110	;'n'
   818  00FE93  43                 	db	67	;'C'
   819  00FE94  68                 	db	104	;'h'
   820  00FE95  67                 	db	103	;'g'
   821  00FE96  43                 	db	67	;'C'
   822  00FE97  66                 	db	102	;'f'
   823  00FE98  67                 	db	103	;'g'
   824  00FE99  20                 	db	32
   825  00FE9A  20                 	db	32
   826  00FE9B  20                 	db	32
   827  00FE9C  20                 	db	32
   828  00FE9D  3D                 	db	61	;'='
   829  00FE9E  25                 	db	37
   830  00FE9F  30                 	db	48	;'0'
   831  00FEA0  34                 	db	52	;'4'
   832  00FEA1  78                 	db	120	;'x'
   833  00FEA2  0A                 	db	10
   834  00FEA3  00                 	db	0
   835  00FEA4                     STR_32:
   836  00FEA4  6E                 	db	110	;'n'
   837  00FEA5  43                 	db	67	;'C'
   838  00FEA6  6F                 	db	111	;'o'
   839  00FEA7  6E                 	db	110	;'n'
   840  00FEA8  66                 	db	102	;'f'
   841  00FEA9  69                 	db	105	;'i'
   842  00FEAA  67                 	db	103	;'g'
   843  00FEAB  20                 	db	32
   844  00FEAC  20                 	db	32
   845  00FEAD  20                 	db	32
   846  00FEAE  20                 	db	32
   847  00FEAF  3D                 	db	61	;'='
   848  00FEB0  25                 	db	37
   849  00FEB1  30                 	db	48	;'0'
   850  00FEB2  34                 	db	52	;'4'
   851  00FEB3  78                 	db	120	;'x'
   852  00FEB4  0A                 	db	10
   853  00FEB5  00                 	db	0
   854  00FEB6                     STR_45:
   855  00FEB6  4E                 	db	78	;'N'
   856  00FEB7  56                 	db	86	;'V'
   857  00FEB8  4D                 	db	77	;'M'
   858  00FEB9  5F                 	db	95	;'_'
   859  00FEBA  55                 	db	85	;'U'
   860  00FEBB  53                 	db	83	;'S'
   861  00FEBC  45                 	db	69	;'E'
   862  00FEBD  44                 	db	68	;'D'
   863  00FEBE  20                 	db	32
   864  00FEBF  20                 	db	32
   865  00FEC0  20                 	db	32
   866  00FEC1  3D                 	db	61	;'='
   867  00FEC2  25                 	db	37
   868  00FEC3  30                 	db	48	;'0'
   869  00FEC4  34                 	db	52	;'4'
   870  00FEC5  78                 	db	120	;'x'
   871  00FEC6  0A                 	db	10
   872  00FEC7  00                 	db	0
   873  00FEC8                     STR_34:
   874  00FEC8  6E                 	db	110	;'n'
   875  00FEC9  50                 	db	80	;'P'
   876  00FECA  61                 	db	97	;'a'
   877  00FECB  63                 	db	99	;'c'
   878  00FECC  6B                 	db	107	;'k'
   879  00FECD  43                 	db	67	;'C'
   880  00FECE  66                 	db	102	;'f'
   881  00FECF  67                 	db	103	;'g'
   882  00FED0  20                 	db	32
   883  00FED1  20                 	db	32
   884  00FED2  20                 	db	32
   885  00FED3  3D                 	db	61	;'='
   886  00FED4  25                 	db	37
   887  00FED5  30                 	db	48	;'0'
   888  00FED6  34                 	db	52	;'4'
   889  00FED7  78                 	db	120	;'x'
   890  00FED8  0A                 	db	10
   891  00FED9  00                 	db	0
   892  00FEDA                     STR_40:
   893  00FEDA  6E                 	db	110	;'n'
   894  00FEDB  50                 	db	80	;'P'
   895  00FEDC  72                 	db	114	;'r'
   896  00FEDD  6F                 	db	111	;'o'
   897  00FEDE  74                 	db	116	;'t'
   898  00FEDF  43                 	db	67	;'C'
   899  00FEE0  66                 	db	102	;'f'
   900  00FEE1  67                 	db	103	;'g'
   901  00FEE2  20                 	db	32
   902  00FEE3  20                 	db	32
   903  00FEE4  20                 	db	32
   904  00FEE5  3D                 	db	61	;'='
   905  00FEE6  25                 	db	37
   906  00FEE7  30                 	db	48	;'0'
   907  00FEE8  34                 	db	52	;'4'
   908  00FEE9  78                 	db	120	;'x'
   909  00FEEA  0A                 	db	10
   910  00FEEB  00                 	db	0
   911  00FEEC                     STR_36:
   912  00FEEC  6E                 	db	110	;'n'
   913  00FEED  43                 	db	67	;'C'
   914  00FEEE  68                 	db	104	;'h'
   915  00FEEF  67                 	db	103	;'g'
   916  00FEF0  43                 	db	67	;'C'
   917  00FEF1  74                 	db	116	;'t'
   918  00FEF2  72                 	db	114	;'r'
   919  00FEF3  6C                 	db	108	;'l'
   920  00FEF4  20                 	db	32
   921  00FEF5  20                 	db	32
   922  00FEF6  20                 	db	32
   923  00FEF7  3D                 	db	61	;'='
   924  00FEF8  25                 	db	37
   925  00FEF9  30                 	db	48	;'0'
   926  00FEFA  34                 	db	52	;'4'
   927  00FEFB  78                 	db	120	;'x'
   928  00FEFC  0A                 	db	10
   929  00FEFD  00                 	db	0
   930  00FEFE                     STR_41:
   931  00FEFE  6E                 	db	110	;'n'
   932  00FEFF  50                 	db	80	;'P'
   933  00FF00  72                 	db	114	;'r'
   934  00FF01  6F                 	db	111	;'o'
   935  00FF02  74                 	db	116	;'t'
   936  00FF03  43                 	db	67	;'C'
   937  00FF04  66                 	db	102	;'f'
   938  00FF05  67                 	db	103	;'g'
   939  00FF06  32                 	db	50	;'2'
   940  00FF07  20                 	db	32
   941  00FF08  20                 	db	32
   942  00FF09  3D                 	db	61	;'='
   943  00FF0A  25                 	db	37
   944  00FF0B  30                 	db	48	;'0'
   945  00FF0C  34                 	db	52	;'4'
   946  00FF0D  78                 	db	120	;'x'
   947  00FF0E  0A                 	db	10
   948  00FF0F  00                 	db	0
   949  00FF10                     STR_37:
   950  00FF10  6E                 	db	110	;'n'
   951  00FF11  43                 	db	67	;'C'
   952  00FF12  6F                 	db	111	;'o'
   953  00FF13  6E                 	db	110	;'n'
   954  00FF14  76                 	db	118	;'v'
   955  00FF15  67                 	db	103	;'g'
   956  00FF16  43                 	db	67	;'C'
   957  00FF17  66                 	db	102	;'f'
   958  00FF18  67                 	db	103	;'g'
   959  00FF19  20                 	db	32
   960  00FF1A  20                 	db	32
   961  00FF1B  3D                 	db	61	;'='
   962  00FF1C  25                 	db	37
   963  00FF1D  30                 	db	48	;'0'
   964  00FF1E  34                 	db	52	;'4'
   965  00FF1F  78                 	db	120	;'x'
   966  00FF20  0A                 	db	10
   967  00FF21  00                 	db	0
   968  00FF22                     STR_39:
   969  00FF22  6E                 	db	110	;'n'
   970  00FF23  54                 	db	84	;'T'
   971  00FF24  68                 	db	104	;'h'
   972  00FF25  65                 	db	101	;'e'
   973  00FF26  72                 	db	114	;'r'
   974  00FF27  6D                 	db	109	;'m'
   975  00FF28  43                 	db	67	;'C'
   976  00FF29  66                 	db	102	;'f'
   977  00FF2A  67                 	db	103	;'g'
   978  00FF2B  20                 	db	32
   979  00FF2C  20                 	db	32
   980  00FF2D  3D                 	db	61	;'='
   981  00FF2E  25                 	db	37
   982  00FF2F  30                 	db	48	;'0'
   983  00FF30  34                 	db	52	;'4'
   984  00FF31  78                 	db	120	;'x'
   985  00FF32  0A                 	db	10
   986  00FF33  00                 	db	0
   987  00FF34                     STR_27:
   988  00FF34  6E                 	db	110	;'n'
   989  00FF35  4C                 	db	76	;'L'
   990  00FF36  65                 	db	101	;'e'
   991  00FF37  61                 	db	97	;'a'
   992  00FF38  72                 	db	114	;'r'
   993  00FF39  6E                 	db	110	;'n'
   994  00FF3A  43                 	db	67	;'C'
   995  00FF3B  66                 	db	102	;'f'
   996  00FF3C  67                 	db	103	;'g'
   997  00FF3D  20                 	db	32
   998  00FF3E  20                 	db	32
   999  00FF3F  3D                 	db	61	;'='
  1000  00FF40  25                 	db	37
  1001  00FF41  30                 	db	48	;'0'
  1002  00FF42  34                 	db	52	;'4'
  1003  00FF43  78                 	db	120	;'x'
  1004  00FF44  0A                 	db	10
  1005  00FF45  00                 	db	0
  1006  00FF46                     STR_33:
  1007  00FF46  6E                 	db	110	;'n'
  1008  00FF47  52                 	db	82	;'R'
  1009  00FF48  65                 	db	101	;'e'
  1010  00FF49  6C                 	db	108	;'l'
  1011  00FF4A  61                 	db	97	;'a'
  1012  00FF4B  78                 	db	120	;'x'
  1013  00FF4C  43                 	db	67	;'C'
  1014  00FF4D  66                 	db	102	;'f'
  1015  00FF4E  67                 	db	103	;'g'
  1016  00FF4F  20                 	db	32
  1017  00FF50  20                 	db	32
  1018  00FF51  3D                 	db	61	;'='
  1019  00FF52  25                 	db	37
  1020  00FF53  30                 	db	48	;'0'
  1021  00FF54  34                 	db	52	;'4'
  1022  00FF55  78                 	db	120	;'x'
  1023  00FF56  0A                 	db	10
  1024  00FF57  00                 	db	0
  1025  00FF58                     STR_31:
  1026  00FF58  6E                 	db	110	;'n'
  1027  00FF59  42                 	db	66	;'B'
  1028  00FF5A  61                 	db	97	;'a'
  1029  00FF5B  74                 	db	116	;'t'
  1030  00FF5C  74                 	db	116	;'t'
  1031  00FF5D  53                 	db	83	;'S'
  1032  00FF5E  74                 	db	116	;'t'
  1033  00FF5F  61                 	db	97	;'a'
  1034  00FF60  74                 	db	116	;'t'
  1035  00FF61  75                 	db	117	;'u'
  1036  00FF62  73                 	db	115	;'s'
  1037  00FF63  3D                 	db	61	;'='
  1038  00FF64  25                 	db	37
  1039  00FF65  30                 	db	48	;'0'
  1040  00FF66  34                 	db	52	;'4'
  1041  00FF67  78                 	db	120	;'x'
  1042  00FF68  0A                 	db	10
  1043  00FF69  00                 	db	0
  1044  00FF6A                     STR_3:
  1045  00FF6A  53                 	db	83	;'S'
  1046  00FF6B  74                 	db	116	;'t'
  1047  00FF6C  61                 	db	97	;'a'
  1048  00FF6D  74                 	db	116	;'t'
  1049  00FF6E  75                 	db	117	;'u'
  1050  00FF6F  73                 	db	115	;'s'
  1051  00FF70  20                 	db	32
  1052  00FF71  20                 	db	32
  1053  00FF72  20                 	db	32
  1054  00FF73  20                 	db	32
  1055  00FF74  3D                 	db	61	;'='
  1056  00FF75  25                 	db	37
  1057  00FF76  30                 	db	48	;'0'
  1058  00FF77  34                 	db	52	;'4'
  1059  00FF78  78                 	db	120	;'x'
  1060  00FF79  0A                 	db	10
  1061  00FF7A  00                 	db	0
  1062  00FF7B                     STR_8:
  1063  00FF7B  43                 	db	67	;'C'
  1064  00FF7C  6F                 	db	111	;'o'
  1065  00FF7D  6E                 	db	110	;'n'
  1066  00FF7E  66                 	db	102	;'f'
  1067  00FF7F  69                 	db	105	;'i'
  1068  00FF80  67                 	db	103	;'g'
  1069  00FF81  32                 	db	50	;'2'
  1070  00FF82  20                 	db	32
  1071  00FF83  20                 	db	32
  1072  00FF84  20                 	db	32
  1073  00FF85  3D                 	db	61	;'='
  1074  00FF86  25                 	db	37
  1075  00FF87  30                 	db	48	;'0'
  1076  00FF88  34                 	db	52	;'4'
  1077  00FF89  78                 	db	120	;'x'
  1078  00FF8A  0A                 	db	10
  1079  00FF8B  00                 	db	0
  1080  00FF8C                     STR_4:
  1081  00FF8C  53                 	db	83	;'S'
  1082  00FF8D  74                 	db	116	;'t'
  1083  00FF8E  61                 	db	97	;'a'
  1084  00FF8F  74                 	db	116	;'t'
  1085  00FF90  75                 	db	117	;'u'
  1086  00FF91  73                 	db	115	;'s'
  1087  00FF92  32                 	db	50	;'2'
  1088  00FF93  20                 	db	32
  1089  00FF94  20                 	db	32
  1090  00FF95  20                 	db	32
  1091  00FF96  3D                 	db	61	;'='
  1092  00FF97  25                 	db	37
  1093  00FF98  30                 	db	48	;'0'
  1094  00FF99  34                 	db	52	;'4'
  1095  00FF9A  78                 	db	120	;'x'
  1096  00FF9B  0A                 	db	10
  1097  00FF9C  00                 	db	0
  1098  00FF9D                     STR_25:
  1099  00FF9D  43                 	db	67	;'C'
  1100  00FF9E  6F                 	db	111	;'o'
  1101  00FF9F  6D                 	db	109	;'m'
  1102  00FFA0  6D                 	db	109	;'m'
  1103  00FFA1  53                 	db	83	;'S'
  1104  00FFA2  74                 	db	116	;'t'
  1105  00FFA3  61                 	db	97	;'a'
  1106  00FFA4  74                 	db	116	;'t'
  1107  00FFA5  20                 	db	32
  1108  00FFA6  20                 	db	32
  1109  00FFA7  3D                 	db	61	;'='
  1110  00FFA8  25                 	db	37
  1111  00FFA9  30                 	db	48	;'0'
  1112  00FFAA  34                 	db	52	;'4'
  1113  00FFAB  78                 	db	120	;'x'
  1114  00FFAC  0A                 	db	10
  1115  00FFAD  00                 	db	0
  1116  00FFAE                     STR_24:
  1117  00FFAE  48                 	db	72	;'H'
  1118  00FFAF  50                 	db	80	;'P'
  1119  00FFB0  72                 	db	114	;'r'
  1120  00FFB1  6F                 	db	111	;'o'
  1121  00FFB2  74                 	db	116	;'t'
  1122  00FFB3  43                 	db	67	;'C'
  1123  00FFB4  66                 	db	102	;'f'
  1124  00FFB5  67                 	db	103	;'g'
  1125  00FFB6  32                 	db	50	;'2'
  1126  00FFB7  20                 	db	32
  1127  00FFB8  3D                 	db	61	;'='
  1128  00FFB9  25                 	db	37
  1129  00FFBA  30                 	db	48	;'0'
  1130  00FFBB  34                 	db	52	;'4'
  1131  00FFBC  78                 	db	120	;'x'
  1132  00FFBD  0A                 	db	10
  1133  00FFBE  00                 	db	0
  1134  00FFBF                     STR_5:
  1135  00FFBF  50                 	db	80	;'P'
  1136  00FFC0  72                 	db	114	;'r'
  1137  00FFC1  6F                 	db	111	;'o'
  1138  00FFC2  74                 	db	116	;'t'
  1139  00FFC3  41                 	db	65	;'A'
  1140  00FFC4  6C                 	db	108	;'l'
  1141  00FFC5  65                 	db	101	;'e'
  1142  00FFC6  72                 	db	114	;'r'
  1143  00FFC7  74                 	db	116	;'t'
  1144  00FFC8  20                 	db	32
  1145  00FFC9  3D                 	db	61	;'='
  1146  00FFCA  25                 	db	37
  1147  00FFCB  30                 	db	48	;'0'
  1148  00FFCC  34                 	db	52	;'4'
  1149  00FFCD  78                 	db	120	;'x'
  1150  00FFCE  0A                 	db	10
  1151  00FFCF  00                 	db	0
  1152  00FFD0                     STR_6:
  1153  00FFD0  50                 	db	80	;'P'
  1154  00FFD1  72                 	db	114	;'r'
  1155  00FFD2  6F                 	db	111	;'o'
  1156  00FFD3  74                 	db	116	;'t'
  1157  00FFD4  53                 	db	83	;'S'
  1158  00FFD5  74                 	db	116	;'t'
  1159  00FFD6  61                 	db	97	;'a'
  1160  00FFD7  74                 	db	116	;'t'
  1161  00FFD8  75                 	db	117	;'u'
  1162  00FFD9  73                 	db	115	;'s'
  1163  00FFDA  3D                 	db	61	;'='
  1164  00FFDB  25                 	db	37
  1165  00FFDC  30                 	db	48	;'0'
  1166  00FFDD  34                 	db	52	;'4'
  1167  00FFDE  78                 	db	120	;'x'
  1168  00FFDF  0A                 	db	10
  1169  00FFE0  00                 	db	0
  1170  00FFE1                     STR_46:
  1171  00FFE1  0A                 	db	10
  1172  00FFE2  4D                 	db	77	;'M'
  1173  00FFE3  41                 	db	65	;'A'
  1174  00FFE4  58                 	db	88	;'X'
  1175  00FFE5  31                 	db	49	;'1'
  1176  00FFE6  37                 	db	55	;'7'
  1177  00FFE7  33                 	db	51	;'3'
  1178  00FFE8  34                 	db	52	;'4'
  1179  00FFE9  35                 	db	53	;'5'
  1180  00FFEA  0A                 	db	10
  1181  00FFEB  00                 	db	0
  1182  00FFEC                     STR_2:
  1183  00FFEC  0A                 	db	10
  1184  00FFED  52                 	db	82	;'R'
  1185  00FFEE  41                 	db	65	;'A'
  1186  00FFEF  4D                 	db	77	;'M'
  1187  00FFF0  0A                 	db	10
  1188  00FFF1  00                 	db	0
  1189  00FFF2                     STR_26:
  1190  00FFF2  0A                 	db	10
  1191  00FFF3  4E                 	db	78	;'N'
  1192  00FFF4  56                 	db	86	;'V'
  1193  00FFF5  4D                 	db	77	;'M'
  1194  00FFF6  0A                 	db	10
  1195  00FFF7  00                 	db	0
  1196  00FFF8                     STR_1:
  1197  00FFF8  62                 	db	98	;'b'
  1198  00FFF9  6F                 	db	111	;'o'
  1199  00FFFA  6F                 	db	111	;'o'
  1200  00FFFB  74                 	db	116	;'t'
  1201  00FFFC  21                 	db	33
  1202  00FFFD  00                 	db	0
  1203  00FFFE  00                 	db	0	; dummy byte at the end
  1204  0000                     
  1205                           ; #config settings
  1206                           
  1207                           	psect	cinit
  1208  013126                     __pcinit:
  1209                           	callstack 0
  1210  013126                     start_initialization:
  1211                           	callstack 0
  1212  013126                     __initialization:
  1213                           	callstack 0
  1214                           
  1215                           ; Initialize objects allocated to BANK0 (11 bytes)
  1216                           ; load TBLPTR registers with __pidataBANK0
  1217  013126  0EB4               	movlw	low __pidataBANK0
  1218  013128  6EF6               	movwf	tblptrl,c
  1219  01312A  0E32               	movlw	high __pidataBANK0
  1220  01312C  6EF7               	movwf	tblptrh,c
  1221  01312E  0E01               	movlw	low (__pidataBANK0 shr (0+16))
  1222  013130  6EF8               	movwf	tblptru,c
  1223  013132  EE00  F0A6         	lfsr	0,__pdataBANK0
  1224  013136  EE10 F00B          	lfsr	1,11
  1225  01313A                     copy_data0:
  1226  01313A  0009               	tblrd		*+
  1227  01313C  CFF5 FFEE          	movff	tablat,postinc0
  1228  013140  50E5               	movf	postdec1,w,c
  1229  013142  50E1               	movf	fsr1l,w,c
  1230  013144  E1FA               	bnz	copy_data0
  1231                           
  1232                           ; Clear objects allocated to BANK0 (40 bytes)
  1233  013146  EE00  F060         	lfsr	0,__pbssBANK0
  1234  01314A  0E28               	movlw	40
  1235  01314C                     clear_0:
  1236  01314C  6AEE               	clrf	postinc0,c
  1237  01314E  06E8               	decf	wreg,f,c
  1238  013150  E1FD               	bnz	clear_0
  1239  013152                     end_of_initialization:
  1240                           	callstack 0
  1241  013152                     __end_of__initialization:
  1242                           	callstack 0
  1243  013152  0100               	movlb	0
  1244  013154  EF8D  F096         	goto	_main	;jump to C main() function
  1245                           
  1246                           	psect	bssBANK0
  1247  000060                     __pbssBANK0:
  1248                           	callstack 0
  1249  000060                     _nout:
  1250                           	callstack 0
  1251  000060                     	ds	2
  1252  000062                     _width:
  1253                           	callstack 0
  1254  000062                     	ds	2
  1255  000064                     _prec:
  1256                           	callstack 0
  1257  000064                     	ds	2
  1258  000066                     _flags:
  1259                           	callstack 0
  1260  000066                     	ds	2
  1261  000068                     _dbuf:
  1262                           	callstack 0
  1263  000068                     	ds	32
  1264                           
  1265                           	psect	dataBANK0
  1266  0000A6                     __pdataBANK0:
  1267                           	callstack 0
  1268  0000A6                     _hello:
  1269                           	callstack 0
  1270  0000A6                     	ds	11
  1271                           
  1272                           	psect	cstackBANK0
  1273  000088                     __pcstackBANK0:
  1274                           	callstack 0
  1275  000088                     vfpfcnvrt@ll:
  1276                           	callstack 0
  1277                           
  1278                           ; 8 bytes @ 0x0
  1279  000088                     	ds	8
  1280  000090                     vfpfcnvrt@llu:
  1281                           	callstack 0
  1282                           
  1283                           ; 8 bytes @ 0x8
  1284  000090                     	ds	8
  1285  000098                     vfpfcnvrt@done:
  1286                           	callstack 0
  1287                           
  1288                           ; 2 bytes @ 0x10
  1289  000098                     	ds	2
  1290  00009A                     _vfpfcnvrt$1660:
  1291                           	callstack 0
  1292                           
  1293                           ; 2 bytes @ 0x12
  1294  00009A                     	ds	2
  1295  00009C                     vfpfcnvrt@c:
  1296                           	callstack 0
  1297                           
  1298                           ; 1 bytes @ 0x14
  1299  00009C                     	ds	3
  1300  00009F                     printf@ap:
  1301                           	callstack 0
  1302                           
  1303                           ; 2 bytes @ 0x17
  1304  00009F                     	ds	2
  1305  0000A1                     MAX17320_init@x:
  1306                           	callstack 0
  1307  0000A1                     _MAX17345_dump$2027:
  1308                           	callstack 0
  1309                           
  1310                           ; 2 bytes @ 0x19
  1311  0000A1                     	ds	2
  1312  0000A3                     MAX17320_init@data:
  1313                           	callstack 0
  1314  0000A3                     MAX17345_dump@data:
  1315                           	callstack 0
  1316                           
  1317                           ; 2 bytes @ 0x1B
  1318  0000A3                     	ds	2
  1319  0000A5                     MAX17320_init@r:
  1320                           	callstack 0
  1321                           
  1322                           ; 1 bytes @ 0x1D
  1323  0000A5                     	ds	1
  1324                           
  1325                           	psect	cstackCOMRAM
  1326  000001                     __pcstackCOMRAM:
  1327                           	callstack 0
  1328  000001                     ?_strlen:
  1329                           	callstack 0
  1330  000001                     ?_isupper:
  1331                           	callstack 0
  1332  000001                     ?_isalpha:
  1333                           	callstack 0
  1334  000001                     ?_isdigit:
  1335                           	callstack 0
  1336  000001                     ?_isspace:
  1337                           	callstack 0
  1338  000001                     ?_islower:
  1339                           	callstack 0
  1340  000001                     ?_ow_read_word:
  1341                           	callstack 0
  1342  000001                     ?___wmul:
  1343                           	callstack 0
  1344  000001                     ?___xxtofl:
  1345                           	callstack 0
  1346  000001                     ?___aodiv:
  1347                           	callstack 0
  1348  000001                     ?___aomod:
  1349                           	callstack 0
  1350  000001                     ow_reset@r:
  1351                           	callstack 0
  1352  000001                     i2c_write_byte@data:
  1353                           	callstack 0
  1354  000001                     SendCharUSB@d:
  1355                           	callstack 0
  1356  000001                     ow_write_word@data:
  1357                           	callstack 0
  1358  000001                     i2c_read_byte@data:
  1359                           	callstack 0
  1360  000001                     ___wmul@multiplier:
  1361                           	callstack 0
  1362  000001                     isalpha@c:
  1363                           	callstack 0
  1364  000001                     isdigit@c:
  1365                           	callstack 0
  1366  000001                     isspace@c:
  1367                           	callstack 0
  1368  000001                     isupper@c:
  1369                           	callstack 0
  1370  000001                     strlen@s:
  1371                           	callstack 0
  1372  000001                     islower@c:
  1373                           	callstack 0
  1374  000001                     ___xxtofl@val:
  1375                           	callstack 0
  1376  000001                     ___aodiv@dividend:
  1377                           	callstack 0
  1378  000001                     ___aomod@dividend:
  1379                           	callstack 0
  1380                           
  1381                           ; 8 bytes @ 0x0
  1382  000001                     	ds	1
  1383  000002                     putch@data:
  1384                           	callstack 0
  1385  000002                     MAX17345_write_word@command:
  1386                           	callstack 0
  1387  000002                     showText@t:
  1388                           	callstack 0
  1389                           
  1390                           ; 2 bytes @ 0x1
  1391  000002                     	ds	1
  1392  000003                     ??_isupper:
  1393  000003                     ??_isalpha:
  1394  000003                     ??_isdigit:
  1395  000003                     ??_isspace:
  1396  000003                     ??_islower:
  1397  000003                     ??_ow_read_word:
  1398  000003                     MAX17320_write_word@address:
  1399                           	callstack 0
  1400  000003                     MAX17345_read_word@command:
  1401                           	callstack 0
  1402  000003                     ___wmul@multiplicand:
  1403                           	callstack 0
  1404  000003                     fputc@c:
  1405                           	callstack 0
  1406  000003                     strlen@a:
  1407                           	callstack 0
  1408                           
  1409                           ; 2 bytes @ 0x2
  1410  000003                     	ds	1
  1411  000004                     MAX17345_write_word@data:
  1412                           	callstack 0
  1413                           
  1414                           ; 2 bytes @ 0x3
  1415  000004                     	ds	1
  1416  000005                     ??___xxtofl:
  1417  000005                     ow_read_word@H:
  1418                           	callstack 0
  1419  000005                     MAX17320_write_word@data:
  1420                           	callstack 0
  1421  000005                     MAX17345_read_word@data:
  1422                           	callstack 0
  1423  000005                     ___wmul@product:
  1424                           	callstack 0
  1425  000005                     fputc@fp:
  1426                           	callstack 0
  1427                           
  1428                           ; 2 bytes @ 0x4
  1429  000005                     	ds	1
  1430  000006                     ow_read_word@L:
  1431                           	callstack 0
  1432  000006                     MAX17345_write_word@r:
  1433                           	callstack 0
  1434                           
  1435                           ; 1 bytes @ 0x5
  1436  000006                     	ds	1
  1437  000007                     ??_fputc:
  1438  000007                     ??_MAX17345_read_word:
  1439  000007                     ?_toupper:
  1440                           	callstack 0
  1441  000007                     _isspace$1708:
  1442                           	callstack 0
  1443  000007                     MAX17320_read_word@address:
  1444                           	callstack 0
  1445  000007                     MAX17345_set_charge_current@charge_current:
  1446                           	callstack 0
  1447  000007                     MAX17345_set_charge_voltage@charge_voltage:
  1448                           	callstack 0
  1449  000007                     MAX17345_set_input_current@input_current:
  1450                           	callstack 0
  1451  000007                     MAX17345_set_relearn_voltage@relearn_voltage:
  1452                           	callstack 0
  1453  000007                     toupper@c:
  1454                           	callstack 0
  1455                           
  1456                           ; 2 bytes @ 0x6
  1457  000007                     	ds	1
  1458  000008                     ?_atoi:
  1459                           	callstack 0
  1460  000008                     atoi@s:
  1461                           	callstack 0
  1462                           
  1463                           ; 2 bytes @ 0x7
  1464  000008                     	ds	1
  1465  000009                     ??_toupper:
  1466  000009                     MAX17345_set_charge_current@r:
  1467                           	callstack 0
  1468  000009                     MAX17345_set_charge_voltage@r:
  1469                           	callstack 0
  1470  000009                     MAX17345_set_input_current@r:
  1471                           	callstack 0
  1472  000009                     MAX17345_set_relearn_voltage@r:
  1473                           	callstack 0
  1474  000009                     ___xxtofl@sign:
  1475                           	callstack 0
  1476  000009                     MAX17320_read_word@data:
  1477                           	callstack 0
  1478  000009                     ___aodiv@divisor:
  1479                           	callstack 0
  1480  000009                     ___aomod@divisor:
  1481                           	callstack 0
  1482                           
  1483                           ; 8 bytes @ 0x8
  1484  000009                     	ds	1
  1485  00000A                     ??_atoi:
  1486  00000A                     ___xxtofl@exp:
  1487                           	callstack 0
  1488                           
  1489                           ; 1 bytes @ 0x9
  1490  00000A                     	ds	1
  1491  00000B                     MAX17345_read_word@dataH:
  1492                           	callstack 0
  1493  00000B                     ___xxtofl@arg:
  1494                           	callstack 0
  1495                           
  1496                           ; 4 bytes @ 0xA
  1497  00000B                     	ds	1
  1498  00000C                     MAX17345_read_word@dataL:
  1499                           	callstack 0
  1500  00000C                     fputs@s:
  1501                           	callstack 0
  1502                           
  1503                           ; 2 bytes @ 0xB
  1504  00000C                     	ds	1
  1505  00000D                     MAX17345_read_word@r:
  1506                           	callstack 0
  1507  00000D                     _toupper$1757:
  1508                           	callstack 0
  1509                           
  1510                           ; 2 bytes @ 0xC
  1511  00000D                     	ds	1
  1512  00000E                     atoi@neg:
  1513                           	callstack 0
  1514  00000E                     fputs@fp:
  1515                           	callstack 0
  1516                           
  1517                           ; 2 bytes @ 0xD
  1518  00000E                     	ds	1
  1519  00000F                     ?___flmul:
  1520                           	callstack 0
  1521  00000F                     ___flmul@b:
  1522                           	callstack 0
  1523                           
  1524                           ; 4 bytes @ 0xE
  1525  00000F                     	ds	1
  1526  000010                     fputs@c:
  1527                           	callstack 0
  1528  000010                     _atoi$1681:
  1529                           	callstack 0
  1530                           
  1531                           ; 2 bytes @ 0xF
  1532  000010                     	ds	1
  1533  000011                     ___aodiv@counter:
  1534                           	callstack 0
  1535  000011                     ___aomod@counter:
  1536                           	callstack 0
  1537  000011                     fputs@i:
  1538                           	callstack 0
  1539                           
  1540                           ; 2 bytes @ 0x10
  1541  000011                     	ds	1
  1542  000012                     ___aodiv@sign:
  1543                           	callstack 0
  1544  000012                     ___aomod@sign:
  1545                           	callstack 0
  1546  000012                     _atoi$1683:
  1547                           	callstack 0
  1548                           
  1549                           ; 2 bytes @ 0x11
  1550  000012                     	ds	1
  1551  000013                     ?_abs:
  1552                           	callstack 0
  1553  000013                     ?_pad:
  1554                           	callstack 0
  1555  000013                     pad@fp:
  1556                           	callstack 0
  1557  000013                     abs@a:
  1558                           	callstack 0
  1559  000013                     ___flmul@a:
  1560                           	callstack 0
  1561  000013                     ___aodiv@quotient:
  1562                           	callstack 0
  1563                           
  1564                           ; 8 bytes @ 0x12
  1565  000013                     	ds	1
  1566  000014                     _atoi$1682:
  1567                           	callstack 0
  1568                           
  1569                           ; 1 bytes @ 0x13
  1570  000014                     	ds	1
  1571  000015                     ??_abs:
  1572  000015                     pad@buf:
  1573                           	callstack 0
  1574  000015                     atoi@n:
  1575                           	callstack 0
  1576                           
  1577                           ; 2 bytes @ 0x14
  1578  000015                     	ds	2
  1579  000017                     ??___flmul:
  1580  000017                     pad@p:
  1581                           	callstack 0
  1582                           
  1583                           ; 2 bytes @ 0x16
  1584  000017                     	ds	2
  1585  000019                     ??_pad:
  1586                           
  1587                           ; 1 bytes @ 0x18
  1588  000019                     	ds	1
  1589  00001A                     pad@i:
  1590                           	callstack 0
  1591                           
  1592                           ; 2 bytes @ 0x19
  1593  00001A                     	ds	1
  1594  00001B                     ___flmul@sign:
  1595                           	callstack 0
  1596                           
  1597                           ; 1 bytes @ 0x1A
  1598  00001B                     	ds	1
  1599  00001C                     pad@w:
  1600                           	callstack 0
  1601  00001C                     ___flmul@grs:
  1602                           	callstack 0
  1603                           
  1604                           ; 4 bytes @ 0x1B
  1605  00001C                     	ds	2
  1606  00001E                     ?_dtoa:
  1607                           	callstack 0
  1608  00001E                     ?_xtoa:
  1609                           	callstack 0
  1610  00001E                     dtoa@fp:
  1611                           	callstack 0
  1612  00001E                     xtoa@fp:
  1613                           	callstack 0
  1614                           
  1615                           ; 2 bytes @ 0x1D
  1616  00001E                     	ds	2
  1617  000020                     ___flmul@aexp:
  1618                           	callstack 0
  1619  000020                     dtoa@d:
  1620                           	callstack 0
  1621  000020                     xtoa@d:
  1622                           	callstack 0
  1623                           
  1624                           ; 8 bytes @ 0x1F
  1625  000020                     	ds	1
  1626  000021                     ___flmul@bexp:
  1627                           	callstack 0
  1628                           
  1629                           ; 1 bytes @ 0x20
  1630  000021                     	ds	1
  1631  000022                     ___flmul@prod:
  1632                           	callstack 0
  1633                           
  1634                           ; 4 bytes @ 0x21
  1635  000022                     	ds	4
  1636  000026                     ___flmul@temp:
  1637                           	callstack 0
  1638                           
  1639                           ; 2 bytes @ 0x25
  1640  000026                     	ds	2
  1641  000028                     ??_dtoa:
  1642  000028                     ?___fltol:
  1643                           	callstack 0
  1644  000028                     xtoa@x:
  1645                           	callstack 0
  1646  000028                     ___fltol@f1:
  1647                           	callstack 0
  1648                           
  1649                           ; 4 bytes @ 0x27
  1650  000028                     	ds	1
  1651  000029                     ??_xtoa:
  1652                           
  1653                           ; 1 bytes @ 0x28
  1654  000029                     	ds	3
  1655  00002C                     ??___fltol:
  1656                           
  1657                           ; 1 bytes @ 0x2B
  1658  00002C                     	ds	4
  1659  000030                     ___fltol@sign1:
  1660                           	callstack 0
  1661  000030                     _dtoa$1634:
  1662                           	callstack 0
  1663                           
  1664                           ; 2 bytes @ 0x2F
  1665  000030                     	ds	1
  1666  000031                     ___fltol@exp1:
  1667                           	callstack 0
  1668  000031                     _xtoa$1645:
  1669                           	callstack 0
  1670                           
  1671                           ; 2 bytes @ 0x30
  1672  000031                     	ds	1
  1673  000032                     dtoa@p:
  1674                           	callstack 0
  1675                           
  1676                           ; 2 bytes @ 0x31
  1677  000032                     	ds	1
  1678  000033                     _xtoa$1646:
  1679                           	callstack 0
  1680                           
  1681                           ; 2 bytes @ 0x32
  1682  000033                     	ds	1
  1683  000034                     dtoa@w:
  1684                           	callstack 0
  1685                           
  1686                           ; 2 bytes @ 0x33
  1687  000034                     	ds	1
  1688  000035                     xtoa@p:
  1689                           	callstack 0
  1690                           
  1691                           ; 2 bytes @ 0x34
  1692  000035                     	ds	1
  1693  000036                     dtoa@s:
  1694                           	callstack 0
  1695                           
  1696                           ; 2 bytes @ 0x35
  1697  000036                     	ds	1
  1698  000037                     xtoa@w:
  1699                           	callstack 0
  1700                           
  1701                           ; 2 bytes @ 0x36
  1702  000037                     	ds	1
  1703  000038                     dtoa@n:
  1704                           	callstack 0
  1705                           
  1706                           ; 8 bytes @ 0x37
  1707  000038                     	ds	1
  1708  000039                     xtoa@n:
  1709                           	callstack 0
  1710                           
  1711                           ; 8 bytes @ 0x38
  1712  000039                     	ds	7
  1713  000040                     dtoa@i:
  1714                           	callstack 0
  1715                           
  1716                           ; 2 bytes @ 0x3F
  1717  000040                     	ds	1
  1718  000041                     xtoa@i:
  1719                           	callstack 0
  1720                           
  1721                           ; 2 bytes @ 0x40
  1722  000041                     	ds	2
  1723  000043                     xtoa@c:
  1724                           	callstack 0
  1725                           
  1726                           ; 2 bytes @ 0x42
  1727  000043                     	ds	2
  1728  000045                     ?_vfpfcnvrt:
  1729                           	callstack 0
  1730  000045                     vfpfcnvrt@fp:
  1731                           	callstack 0
  1732                           
  1733                           ; 2 bytes @ 0x44
  1734  000045                     	ds	2
  1735  000047                     vfpfcnvrt@fmt:
  1736                           	callstack 0
  1737                           
  1738                           ; 2 bytes @ 0x46
  1739  000047                     	ds	2
  1740  000049                     vfpfcnvrt@ap:
  1741                           	callstack 0
  1742                           
  1743                           ; 2 bytes @ 0x48
  1744  000049                     	ds	2
  1745  00004B                     ??_vfpfcnvrt:
  1746                           
  1747                           ; 1 bytes @ 0x4A
  1748  00004B                     	ds	4
  1749  00004F                     ?_vfprintf:
  1750                           	callstack 0
  1751  00004F                     vfprintf@fp:
  1752                           	callstack 0
  1753                           
  1754                           ; 2 bytes @ 0x4E
  1755  00004F                     	ds	2
  1756  000051                     vfprintf@fmt:
  1757                           	callstack 0
  1758                           
  1759                           ; 2 bytes @ 0x50
  1760  000051                     	ds	2
  1761  000053                     vfprintf@ap:
  1762                           	callstack 0
  1763                           
  1764                           ; 2 bytes @ 0x52
  1765  000053                     	ds	2
  1766  000055                     vfprintf@cfmt:
  1767                           	callstack 0
  1768                           
  1769                           ; 2 bytes @ 0x54
  1770  000055                     	ds	2
  1771  000057                     ?_printf:
  1772                           	callstack 0
  1773  000057                     printf@fmt:
  1774                           	callstack 0
  1775                           
  1776                           ; 2 bytes @ 0x56
  1777  000057                     	ds	6
  1778  00005D                     MAX17345_init@r:
  1779                           	callstack 0
  1780  00005D                     MAX17320_dump@data:
  1781                           	callstack 0
  1782                           
  1783                           ; 2 bytes @ 0x5C
  1784  00005D                     	ds	2
  1785  00005F                     
  1786                           ; 1 bytes @ 0x5E
  1787 ;;
  1788 ;;Main: autosize = 0, tempsize = 0, incstack = 0, save=0
  1789 ;;
  1790 ;; *************** function _main *****************
  1791 ;; Defined at:
  1792 ;;		line 104 in file "newmain.c"
  1793 ;; Parameters:    Size  Location     Type
  1794 ;;		None
  1795 ;; Auto vars:     Size  Location     Type
  1796 ;;		None
  1797 ;; Return value:  Size  Location     Type
  1798 ;;                  1    wreg      void 
  1799 ;; Registers used:
  1800 ;;		wreg, fsr1l, fsr1h, fsr2l, fsr2h, status,2, status,0, tblptrl, tblptrh, tblptru, prodl, prodh, cstack
  1801 ;; Tracked objects:
  1802 ;;		On entry : 0/0
  1803 ;;		On exit  : 0/0
  1804 ;;		Unchanged: 0/0
  1805 ;; Data sizes:     COMRAM   BANK0   BANK1   BANK2   BANK3   BANK4   BANK5   BANK6   BANK7   BANK8   BANK9  BANK10  BANK1
      +1  BANK12  BANK13
  1806 ;;      Params:         0       0       0       0       0       0       0       0       0       0       0       0       
      +0       0       0
  1807 ;;      Locals:         0       0       0       0       0       0       0       0       0       0       0       0       
      +0       0       0
  1808 ;;      Temps:          0       0       0       0       0       0       0       0       0       0       0       0       
      +0       0       0
  1809 ;;      Totals:         0       0       0       0       0       0       0       0       0       0       0       0       
      +0       0       0
  1810 ;;Total ram usage:        0 bytes
  1811 ;; Hardware stack levels required when called:   11
  1812 ;; This function calls:
  1813 ;;		_MAX17320_dump
  1814 ;;		_MAX17320_init
  1815 ;;		_MAX17345_dump
  1816 ;;		_MAX17345_init
  1817 ;;		_showText
  1818 ;; This function is called by:
  1819 ;;		Startup code after reset
  1820 ;; This function uses a non-reentrant model
  1821 ;;
  1822                           
  1823                           	psect	text0
  1824  012D1A                     __ptext0:
  1825                           	callstack 0
  1826  012D1A                     _main:
  1827                           	callstack 20
  1828  012D1A                     
  1829                           ;newmain.c: 107:  TRISAbits.TRISA4 = 0;
  1830  012D1A  9881               	bcf	129,4,c	;volatile
  1831                           
  1832                           ;newmain.c: 110:  TRISDbits.TRISD7 = 0;
  1833  012D1C  9E84               	bcf	132,7,c	;volatile
  1834                           
  1835                           ;newmain.c: 111:  LATD7 = 1;
  1836  012D1E  8E7C               	bsf	3964,7,c	;volatile
  1837                           
  1838                           ;newmain.c: 114:  ODCONFbits.ODCF0 = 1;
  1839  012D20  010E               	movlb	14	; () banked
  1840  012D22  81B2               	bsf	178,0,b	;volatile
  1841                           
  1842                           ;newmain.c: 115:  TRISFbits.TRISF0 = 0;
  1843  012D24  9086               	bcf	134,0,c	;volatile
  1844                           
  1845                           ;newmain.c: 116:  ANSELFbits.ANSELF0 = 0;
  1846  012D26  91B4               	bcf	180,0,b	;volatile
  1847                           
  1848                           ;newmain.c: 117:  (LATF0=0);
  1849  012D28  907E               	bcf	3966,0,c	;volatile
  1850  012D2A                     
  1851                           ; BSR set to: 14
  1852                           ;newmain.c: 121:  OSCCON1 = 0x60;
  1853  012D2A  0E60               	movlw	96
  1854  012D2C  6F43               	movwf	67,b	;volatile
  1855                           
  1856                           ;newmain.c: 123:  OSCFRQ = 0x02;
  1857  012D2E  0E02               	movlw	2
  1858  012D30  6F49               	movwf	73,b	;volatile
  1859  012D32                     
  1860                           ; BSR set to: 14
  1861                           ;newmain.c: 125:  ANSELF &= 0x1f;
  1862  012D32  0E1F               	movlw	31
  1863  012D34  17B4               	andwf	180,f,b	;volatile
  1864  012D36                     
  1865                           ; BSR set to: 14
  1866                           ;newmain.c: 127:  ANSELGbits.ANSELG2 = 0;
  1867  012D36  95BC               	bcf	188,2,b	;volatile
  1868  012D38                     
  1869                           ; BSR set to: 14
  1870                           ;newmain.c: 128:  RX5PPSbits.RX5PPS = 0x32;
  1871  012D38  5117               	movf	23,w,b	;volatile
  1872  012D3A  0BC0               	andlw	-64
  1873  012D3C  0932               	iorlw	50
  1874  012D3E  6F17               	movwf	23,b	;volatile
  1875  012D40                     
  1876                           ; BSR set to: 14
  1877                           ;newmain.c: 131:  BAUD5CON = 0x18;
  1878  012D40  0E18               	movlw	24
  1879  012D42  6FE2               	movwf	226,b	;volatile
  1880  012D44                     
  1881                           ; BSR set to: 14
  1882                           ;newmain.c: 133:  RC5STA = 0x90;
  1883  012D44  0E90               	movlw	144
  1884  012D46  6FE0               	movwf	224,b	;volatile
  1885  012D48                     
  1886                           ; BSR set to: 14
  1887                           ;newmain.c: 135:  TX5STA = 0x24;
  1888  012D48  0E24               	movlw	36
  1889  012D4A  6FE1               	movwf	225,b	;volatile
  1890  012D4C                     
  1891                           ; BSR set to: 14
  1892                           ;newmain.c: 137:  SP5BRGL = 103;
  1893  012D4C  0E67               	movlw	103
  1894  012D4E  6FDE               	movwf	222,b	;volatile
  1895  012D50                     
  1896                           ; BSR set to: 14
  1897                           ;newmain.c: 141:  RG3PPS = 0x14;
  1898  012D50  0E14               	movlw	20
  1899  012D52  6F85               	movwf	133,b	;volatile
  1900  012D54                     
  1901                           ; BSR set to: 14
  1902                           ;newmain.c: 142:  TRISGbits.TRISG3 = 0;
  1903  012D54  9687               	bcf	135,3,c	;volatile
  1904  012D56                     
  1905                           ; BSR set to: 14
  1906                           ;newmain.c: 145:  (LATF0=1);
  1907  012D56  807E               	bsf	3966,0,c	;volatile
  1908  012D58                     
  1909                           ; BSR set to: 14
  1910                           ;newmain.c: 147:  showText(hello);
  1911  012D58  0EA6               	movlw	low _hello
  1912  012D5A  6E02               	movwf	showText@t^0,c
  1913  012D5C  0E00               	movlw	high _hello
  1914  012D5E  6E03               	movwf	(showText@t+1)^0,c
  1915  012D60  EC79  F098         	call	_showText	;wreg free
  1916  012D64                     
  1917                           ;newmain.c: 149:  MAX17345_init();
  1918  012D64  EC72  F095         	call	_MAX17345_init	;wreg free
  1919  012D68                     
  1920                           ;newmain.c: 150:  MAX17320_init();
  1921  012D68  ECED  F096         	call	_MAX17320_init	;wreg free
  1922  012D6C                     l5271:
  1923                           
  1924                           ;newmain.c: 152:     MAX17320_dump();
  1925  012D6C  EC00  F080         	call	_MAX17320_dump	;wreg free
  1926  012D70                     
  1927                           ;newmain.c: 153:  MAX17345_dump();
  1928  012D70  EC6D  F093         	call	_MAX17345_dump	;wreg free
  1929  012D74  EFB6  F096         	goto	l5271
  1930  012D78  EF00  F000         	goto	start
  1931  012D7C                     __end_of_main:
  1932                           	callstack 0
  1933                           
  1934 ;; *************** function _showText *****************
  1935 ;; Defined at:
  1936 ;;		line 178 in file "newmain.c"
  1937 ;; Parameters:    Size  Location     Type
  1938 ;;  t               2    1[COMRAM] PTR unsigned char 
  1939 ;;		 -> hello(11), 
  1940 ;; Auto vars:     Size  Location     Type
  1941 ;;		None
  1942 ;; Return value:  Size  Location     Type
  1943 ;;                  1    wreg      void 
  1944 ;; Registers used:
  1945 ;;		wreg, fsr2l, fsr2h, status,2, status,0, cstack
  1946 ;; Tracked objects:
  1947 ;;		On entry : 0/0
  1948 ;;		On exit  : 0/0
  1949 ;;		Unchanged: 0/0
  1950 ;; Data sizes:     COMRAM   BANK0   BANK1   BANK2   BANK3   BANK4   BANK5   BANK6   BANK7   BANK8   BANK9  BANK10  BANK1
      +1  BANK12  BANK13
  1951 ;;      Params:         2       0       0       0       0       0       0       0       0       0       0       0       
      +0       0       0
  1952 ;;      Locals:         0       0       0       0       0       0       0       0       0       0       0       0       
      +0       0       0
  1953 ;;      Temps:          0       0       0       0       0       0       0       0       0       0       0       0       
      +0       0       0
  1954 ;;      Totals:         2       0       0       0       0       0       0       0       0       0       0       0       
      +0       0       0
  1955 ;;Total ram usage:        2 bytes
  1956 ;; Hardware stack levels used:    1
  1957 ;; Hardware stack levels required when called:    1
  1958 ;; This function calls:
  1959 ;;		_SendCharUSB
  1960 ;; This function is called by:
  1961 ;;		_main
  1962 ;; This function uses a non-reentrant model
  1963 ;;
  1964                           
  1965                           	psect	text1
  1966  0130F2                     __ptext1:
  1967                           	callstack 0
  1968  0130F2                     _showText:
  1969                           	callstack 29
  1970  0130F2                     
  1971                           ;newmain.c: 178: void showText(unsigned char* t);newmain.c: 179: {;newmain.c: 180:  TBLP
      +                          TRU = 0;
  1972  0130F2  0E00               	movlw	0
  1973  0130F4  6EF8               	movwf	248,c	;volatile
  1974                           
  1975                           ;newmain.c: 181:  while (*t)
  1976  0130F6  EF86  F098         	goto	l5203
  1977  0130FA                     l5199:
  1978                           
  1979                           ;newmain.c: 182:  {;newmain.c: 183:   SendCharUSB(*t++);
  1980  0130FA  C002  FFD9         	movff	showText@t,fsr2l
  1981  0130FE  C003  FFDA         	movff	showText@t+1,fsr2h
  1982  013102  50DF               	movf	indf2,w,c
  1983  013104  ECAB  F097         	call	_SendCharUSB
  1984  013108  4A02               	infsnz	showText@t^0,f,c
  1985  01310A  2A03               	incf	(showText@t+1)^0,f,c
  1986  01310C                     l5203:
  1987                           
  1988                           ;newmain.c: 181:  while (*t)
  1989  01310C  C002  FFD9         	movff	showText@t,fsr2l
  1990  013110  C003  FFDA         	movff	showText@t+1,fsr2h
  1991  013114  50DF               	movf	indf2,w,c
  1992  013116  A4D8               	btfss	status,2,c
  1993  013118  EF90  F098         	goto	u4101
  1994  01311C  EF92  F098         	goto	u4100
  1995  013120                     u4101:
  1996  013120  EF7D  F098         	goto	l5199
  1997  013124                     u4100:
  1998  013124  0012               	return		;funcret
  1999  013126                     __end_of_showText:
  2000                           	callstack 0
  2001                           
  2002 ;; *************** function _MAX17345_init *****************
  2003 ;; Defined at:
  2004 ;;		line 166 in file "MAX17435.c"
  2005 ;; Parameters:    Size  Location     Type
  2006 ;;		None
  2007 ;; Auto vars:     Size  Location     Type
  2008 ;;  data            2    0        unsigned short 
  2009 ;;  r               1   92[COMRAM] unsigned char 
  2010 ;; Return value:  Size  Location     Type
  2011 ;;                  1    wreg      unsigned char 
  2012 ;; Registers used:
  2013 ;;		wreg, fsr1l, fsr1h, fsr2l, fsr2h, status,2, status,0, tblptrl, tblptrh, tblptru, prodl, prodh, cstack
  2014 ;; Tracked objects:
  2015 ;;		On entry : 0/0
  2016 ;;		On exit  : 0/0
  2017 ;;		Unchanged: 0/0
  2018 ;; Data sizes:     COMRAM   BANK0   BANK1   BANK2   BANK3   BANK4   BANK5   BANK6   BANK7   BANK8   BANK9  BANK10  BANK1
      +1  BANK12  BANK13
  2019 ;;      Params:         0       0       0       0       0       0       0       0       0       0       0       0       
      +0       0       0
  2020 ;;      Locals:         1       0       0       0       0       0       0       0       0       0       0       0       
      +0       0       0
  2021 ;;      Temps:          0       0       0       0       0       0       0       0       0       0       0       0       
      +0       0       0
  2022 ;;      Totals:         1       0       0       0       0       0       0       0       0       0       0       0       
      +0       0       0
  2023 ;;Total ram usage:        1 bytes
  2024 ;; Hardware stack levels used:    1
  2025 ;; Hardware stack levels required when called:   10
  2026 ;; This function calls:
  2027 ;;		_MAX17345_dump
  2028 ;;		_MAX17345_set_charge_current
  2029 ;;		_MAX17345_set_charge_voltage
  2030 ;;		_MAX17345_set_input_current
  2031 ;;		_MAX17345_set_relearn_voltage
  2032 ;; This function is called by:
  2033 ;;		_main
  2034 ;; This function uses a non-reentrant model
  2035 ;;
  2036                           
  2037                           	psect	text2
  2038  012AE4                     __ptext2:
  2039                           	callstack 0
  2040  012AE4                     _MAX17345_init:
  2041                           	callstack 20
  2042  012AE4                     
  2043                           ;MAX17435.c: 169:  unsigned short data;;MAX17435.c: 173:  RC3PPS = 0x19;
  2044  012AE4  0E19               	movlw	25
  2045  012AE6  010E               	movlb	14	; () banked
  2046  012AE8  6F65               	movwf	101,b	;volatile
  2047                           
  2048                           ;MAX17435.c: 174:  RC4PPS = 0x1a;
  2049  012AEA  0E1A               	movlw	26
  2050  012AEC  6F66               	movwf	102,b	;volatile
  2051                           
  2052                           ;MAX17435.c: 175:  SSP1CLKPPS = 0x13;
  2053  012AEE  0E13               	movlw	19
  2054  012AF0  6F19               	movwf	25,b	;volatile
  2055                           
  2056                           ;MAX17435.c: 176:  SSP1DATPPS = 0x14;
  2057  012AF2  0E14               	movlw	20
  2058  012AF4  6F1A               	movwf	26,b	;volatile
  2059  012AF6                     
  2060                           ; BSR set to: 14
  2061                           ;MAX17435.c: 177:  WPUC |= 0x18;
  2062  012AF6  0E18               	movlw	24
  2063  012AF8  13A1               	iorwf	161,f,b	;volatile
  2064  012AFA                     
  2065                           ; BSR set to: 14
  2066                           ;MAX17435.c: 179:  SSP1STAT = 0x40;
  2067  012AFA  0E40               	movlw	64
  2068  012AFC  6E94               	movwf	148,c	;volatile
  2069  012AFE                     
  2070                           ; BSR set to: 14
  2071                           ;MAX17435.c: 180:  SSP1CON1 = 0x08;
  2072  012AFE  0E08               	movlw	8
  2073  012B00  6E95               	movwf	149,c	;volatile
  2074  012B02                     
  2075                           ; BSR set to: 14
  2076                           ;MAX17435.c: 181:  SSP1CON2 = 0x00;
  2077  012B02  0E00               	movlw	0
  2078  012B04  6E96               	movwf	150,c	;volatile
  2079  012B06                     
  2080                           ; BSR set to: 14
  2081                           ;MAX17435.c: 182:  SSP1CON3 = 0x00;
  2082  012B06  0E00               	movlw	0
  2083  012B08  6E97               	movwf	151,c	;volatile
  2084  012B0A                     
  2085                           ; BSR set to: 14
  2086                           ;MAX17435.c: 183:  SSP1ADD = 255;
  2087  012B0A  6892               	setf	146,c	;volatile
  2088  012B0C                     
  2089                           ; BSR set to: 14
  2090                           ;MAX17435.c: 184:  SSP1CON1bits.SSPEN = 1;
  2091  012B0C  8A95               	bsf	149,5,c	;volatile
  2092  012B0E                     
  2093                           ; BSR set to: 14
  2094                           ;MAX17435.c: 186:  MAX17345_dump();
  2095  012B0E  EC6D  F093         	call	_MAX17345_dump	;wreg free
  2096  012B12                     
  2097                           ;MAX17435.c: 195:  if((r = MAX17345_set_input_current(4096)))return r;
  2098  012B12  0E10               	movlw	16
  2099  012B14  6E08               	movwf	(MAX17345_set_input_current@input_current+1)^0,c
  2100  012B16  0E00               	movlw	0
  2101  012B18  6E07               	movwf	MAX17345_set_input_current@input_current^0,c
  2102  012B1A  EC04  F099         	call	_MAX17345_set_input_current	;wreg free
  2103  012B1E  6E5D               	movwf	MAX17345_init@r^0,c
  2104  012B20  505D               	movf	MAX17345_init@r^0,w,c
  2105  012B22  B4D8               	btfsc	status,2,c
  2106  012B24  EF96  F095         	goto	u4061
  2107  012B28  EF98  F095         	goto	u4060
  2108  012B2C                     u4061:
  2109  012B2C  EF9A  F095         	goto	l5181
  2110  012B30                     u4060:
  2111  012B30  EFCF  F095         	goto	l244
  2112  012B34                     l5181:
  2113                           
  2114                           ;MAX17435.c: 196:  if((r = MAX17345_set_charge_voltage(16400)))return r;
  2115  012B34  0E40               	movlw	64
  2116  012B36  6E08               	movwf	(MAX17345_set_charge_voltage@charge_voltage+1)^0,c
  2117  012B38  0E10               	movlw	16
  2118  012B3A  6E07               	movwf	MAX17345_set_charge_voltage@charge_voltage^0,c
  2119  012B3C  EC11  F099         	call	_MAX17345_set_charge_voltage	;wreg free
  2120  012B40  6E5D               	movwf	MAX17345_init@r^0,c
  2121  012B42  505D               	movf	MAX17345_init@r^0,w,c
  2122  012B44  B4D8               	btfsc	status,2,c
  2123  012B46  EFA7  F095         	goto	u4071
  2124  012B4A  EFA9  F095         	goto	u4070
  2125  012B4E                     u4071:
  2126  012B4E  EFAB  F095         	goto	l5185
  2127  012B52                     u4070:
  2128  012B52  EFCF  F095         	goto	l244
  2129  012B56                     l5185:
  2130                           
  2131                           ;MAX17435.c: 197:  if((r = MAX17345_set_charge_current((128)&0x1f80)))return r;
  2132  012B56  0E00               	movlw	0
  2133  012B58  6E08               	movwf	(MAX17345_set_charge_current@charge_current+1)^0,c
  2134  012B5A  0E80               	movlw	128
  2135  012B5C  6E07               	movwf	MAX17345_set_charge_current@charge_current^0,c
  2136  012B5E  EC1E  F099         	call	_MAX17345_set_charge_current	;wreg free
  2137  012B62  6E5D               	movwf	MAX17345_init@r^0,c
  2138  012B64  505D               	movf	MAX17345_init@r^0,w,c
  2139  012B66  B4D8               	btfsc	status,2,c
  2140  012B68  EFB8  F095         	goto	u4081
  2141  012B6C  EFBA  F095         	goto	u4080
  2142  012B70                     u4081:
  2143  012B70  EFBC  F095         	goto	l5189
  2144  012B74                     u4080:
  2145  012B74  EFCF  F095         	goto	l244
  2146  012B78                     l5189:
  2147                           
  2148                           ;MAX17435.c: 198:  if((r = MAX17345_set_relearn_voltage(16000&0x7ff1)))return r;
  2149  012B78  0E3E               	movlw	62
  2150  012B7A  6E08               	movwf	(MAX17345_set_relearn_voltage@relearn_voltage+1)^0,c
  2151  012B7C  0E80               	movlw	128
  2152  012B7E  6E07               	movwf	MAX17345_set_relearn_voltage@relearn_voltage^0,c
  2153  012B80  ECF7  F098         	call	_MAX17345_set_relearn_voltage	;wreg free
  2154  012B84  6E5D               	movwf	MAX17345_init@r^0,c
  2155  012B86  505D               	movf	MAX17345_init@r^0,w,c
  2156  012B88  B4D8               	btfsc	status,2,c
  2157  012B8A  EFC9  F095         	goto	u4091
  2158  012B8E  EFCB  F095         	goto	u4090
  2159  012B92                     u4091:
  2160  012B92  EFCD  F095         	goto	l5193
  2161  012B96                     u4090:
  2162  012B96  EFCF  F095         	goto	l244
  2163  012B9A                     l5193:
  2164                           
  2165                           ;MAX17435.c: 200:  MAX17345_dump();
  2166  012B9A  EC6D  F093         	call	_MAX17345_dump	;wreg free
  2167  012B9E                     l244:
  2168  012B9E  0012               	return		;funcret
  2169  012BA0                     __end_of_MAX17345_init:
  2170                           	callstack 0
  2171                           
  2172 ;; *************** function _MAX17345_set_relearn_voltage *****************
  2173 ;; Defined at:
  2174 ;;		line 135 in file "MAX17435.c"
  2175 ;; Parameters:    Size  Location     Type
  2176 ;;  relearn_volt    2    6[COMRAM] unsigned short 
  2177 ;; Auto vars:     Size  Location     Type
  2178 ;;  r               1    8[COMRAM] unsigned char 
  2179 ;; Return value:  Size  Location     Type
  2180 ;;                  1    wreg      unsigned char 
  2181 ;; Registers used:
  2182 ;;		wreg, status,2, cstack
  2183 ;; Tracked objects:
  2184 ;;		On entry : 0/0
  2185 ;;		On exit  : 0/0
  2186 ;;		Unchanged: 0/0
  2187 ;; Data sizes:     COMRAM   BANK0   BANK1   BANK2   BANK3   BANK4   BANK5   BANK6   BANK7   BANK8   BANK9  BANK10  BANK1
      +1  BANK12  BANK13
  2188 ;;      Params:         2       0       0       0       0       0       0       0       0       0       0       0       
      +0       0       0
  2189 ;;      Locals:         1       0       0       0       0       0       0       0       0       0       0       0       
      +0       0       0
  2190 ;;      Temps:          0       0       0       0       0       0       0       0       0       0       0       0       
      +0       0       0
  2191 ;;      Totals:         3       0       0       0       0       0       0       0       0       0       0       0       
      +0       0       0
  2192 ;;Total ram usage:        3 bytes
  2193 ;; Hardware stack levels used:    1
  2194 ;; Hardware stack levels required when called:    2
  2195 ;; This function calls:
  2196 ;;		_MAX17345_write_word
  2197 ;; This function is called by:
  2198 ;;		_MAX17345_init
  2199 ;; This function uses a non-reentrant model
  2200 ;;
  2201                           
  2202                           	psect	text3
  2203  0131EE                     __ptext3:
  2204                           	callstack 0
  2205  0131EE                     _MAX17345_set_relearn_voltage:
  2206                           	callstack 27
  2207  0131EE                     
  2208                           ;MAX17435.c: 139:  r = MAX17345_write_word(0x3D, relearn_voltage);
  2209  0131EE  0E00               	movlw	0
  2210  0131F0  6E03               	movwf	(MAX17345_write_word@command+1)^0,c
  2211  0131F2  0E3D               	movlw	61
  2212  0131F4  6E02               	movwf	MAX17345_write_word@command^0,c
  2213  0131F6  C007  F004         	movff	MAX17345_set_relearn_voltage@relearn_voltage,MAX17345_write_word@data
  2214  0131FA  C008  F005         	movff	MAX17345_set_relearn_voltage@relearn_voltage+1,MAX17345_write_word@data+1
  2215  0131FE  EC1B  F096         	call	_MAX17345_write_word	;wreg free
  2216  013202  6E09               	movwf	MAX17345_set_relearn_voltage@r^0,c
  2217  013204                     
  2218                           ;MAX17435.c: 140:  return r;
  2219  013204  5009               	movf	MAX17345_set_relearn_voltage@r^0,w,c
  2220  013206  0012               	return		;funcret
  2221  013208                     __end_of_MAX17345_set_relearn_voltage:
  2222                           	callstack 0
  2223                           
  2224 ;; *************** function _MAX17345_set_input_current *****************
  2225 ;; Defined at:
  2226 ;;		line 127 in file "MAX17435.c"
  2227 ;; Parameters:    Size  Location     Type
  2228 ;;  input_curren    2    6[COMRAM] unsigned short 
  2229 ;; Auto vars:     Size  Location     Type
  2230 ;;  r               1    8[COMRAM] unsigned char 
  2231 ;; Return value:  Size  Location     Type
  2232 ;;                  1    wreg      unsigned char 
  2233 ;; Registers used:
  2234 ;;		wreg, status,2, cstack
  2235 ;; Tracked objects:
  2236 ;;		On entry : 0/0
  2237 ;;		On exit  : 0/0
  2238 ;;		Unchanged: 0/0
  2239 ;; Data sizes:     COMRAM   BANK0   BANK1   BANK2   BANK3   BANK4   BANK5   BANK6   BANK7   BANK8   BANK9  BANK10  BANK1
      +1  BANK12  BANK13
  2240 ;;      Params:         2       0       0       0       0       0       0       0       0       0       0       0       
      +0       0       0
  2241 ;;      Locals:         1       0       0       0       0       0       0       0       0       0       0       0       
      +0       0       0
  2242 ;;      Temps:          0       0       0       0       0       0       0       0       0       0       0       0       
      +0       0       0
  2243 ;;      Totals:         3       0       0       0       0       0       0       0       0       0       0       0       
      +0       0       0
  2244 ;;Total ram usage:        3 bytes
  2245 ;; Hardware stack levels used:    1
  2246 ;; Hardware stack levels required when called:    2
  2247 ;; This function calls:
  2248 ;;		_MAX17345_write_word
  2249 ;; This function is called by:
  2250 ;;		_MAX17345_init
  2251 ;; This function uses a non-reentrant model
  2252 ;;
  2253                           
  2254                           	psect	text4
  2255  013208                     __ptext4:
  2256                           	callstack 0
  2257  013208                     _MAX17345_set_input_current:
  2258                           	callstack 27
  2259  013208                     
  2260                           ;MAX17435.c: 131:  r = MAX17345_write_word(0x3F, input_current);
  2261  013208  0E00               	movlw	0
  2262  01320A  6E03               	movwf	(MAX17345_write_word@command+1)^0,c
  2263  01320C  0E3F               	movlw	63
  2264  01320E  6E02               	movwf	MAX17345_write_word@command^0,c
  2265  013210  C007  F004         	movff	MAX17345_set_input_current@input_current,MAX17345_write_word@data
  2266  013214  C008  F005         	movff	MAX17345_set_input_current@input_current+1,MAX17345_write_word@data+1
  2267  013218  EC1B  F096         	call	_MAX17345_write_word	;wreg free
  2268  01321C  6E09               	movwf	MAX17345_set_input_current@r^0,c
  2269  01321E                     
  2270                           ;MAX17435.c: 132:  return r;
  2271  01321E  5009               	movf	MAX17345_set_input_current@r^0,w,c
  2272  013220  0012               	return		;funcret
  2273  013222                     __end_of_MAX17345_set_input_current:
  2274                           	callstack 0
  2275                           
  2276 ;; *************** function _MAX17345_set_charge_voltage *****************
  2277 ;; Defined at:
  2278 ;;		line 119 in file "MAX17435.c"
  2279 ;; Parameters:    Size  Location     Type
  2280 ;;  charge_volta    2    6[COMRAM] unsigned short 
  2281 ;; Auto vars:     Size  Location     Type
  2282 ;;  r               1    8[COMRAM] unsigned char 
  2283 ;; Return value:  Size  Location     Type
  2284 ;;                  1    wreg      unsigned char 
  2285 ;; Registers used:
  2286 ;;		wreg, status,2, cstack
  2287 ;; Tracked objects:
  2288 ;;		On entry : 0/0
  2289 ;;		On exit  : 0/0
  2290 ;;		Unchanged: 0/0
  2291 ;; Data sizes:     COMRAM   BANK0   BANK1   BANK2   BANK3   BANK4   BANK5   BANK6   BANK7   BANK8   BANK9  BANK10  BANK1
      +1  BANK12  BANK13
  2292 ;;      Params:         2       0       0       0       0       0       0       0       0       0       0       0       
      +0       0       0
  2293 ;;      Locals:         1       0       0       0       0       0       0       0       0       0       0       0       
      +0       0       0
  2294 ;;      Temps:          0       0       0       0       0       0       0       0       0       0       0       0       
      +0       0       0
  2295 ;;      Totals:         3       0       0       0       0       0       0       0       0       0       0       0       
      +0       0       0
  2296 ;;Total ram usage:        3 bytes
  2297 ;; Hardware stack levels used:    1
  2298 ;; Hardware stack levels required when called:    2
  2299 ;; This function calls:
  2300 ;;		_MAX17345_write_word
  2301 ;; This function is called by:
  2302 ;;		_MAX17345_init
  2303 ;; This function uses a non-reentrant model
  2304 ;;
  2305                           
  2306                           	psect	text5
  2307  013222                     __ptext5:
  2308                           	callstack 0
  2309  013222                     _MAX17345_set_charge_voltage:
  2310                           	callstack 27
  2311  013222                     
  2312                           ;MAX17435.c: 123:  r = MAX17345_write_word(0x15, charge_voltage);
  2313  013222  0E00               	movlw	0
  2314  013224  6E03               	movwf	(MAX17345_write_word@command+1)^0,c
  2315  013226  0E15               	movlw	21
  2316  013228  6E02               	movwf	MAX17345_write_word@command^0,c
  2317  01322A  C007  F004         	movff	MAX17345_set_charge_voltage@charge_voltage,MAX17345_write_word@data
  2318  01322E  C008  F005         	movff	MAX17345_set_charge_voltage@charge_voltage+1,MAX17345_write_word@data+1
  2319  013232  EC1B  F096         	call	_MAX17345_write_word	;wreg free
  2320  013236  6E09               	movwf	MAX17345_set_charge_voltage@r^0,c
  2321  013238                     
  2322                           ;MAX17435.c: 124:  return r;
  2323  013238  5009               	movf	MAX17345_set_charge_voltage@r^0,w,c
  2324  01323A  0012               	return		;funcret
  2325  01323C                     __end_of_MAX17345_set_charge_voltage:
  2326                           	callstack 0
  2327                           
  2328 ;; *************** function _MAX17345_set_charge_current *****************
  2329 ;; Defined at:
  2330 ;;		line 111 in file "MAX17435.c"
  2331 ;; Parameters:    Size  Location     Type
  2332 ;;  charge_curre    2    6[COMRAM] unsigned short 
  2333 ;; Auto vars:     Size  Location     Type
  2334 ;;  r               1    8[COMRAM] unsigned char 
  2335 ;; Return value:  Size  Location     Type
  2336 ;;                  1    wreg      unsigned char 
  2337 ;; Registers used:
  2338 ;;		wreg, status,2, cstack
  2339 ;; Tracked objects:
  2340 ;;		On entry : 0/0
  2341 ;;		On exit  : 0/0
  2342 ;;		Unchanged: 0/0
  2343 ;; Data sizes:     COMRAM   BANK0   BANK1   BANK2   BANK3   BANK4   BANK5   BANK6   BANK7   BANK8   BANK9  BANK10  BANK1
      +1  BANK12  BANK13
  2344 ;;      Params:         2       0       0       0       0       0       0       0       0       0       0       0       
      +0       0       0
  2345 ;;      Locals:         1       0       0       0       0       0       0       0       0       0       0       0       
      +0       0       0
  2346 ;;      Temps:          0       0       0       0       0       0       0       0       0       0       0       0       
      +0       0       0
  2347 ;;      Totals:         3       0       0       0       0       0       0       0       0       0       0       0       
      +0       0       0
  2348 ;;Total ram usage:        3 bytes
  2349 ;; Hardware stack levels used:    1
  2350 ;; Hardware stack levels required when called:    2
  2351 ;; This function calls:
  2352 ;;		_MAX17345_write_word
  2353 ;; This function is called by:
  2354 ;;		_MAX17345_init
  2355 ;; This function uses a non-reentrant model
  2356 ;;
  2357                           
  2358                           	psect	text6
  2359  01323C                     __ptext6:
  2360                           	callstack 0
  2361  01323C                     _MAX17345_set_charge_current:
  2362                           	callstack 27
  2363  01323C                     
  2364                           ;MAX17435.c: 115:  r = MAX17345_write_word(0x14, charge_current);
  2365  01323C  0E00               	movlw	0
  2366  01323E  6E03               	movwf	(MAX17345_write_word@command+1)^0,c
  2367  013240  0E14               	movlw	20
  2368  013242  6E02               	movwf	MAX17345_write_word@command^0,c
  2369  013244  C007  F004         	movff	MAX17345_set_charge_current@charge_current,MAX17345_write_word@data
  2370  013248  C008  F005         	movff	MAX17345_set_charge_current@charge_current+1,MAX17345_write_word@data+1
  2371  01324C  EC1B  F096         	call	_MAX17345_write_word	;wreg free
  2372  013250  6E09               	movwf	MAX17345_set_charge_current@r^0,c
  2373  013252                     
  2374                           ;MAX17435.c: 116:  return r;
  2375  013252  5009               	movf	MAX17345_set_charge_current@r^0,w,c
  2376  013254  0012               	return		;funcret
  2377  013256                     __end_of_MAX17345_set_charge_current:
  2378                           	callstack 0
  2379                           
  2380 ;; *************** function _MAX17345_write_word *****************
  2381 ;; Defined at:
  2382 ;;		line 77 in file "MAX17435.c"
  2383 ;; Parameters:    Size  Location     Type
  2384 ;;  command         2    1[COMRAM] unsigned short 
  2385 ;;  data            2    3[COMRAM] unsigned short 
  2386 ;; Auto vars:     Size  Location     Type
  2387 ;;  r               1    5[COMRAM] unsigned char 
  2388 ;; Return value:  Size  Location     Type
  2389 ;;                  1    wreg      unsigned char 
  2390 ;; Registers used:
  2391 ;;		wreg, status,2, cstack
  2392 ;; Tracked objects:
  2393 ;;		On entry : 0/0
  2394 ;;		On exit  : 0/0
  2395 ;;		Unchanged: 0/0
  2396 ;; Data sizes:     COMRAM   BANK0   BANK1   BANK2   BANK3   BANK4   BANK5   BANK6   BANK7   BANK8   BANK9  BANK10  BANK1
      +1  BANK12  BANK13
  2397 ;;      Params:         4       0       0       0       0       0       0       0       0       0       0       0       
      +0       0       0
  2398 ;;      Locals:         1       0       0       0       0       0       0       0       0       0       0       0       
      +0       0       0
  2399 ;;      Temps:          0       0       0       0       0       0       0       0       0       0       0       0       
      +0       0       0
  2400 ;;      Totals:         5       0       0       0       0       0       0       0       0       0       0       0       
      +0       0       0
  2401 ;;Total ram usage:        5 bytes
  2402 ;; Hardware stack levels used:    1
  2403 ;; Hardware stack levels required when called:    1
  2404 ;; This function calls:
  2405 ;;		_i2c_start
  2406 ;;		_i2c_stop
  2407 ;;		_i2c_write_byte
  2408 ;; This function is called by:
  2409 ;;		_MAX17345_set_charge_current
  2410 ;;		_MAX17345_set_charge_voltage
  2411 ;;		_MAX17345_set_input_current
  2412 ;;		_MAX17345_set_relearn_voltage
  2413 ;; This function uses a non-reentrant model
  2414 ;;
  2415                           
  2416                           	psect	text7
  2417  012C36                     __ptext7:
  2418                           	callstack 0
  2419  012C36                     _MAX17345_write_word:
  2420                           	callstack 27
  2421  012C36                     
  2422                           ;MAX17435.c: 81:  i2c_start();
  2423  012C36  EC48  F099         	call	_i2c_start	;wreg free
  2424                           
  2425                           ;MAX17435.c: 82:  if (r = i2c_write_byte(0x12))return r;
  2426  012C3A  0E12               	movlw	18
  2427  012C3C  ECAC  F098         	call	_i2c_write_byte
  2428  012C40  6E06               	movwf	MAX17345_write_word@r^0,c
  2429  012C42  5006               	movf	MAX17345_write_word@r^0,w,c
  2430  012C44  B4D8               	btfsc	status,2,c
  2431  012C46  EF27  F096         	goto	u3171
  2432  012C4A  EF29  F096         	goto	u3170
  2433  012C4E                     u3171:
  2434  012C4E  EF2C  F096         	goto	l4585
  2435  012C52                     u3170:
  2436  012C52                     l4581:
  2437  012C52  5006               	movf	MAX17345_write_word@r^0,w,c
  2438  012C54  EF59  F096         	goto	l211
  2439  012C58                     l4585:
  2440                           
  2441                           ;MAX17435.c: 83:  if (r = i2c_write_byte(command))return r;
  2442  012C58  5002               	movf	MAX17345_write_word@command^0,w,c
  2443  012C5A  ECAC  F098         	call	_i2c_write_byte
  2444  012C5E  6E06               	movwf	MAX17345_write_word@r^0,c
  2445  012C60  5006               	movf	MAX17345_write_word@r^0,w,c
  2446  012C62  B4D8               	btfsc	status,2,c
  2447  012C64  EF36  F096         	goto	u3181
  2448  012C68  EF38  F096         	goto	u3180
  2449  012C6C                     u3181:
  2450  012C6C  EF3A  F096         	goto	l4591
  2451  012C70                     u3180:
  2452  012C70  EF29  F096         	goto	l4581
  2453  012C74                     l4591:
  2454                           
  2455                           ;MAX17435.c: 84:  if (r = i2c_write_byte(data))return r;
  2456  012C74  5004               	movf	MAX17345_write_word@data^0,w,c
  2457  012C76  ECAC  F098         	call	_i2c_write_byte
  2458  012C7A  6E06               	movwf	MAX17345_write_word@r^0,c
  2459  012C7C  5006               	movf	MAX17345_write_word@r^0,w,c
  2460  012C7E  B4D8               	btfsc	status,2,c
  2461  012C80  EF44  F096         	goto	u3191
  2462  012C84  EF46  F096         	goto	u3190
  2463  012C88                     u3191:
  2464  012C88  EF48  F096         	goto	l4597
  2465  012C8C                     u3190:
  2466  012C8C  EF29  F096         	goto	l4581
  2467  012C90                     l4597:
  2468                           
  2469                           ;MAX17435.c: 85:  if (r = i2c_write_byte(data >> 8))return r;
  2470  012C90  5005               	movf	(MAX17345_write_word@data+1)^0,w,c
  2471  012C92  ECAC  F098         	call	_i2c_write_byte
  2472  012C96  6E06               	movwf	MAX17345_write_word@r^0,c
  2473  012C98  5006               	movf	MAX17345_write_word@r^0,w,c
  2474  012C9A  B4D8               	btfsc	status,2,c
  2475  012C9C  EF52  F096         	goto	u3201
  2476  012CA0  EF54  F096         	goto	u3200
  2477  012CA4                     u3201:
  2478  012CA4  EF56  F096         	goto	l4603
  2479  012CA8                     u3200:
  2480  012CA8  EF29  F096         	goto	l4581
  2481  012CAC                     l4603:
  2482                           
  2483                           ;MAX17435.c: 86:  i2c_stop();
  2484  012CAC  EC3F  F099         	call	_i2c_stop	;wreg free
  2485  012CB0                     
  2486                           ;MAX17435.c: 87:  return 0;
  2487  012CB0  0E00               	movlw	0
  2488  012CB2                     l211:
  2489  012CB2  0012               	return		;funcret
  2490  012CB4                     __end_of_MAX17345_write_word:
  2491                           	callstack 0
  2492                           
  2493 ;; *************** function _MAX17345_dump *****************
  2494 ;; Defined at:
  2495 ;;		line 143 in file "MAX17435.c"
  2496 ;; Parameters:    Size  Location     Type
  2497 ;;		None
  2498 ;; Auto vars:     Size  Location     Type
  2499 ;;  data            2   27[BANK0 ] unsigned short 
  2500 ;; Return value:  Size  Location     Type
  2501 ;;                  1    wreg      void 
  2502 ;; Registers used:
  2503 ;;		wreg, fsr1l, fsr1h, fsr2l, fsr2h, status,2, status,0, tblptrl, tblptrh, tblptru, prodl, prodh, cstack
  2504 ;; Tracked objects:
  2505 ;;		On entry : 0/0
  2506 ;;		On exit  : 0/0
  2507 ;;		Unchanged: 0/0
  2508 ;; Data sizes:     COMRAM   BANK0   BANK1   BANK2   BANK3   BANK4   BANK5   BANK6   BANK7   BANK8   BANK9  BANK10  BANK1
      +1  BANK12  BANK13
  2509 ;;      Params:         0       0       0       0       0       0       0       0       0       0       0       0       
      +0       0       0
  2510 ;;      Locals:         0       4       0       0       0       0       0       0       0       0       0       0       
      +0       0       0
  2511 ;;      Temps:          0       0       0       0       0       0       0       0       0       0       0       0       
      +0       0       0
  2512 ;;      Totals:         0       4       0       0       0       0       0       0       0       0       0       0       
      +0       0       0
  2513 ;;Total ram usage:        4 bytes
  2514 ;; Hardware stack levels used:    1
  2515 ;; Hardware stack levels required when called:    9
  2516 ;; This function calls:
  2517 ;;		_MAX17345_read_word
  2518 ;;		___wmul
  2519 ;;		_printf
  2520 ;; This function is called by:
  2521 ;;		_MAX17345_init
  2522 ;;		_main
  2523 ;; This function uses a non-reentrant model
  2524 ;;
  2525                           
  2526                           	psect	text8
  2527  0126DA                     __ptext8:
  2528                           	callstack 0
  2529  0126DA                     _MAX17345_dump:
  2530                           	callstack 20
  2531  0126DA                     
  2532                           ;MAX17435.c: 145:     unsigned short data = 0;
  2533  0126DA  0E00               	movlw	0
  2534  0126DC  0100               	movlb	0	; () banked
  2535  0126DE  6FA4               	movwf	(MAX17345_dump@data+1)& (0+255),b
  2536  0126E0  0E00               	movlw	0
  2537  0126E2  6FA3               	movwf	MAX17345_dump@data& (0+255),b
  2538  0126E4                     
  2539                           ; BSR set to: 0
  2540                           ;MAX17435.c: 150:     printf("\nMAX17345\n");
  2541  0126E4  0EE1               	movlw	low STR_46
  2542  0126E6  6E57               	movwf	printf@fmt^0,c
  2543  0126E8  0EFF               	movlw	high STR_46
  2544  0126EA  6E58               	movwf	(printf@fmt+1)^0,c
  2545  0126EC  ECC0  F098         	call	_printf	;wreg free
  2546  0126F0                     
  2547                           ;MAX17435.c: 151:     if(!MAX17345_read_word(0x14,&data)){printf("ChargeCurrent  =%04x\n
      +                          ",data);}
  2548  0126F0  0E00               	movlw	0
  2549  0126F2  6E04               	movwf	(MAX17345_read_word@command+1)^0,c
  2550  0126F4  0E14               	movlw	20
  2551  0126F6  6E03               	movwf	MAX17345_read_word@command^0,c
  2552  0126F8  0EA3               	movlw	low MAX17345_dump@data
  2553  0126FA  6E05               	movwf	MAX17345_read_word@data^0,c
  2554  0126FC  0E00               	movlw	high MAX17345_dump@data
  2555  0126FE  6E06               	movwf	(MAX17345_read_word@data+1)^0,c
  2556  012700  ECA0  F094         	call	_MAX17345_read_word	;wreg free
  2557  012704  0900               	iorlw	0
  2558  012706  A4D8               	btfss	status,2,c
  2559  012708  EF88  F093         	goto	u4001
  2560  01270C  EF8A  F093         	goto	u4000
  2561  012710                     u4001:
  2562  012710  EF94  F093         	goto	l5059
  2563  012714                     u4000:
  2564  012714  0E1E               	movlw	low STR_47
  2565  012716  6E57               	movwf	printf@fmt^0,c
  2566  012718  0EFE               	movlw	high STR_47
  2567  01271A  6E58               	movwf	(printf@fmt+1)^0,c
  2568  01271C  C0A3  F059         	movff	MAX17345_dump@data,?_printf+2
  2569  012720  C0A4  F05A         	movff	MAX17345_dump@data+1,?_printf+3
  2570  012724  ECC0  F098         	call	_printf	;wreg free
  2571  012728                     l5059:
  2572                           
  2573                           ;MAX17435.c: 152:     if(!MAX17345_read_word(0x15,&data)){printf("ChargeVoltage  =%04x\n
      +                          ",data);}
  2574  012728  0E00               	movlw	0
  2575  01272A  6E04               	movwf	(MAX17345_read_word@command+1)^0,c
  2576  01272C  0E15               	movlw	21
  2577  01272E  6E03               	movwf	MAX17345_read_word@command^0,c
  2578  012730  0EA3               	movlw	low MAX17345_dump@data
  2579  012732  6E05               	movwf	MAX17345_read_word@data^0,c
  2580  012734  0E00               	movlw	high MAX17345_dump@data
  2581  012736  6E06               	movwf	(MAX17345_read_word@data+1)^0,c
  2582  012738  ECA0  F094         	call	_MAX17345_read_word	;wreg free
  2583  01273C  0900               	iorlw	0
  2584  01273E  A4D8               	btfss	status,2,c
  2585  012740  EFA4  F093         	goto	u4011
  2586  012744  EFA6  F093         	goto	u4010
  2587  012748                     u4011:
  2588  012748  EFB0  F093         	goto	l5063
  2589  01274C                     u4010:
  2590  01274C  0E08               	movlw	low STR_48
  2591  01274E  6E57               	movwf	printf@fmt^0,c
  2592  012750  0EFE               	movlw	high STR_48
  2593  012752  6E58               	movwf	(printf@fmt+1)^0,c
  2594  012754  C0A3  F059         	movff	MAX17345_dump@data,?_printf+2
  2595  012758  C0A4  F05A         	movff	MAX17345_dump@data+1,?_printf+3
  2596  01275C  ECC0  F098         	call	_printf	;wreg free
  2597  012760                     l5063:
  2598                           
  2599                           ;MAX17435.c: 153:     if(!MAX17345_read_word(0x3d,&data)){printf("Relearn Voltage=%04x\n
      +                          ",data);}
  2600  012760  0E00               	movlw	0
  2601  012762  6E04               	movwf	(MAX17345_read_word@command+1)^0,c
  2602  012764  0E3D               	movlw	61
  2603  012766  6E03               	movwf	MAX17345_read_word@command^0,c
  2604  012768  0EA3               	movlw	low MAX17345_dump@data
  2605  01276A  6E05               	movwf	MAX17345_read_word@data^0,c
  2606  01276C  0E00               	movlw	high MAX17345_dump@data
  2607  01276E  6E06               	movwf	(MAX17345_read_word@data+1)^0,c
  2608  012770  ECA0  F094         	call	_MAX17345_read_word	;wreg free
  2609  012774  0900               	iorlw	0
  2610  012776  A4D8               	btfss	status,2,c
  2611  012778  EFC0  F093         	goto	u4021
  2612  01277C  EFC2  F093         	goto	u4020
  2613  012780                     u4021:
  2614  012780  EFCC  F093         	goto	l5067
  2615  012784                     u4020:
  2616  012784  0E34               	movlw	low STR_49
  2617  012786  6E57               	movwf	printf@fmt^0,c
  2618  012788  0EFE               	movlw	high STR_49
  2619  01278A  6E58               	movwf	(printf@fmt+1)^0,c
  2620  01278C  C0A3  F059         	movff	MAX17345_dump@data,?_printf+2
  2621  012790  C0A4  F05A         	movff	MAX17345_dump@data+1,?_printf+3
  2622  012794  ECC0  F098         	call	_printf	;wreg free
  2623  012798                     l5067:
  2624                           
  2625                           ;MAX17435.c: 154:     if(!MAX17345_read_word(0x3e,&data)){printf("IINPVoltage    =%04x %
      +                          5d[mA]\n",data,data*80);}
  2626  012798  0E00               	movlw	0
  2627  01279A  6E04               	movwf	(MAX17345_read_word@command+1)^0,c
  2628  01279C  0E3E               	movlw	62
  2629  01279E  6E03               	movwf	MAX17345_read_word@command^0,c
  2630  0127A0  0EA3               	movlw	low MAX17345_dump@data
  2631  0127A2  6E05               	movwf	MAX17345_read_word@data^0,c
  2632  0127A4  0E00               	movlw	high MAX17345_dump@data
  2633  0127A6  6E06               	movwf	(MAX17345_read_word@data+1)^0,c
  2634  0127A8  ECA0  F094         	call	_MAX17345_read_word	;wreg free
  2635  0127AC  0900               	iorlw	0
  2636  0127AE  A4D8               	btfss	status,2,c
  2637  0127B0  EFDC  F093         	goto	u4031
  2638  0127B4  EFDE  F093         	goto	u4030
  2639  0127B8                     u4031:
  2640  0127B8  EFFA  F093         	goto	l5073
  2641  0127BC                     u4030:
  2642  0127BC  C0A3  F001         	movff	MAX17345_dump@data,___wmul@multiplier
  2643  0127C0  C0A4  F002         	movff	MAX17345_dump@data+1,___wmul@multiplier+1
  2644  0127C4  0E00               	movlw	0
  2645  0127C6  6E04               	movwf	(___wmul@multiplicand+1)^0,c
  2646  0127C8  0E50               	movlw	80
  2647  0127CA  6E03               	movwf	___wmul@multiplicand^0,c
  2648  0127CC  ECD4  F098         	call	___wmul	;wreg free
  2649  0127D0  C001  F0A1         	movff	?___wmul,_MAX17345_dump$2027
  2650  0127D4  C002  F0A2         	movff	?___wmul+1,_MAX17345_dump$2027+1
  2651  0127D8  0E23               	movlw	low STR_50
  2652  0127DA  6E57               	movwf	printf@fmt^0,c
  2653  0127DC  0EFC               	movlw	high STR_50
  2654  0127DE  6E58               	movwf	(printf@fmt+1)^0,c
  2655  0127E0  C0A3  F059         	movff	MAX17345_dump@data,?_printf+2
  2656  0127E4  C0A4  F05A         	movff	MAX17345_dump@data+1,?_printf+3
  2657  0127E8  C0A1  F05B         	movff	_MAX17345_dump$2027,?_printf+4
  2658  0127EC  C0A2  F05C         	movff	_MAX17345_dump$2027+1,?_printf+5
  2659  0127F0  ECC0  F098         	call	_printf	;wreg free
  2660  0127F4                     l5073:
  2661                           
  2662                           ;MAX17435.c: 155:     if(!MAX17345_read_word(0x3f,&data)){printf("InputCurrent   =%04x %
      +                          5d[mA]\n",data,data*2);}
  2663  0127F4  0E00               	movlw	0
  2664  0127F6  6E04               	movwf	(MAX17345_read_word@command+1)^0,c
  2665  0127F8  0E3F               	movlw	63
  2666  0127FA  6E03               	movwf	MAX17345_read_word@command^0,c
  2667  0127FC  0EA3               	movlw	low MAX17345_dump@data
  2668  0127FE  6E05               	movwf	MAX17345_read_word@data^0,c
  2669  012800  0E00               	movlw	high MAX17345_dump@data
  2670  012802  6E06               	movwf	(MAX17345_read_word@data+1)^0,c
  2671  012804  ECA0  F094         	call	_MAX17345_read_word	;wreg free
  2672  012808  0900               	iorlw	0
  2673  01280A  A4D8               	btfss	status,2,c
  2674  01280C  EF0A  F094         	goto	u4041
  2675  012810  EF0C  F094         	goto	u4040
  2676  012814                     u4041:
  2677  012814  EF1C  F094         	goto	l240
  2678  012818                     u4040:
  2679  012818  0E41               	movlw	low STR_51
  2680  01281A  6E57               	movwf	printf@fmt^0,c
  2681  01281C  0EFC               	movlw	high STR_51
  2682  01281E  6E58               	movwf	(printf@fmt+1)^0,c
  2683  012820  C0A3  F059         	movff	MAX17345_dump@data,?_printf+2
  2684  012824  C0A4  F05A         	movff	MAX17345_dump@data+1,?_printf+3
  2685  012828  90D8               	bcf	status,0,c
  2686  01282A  0100               	movlb	0	; () banked
  2687  01282C  35A3               	rlcf	MAX17345_dump@data& (0+255),w,b
  2688  01282E  6E5B               	movwf	(?_printf+4)^0,c
  2689  012830  35A4               	rlcf	(MAX17345_dump@data+1)& (0+255),w,b
  2690  012832  6E5C               	movwf	(?_printf+5)^0,c
  2691  012834  ECC0  F098         	call	_printf	;wreg free
  2692  012838                     l240:
  2693  012838  0012               	return		;funcret
  2694  01283A                     __end_of_MAX17345_dump:
  2695                           	callstack 0
  2696                           
  2697 ;; *************** function _MAX17345_read_word *****************
  2698 ;; Defined at:
  2699 ;;		line 57 in file "MAX17435.c"
  2700 ;; Parameters:    Size  Location     Type
  2701 ;;  command         2    2[COMRAM] unsigned short 
  2702 ;;  data            2    4[COMRAM] PTR unsigned short 
  2703 ;;		 -> MAX17345_dump@data(2), 
  2704 ;; Auto vars:     Size  Location     Type
  2705 ;;  r               1   12[COMRAM] unsigned char 
  2706 ;;  dataL           1   11[COMRAM] unsigned char 
  2707 ;;  dataH           1   10[COMRAM] unsigned char 
  2708 ;; Return value:  Size  Location     Type
  2709 ;;                  1    wreg      unsigned char 
  2710 ;; Registers used:
  2711 ;;		wreg, fsr2l, fsr2h, status,2, status,0, cstack
  2712 ;; Tracked objects:
  2713 ;;		On entry : 0/0
  2714 ;;		On exit  : 0/0
  2715 ;;		Unchanged: 0/0
  2716 ;; Data sizes:     COMRAM   BANK0   BANK1   BANK2   BANK3   BANK4   BANK5   BANK6   BANK7   BANK8   BANK9  BANK10  BANK1
      +1  BANK12  BANK13
  2717 ;;      Params:         4       0       0       0       0       0       0       0       0       0       0       0       
      +0       0       0
  2718 ;;      Locals:         3       0       0       0       0       0       0       0       0       0       0       0       
      +0       0       0
  2719 ;;      Temps:          4       0       0       0       0       0       0       0       0       0       0       0       
      +0       0       0
  2720 ;;      Totals:        11       0       0       0       0       0       0       0       0       0       0       0       
      +0       0       0
  2721 ;;Total ram usage:       11 bytes
  2722 ;; Hardware stack levels used:    1
  2723 ;; Hardware stack levels required when called:    1
  2724 ;; This function calls:
  2725 ;;		_i2c_ack
  2726 ;;		_i2c_nack
  2727 ;;		_i2c_read_byte
  2728 ;;		_i2c_restart
  2729 ;;		_i2c_start
  2730 ;;		_i2c_stop
  2731 ;;		_i2c_write_byte
  2732 ;; This function is called by:
  2733 ;;		_MAX17345_dump
  2734 ;;		_MAX17345_get_Dev_ID
  2735 ;;		_MAX17345_get_IINPVoltage
  2736 ;; This function uses a non-reentrant model
  2737 ;;
  2738                           
  2739                           	psect	text9
  2740  012940                     __ptext9:
  2741                           	callstack 0
  2742  012940                     _MAX17345_read_word:
  2743                           	callstack 27
  2744  012940                     
  2745                           ;MAX17435.c: 60:  unsigned char dataH = 0;
  2746  012940  0E00               	movlw	0
  2747  012942  6E0B               	movwf	MAX17345_read_word@dataH^0,c
  2748                           
  2749                           ;MAX17435.c: 61:  unsigned char dataL = 0;
  2750  012944  0E00               	movlw	0
  2751  012946  6E0C               	movwf	MAX17345_read_word@dataL^0,c
  2752  012948                     
  2753                           ;MAX17435.c: 63:  i2c_start();
  2754  012948  EC48  F099         	call	_i2c_start	;wreg free
  2755                           
  2756                           ;MAX17435.c: 64:  if (r = i2c_write_byte(0x12))return r;
  2757  01294C  0E12               	movlw	18
  2758  01294E  ECAC  F098         	call	_i2c_write_byte
  2759  012952  6E0D               	movwf	MAX17345_read_word@r^0,c
  2760  012954  500D               	movf	MAX17345_read_word@r^0,w,c
  2761  012956  B4D8               	btfsc	status,2,c
  2762  012958  EFB0  F094         	goto	u3121
  2763  01295C  EFB2  F094         	goto	u3120
  2764  012960                     u3121:
  2765  012960  EFB5  F094         	goto	l4541
  2766  012964                     u3120:
  2767  012964                     l4537:
  2768  012964  500D               	movf	MAX17345_read_word@r^0,w,c
  2769  012966  EF0E  F095         	goto	l203
  2770  01296A                     l4541:
  2771                           
  2772                           ;MAX17435.c: 65:  if (r = i2c_write_byte(command))return r;
  2773  01296A  5003               	movf	MAX17345_read_word@command^0,w,c
  2774  01296C  ECAC  F098         	call	_i2c_write_byte
  2775  012970  6E0D               	movwf	MAX17345_read_word@r^0,c
  2776  012972  500D               	movf	MAX17345_read_word@r^0,w,c
  2777  012974  B4D8               	btfsc	status,2,c
  2778  012976  EFBF  F094         	goto	u3131
  2779  01297A  EFC1  F094         	goto	u3130
  2780  01297E                     u3131:
  2781  01297E  EFC3  F094         	goto	l4547
  2782  012982                     u3130:
  2783  012982  EFB2  F094         	goto	l4537
  2784  012986                     l4547:
  2785                           
  2786                           ;MAX17435.c: 66:  i2c_restart();
  2787  012986  EC51  F099         	call	_i2c_restart	;wreg free
  2788  01298A                     
  2789                           ;MAX17435.c: 67:  if (r = i2c_write_byte((0x12 | 1)))return r;
  2790  01298A  0E13               	movlw	19
  2791  01298C  ECAC  F098         	call	_i2c_write_byte
  2792  012990  6E0D               	movwf	MAX17345_read_word@r^0,c
  2793  012992  500D               	movf	MAX17345_read_word@r^0,w,c
  2794  012994  B4D8               	btfsc	status,2,c
  2795  012996  EFCF  F094         	goto	u3141
  2796  01299A  EFD1  F094         	goto	u3140
  2797  01299E                     u3141:
  2798  01299E  EFD3  F094         	goto	l4555
  2799  0129A2                     u3140:
  2800  0129A2  EFB2  F094         	goto	l4537
  2801  0129A6                     l4555:
  2802                           
  2803                           ;MAX17435.c: 68:  if (r = i2c_read_byte(&dataL))return r;
  2804  0129A6  0E0C               	movlw	low MAX17345_read_word@dataL
  2805  0129A8  6E01               	movwf	i2c_read_byte@data^0,c
  2806  0129AA  0E00               	movlw	high MAX17345_read_word@dataL
  2807  0129AC  6E02               	movwf	(i2c_read_byte@data+1)^0,c
  2808  0129AE  ECE7  F098         	call	_i2c_read_byte	;wreg free
  2809  0129B2  6E0D               	movwf	MAX17345_read_word@r^0,c
  2810  0129B4  500D               	movf	MAX17345_read_word@r^0,w,c
  2811  0129B6  B4D8               	btfsc	status,2,c
  2812  0129B8  EFE0  F094         	goto	u3151
  2813  0129BC  EFE2  F094         	goto	u3150
  2814  0129C0                     u3151:
  2815  0129C0  EFE4  F094         	goto	l4561
  2816  0129C4                     u3150:
  2817  0129C4  EFB2  F094         	goto	l4537
  2818  0129C8                     l4561:
  2819                           
  2820                           ;MAX17435.c: 69:  i2c_ack();
  2821  0129C8  EC35  F099         	call	_i2c_ack	;wreg free
  2822  0129CC                     
  2823                           ;MAX17435.c: 70:  if (r = i2c_read_byte(&dataH))return r;
  2824  0129CC  0E0B               	movlw	low MAX17345_read_word@dataH
  2825  0129CE  6E01               	movwf	i2c_read_byte@data^0,c
  2826  0129D0  0E00               	movlw	high MAX17345_read_word@dataH
  2827  0129D2  6E02               	movwf	(i2c_read_byte@data+1)^0,c
  2828  0129D4  ECE7  F098         	call	_i2c_read_byte	;wreg free
  2829  0129D8  6E0D               	movwf	MAX17345_read_word@r^0,c
  2830  0129DA  500D               	movf	MAX17345_read_word@r^0,w,c
  2831  0129DC  B4D8               	btfsc	status,2,c
  2832  0129DE  EFF3  F094         	goto	u3161
  2833  0129E2  EFF5  F094         	goto	u3160
  2834  0129E6                     u3161:
  2835  0129E6  EFF7  F094         	goto	l4569
  2836  0129EA                     u3160:
  2837  0129EA  EFB2  F094         	goto	l4537
  2838  0129EE                     l4569:
  2839                           
  2840                           ;MAX17435.c: 71:  i2c_nack();
  2841  0129EE  EC2B  F099         	call	_i2c_nack	;wreg free
  2842                           
  2843                           ;MAX17435.c: 72:  i2c_stop();
  2844  0129F2  EC3F  F099         	call	_i2c_stop	;wreg free
  2845  0129F6                     
  2846                           ;MAX17435.c: 73:  *data = dataL | ((dataH) << 8);
  2847  0129F6  500B               	movf	MAX17345_read_word@dataH^0,w,c
  2848  0129F8  6E08               	movwf	(??_MAX17345_read_word+1)^0,c
  2849  0129FA  6A07               	clrf	??_MAX17345_read_word^0,c
  2850  0129FC  500C               	movf	MAX17345_read_word@dataL^0,w,c
  2851  0129FE  6E09               	movwf	(??_MAX17345_read_word+2)^0,c
  2852  012A00  6A0A               	clrf	(??_MAX17345_read_word+3)^0,c
  2853  012A02  5007               	movf	??_MAX17345_read_word^0,w,c
  2854  012A04  1209               	iorwf	(??_MAX17345_read_word+2)^0,f,c
  2855  012A06  5008               	movf	(??_MAX17345_read_word+1)^0,w,c
  2856  012A08  120A               	iorwf	(??_MAX17345_read_word+3)^0,f,c
  2857  012A0A  C005  FFD9         	movff	MAX17345_read_word@data,fsr2l
  2858  012A0E  C006  FFDA         	movff	MAX17345_read_word@data+1,fsr2h
  2859  012A12  C009  FFDE         	movff	??_MAX17345_read_word+2,postinc2
  2860  012A16  C00A  FFDD         	movff	??_MAX17345_read_word+3,postdec2
  2861  012A1A                     
  2862                           ;MAX17435.c: 74:  return 0;
  2863  012A1A  0E00               	movlw	0
  2864  012A1C                     l203:
  2865  012A1C  0012               	return		;funcret
  2866  012A1E                     __end_of_MAX17345_read_word:
  2867                           	callstack 0
  2868                           
  2869 ;; *************** function _i2c_write_byte *****************
  2870 ;; Defined at:
  2871 ;;		line 50 in file "MAX17435.c"
  2872 ;; Parameters:    Size  Location     Type
  2873 ;;  data            1    wreg     unsigned char 
  2874 ;; Auto vars:     Size  Location     Type
  2875 ;;  data            1    0[COMRAM] unsigned char 
  2876 ;; Return value:  Size  Location     Type
  2877 ;;                  1    wreg      unsigned char 
  2878 ;; Registers used:
  2879 ;;		wreg
  2880 ;; Tracked objects:
  2881 ;;		On entry : 0/0
  2882 ;;		On exit  : 0/0
  2883 ;;		Unchanged: 0/0
  2884 ;; Data sizes:     COMRAM   BANK0   BANK1   BANK2   BANK3   BANK4   BANK5   BANK6   BANK7   BANK8   BANK9  BANK10  BANK1
      +1  BANK12  BANK13
  2885 ;;      Params:         0       0       0       0       0       0       0       0       0       0       0       0       
      +0       0       0
  2886 ;;      Locals:         1       0       0       0       0       0       0       0       0       0       0       0       
      +0       0       0
  2887 ;;      Temps:          0       0       0       0       0       0       0       0       0       0       0       0       
      +0       0       0
  2888 ;;      Totals:         1       0       0       0       0       0       0       0       0       0       0       0       
      +0       0       0
  2889 ;;Total ram usage:        1 bytes
  2890 ;; Hardware stack levels used:    1
  2891 ;; This function calls:
  2892 ;;		Nothing
  2893 ;; This function is called by:
  2894 ;;		_MAX17345_read_word
  2895 ;;		_MAX17345_write_word
  2896 ;; This function uses a non-reentrant model
  2897 ;;
  2898                           
  2899                           	psect	text10
  2900  013158                     __ptext10:
  2901                           	callstack 0
  2902  013158                     _i2c_write_byte:
  2903                           	callstack 27
  2904                           
  2905                           ;incstack = 0
  2906                           ;i2c_write_byte@data stored from wreg
  2907  013158  6E01               	movwf	i2c_write_byte@data^0,c
  2908  01315A                     
  2909                           ;MAX17435.c: 50: unsigned char i2c_write_byte(unsigned char data);MAX17435.c: 51: {;MAX1
      +                          7435.c: 52:  SSP1BUF = data;
  2910  01315A  C001  FF91         	movff	i2c_write_byte@data,3985	;volatile
  2911  01315E                     l196:
  2912  01315E  B494               	btfsc	148,2,c	;volatile
  2913  013160  EFB4  F098         	goto	u3081
  2914  013164  EFB6  F098         	goto	u3080
  2915  013168                     u3081:
  2916  013168  EFAF  F098         	goto	l196
  2917  01316C                     u3080:
  2918  01316C                     
  2919                           ;MAX17435.c: 54:  return SSP1CON2bits.ACKSTAT;
  2920  01316C  BC96               	btfsc	150,6,c	;volatile
  2921  01316E  EFBB  F098         	goto	u3091
  2922  013172  EFBE  F098         	goto	u3090
  2923  013176                     u3091:
  2924  013176  0E01               	movlw	1
  2925  013178  EFBF  F098         	goto	u3096
  2926  01317C                     u3090:
  2927  01317C  0E00               	movlw	0
  2928  01317E                     u3096:
  2929  01317E  0012               	return		;funcret
  2930  013180                     __end_of_i2c_write_byte:
  2931                           	callstack 0
  2932                           
  2933 ;; *************** function _i2c_stop *****************
  2934 ;; Defined at:
  2935 ;;		line 22 in file "MAX17435.c"
  2936 ;; Parameters:    Size  Location     Type
  2937 ;;		None
  2938 ;; Auto vars:     Size  Location     Type
  2939 ;;		None
  2940 ;; Return value:  Size  Location     Type
  2941 ;;                  1    wreg      void 
  2942 ;; Registers used:
  2943 ;;		None
  2944 ;; Tracked objects:
  2945 ;;		On entry : 0/0
  2946 ;;		On exit  : 0/0
  2947 ;;		Unchanged: 0/0
  2948 ;; Data sizes:     COMRAM   BANK0   BANK1   BANK2   BANK3   BANK4   BANK5   BANK6   BANK7   BANK8   BANK9  BANK10  BANK1
      +1  BANK12  BANK13
  2949 ;;      Params:         0       0       0       0       0       0       0       0       0       0       0       0       
      +0       0       0
  2950 ;;      Locals:         0       0       0       0       0       0       0       0       0       0       0       0       
      +0       0       0
  2951 ;;      Temps:          0       0       0       0       0       0       0       0       0       0       0       0       
      +0       0       0
  2952 ;;      Totals:         0       0       0       0       0       0       0       0       0       0       0       0       
      +0       0       0
  2953 ;;Total ram usage:        0 bytes
  2954 ;; Hardware stack levels used:    1
  2955 ;; This function calls:
  2956 ;;		Nothing
  2957 ;; This function is called by:
  2958 ;;		_MAX17345_read_word
  2959 ;;		_MAX17345_write_word
  2960 ;; This function uses a non-reentrant model
  2961 ;;
  2962                           
  2963                           	psect	text11
  2964  01327E                     __ptext11:
  2965                           	callstack 0
  2966  01327E                     _i2c_stop:
  2967                           	callstack 27
  2968  01327E                     
  2969                           ;MAX17435.c: 24:  SSP1CON2bits.PEN = 1;
  2970  01327E  8496               	bsf	150,2,c	;volatile
  2971  013280                     l172:
  2972  013280  B496               	btfsc	150,2,c	;volatile
  2973  013282  EF45  F099         	goto	u3041
  2974  013286  EF47  F099         	goto	u3040
  2975  01328A                     u3041:
  2976  01328A  EF40  F099         	goto	l172
  2977  01328E                     u3040:
  2978  01328E  0012               	return		;funcret
  2979  013290                     __end_of_i2c_stop:
  2980                           	callstack 0
  2981                           
  2982 ;; *************** function _i2c_start *****************
  2983 ;; Defined at:
  2984 ;;		line 10 in file "MAX17435.c"
  2985 ;; Parameters:    Size  Location     Type
  2986 ;;		None
  2987 ;; Auto vars:     Size  Location     Type
  2988 ;;		None
  2989 ;; Return value:  Size  Location     Type
  2990 ;;                  1    wreg      void 
  2991 ;; Registers used:
  2992 ;;		None
  2993 ;; Tracked objects:
  2994 ;;		On entry : 0/0
  2995 ;;		On exit  : 0/0
  2996 ;;		Unchanged: 0/0
  2997 ;; Data sizes:     COMRAM   BANK0   BANK1   BANK2   BANK3   BANK4   BANK5   BANK6   BANK7   BANK8   BANK9  BANK10  BANK1
      +1  BANK12  BANK13
  2998 ;;      Params:         0       0       0       0       0       0       0       0       0       0       0       0       
      +0       0       0
  2999 ;;      Locals:         0       0       0       0       0       0       0       0       0       0       0       0       
      +0       0       0
  3000 ;;      Temps:          0       0       0       0       0       0       0       0       0       0       0       0       
      +0       0       0
  3001 ;;      Totals:         0       0       0       0       0       0       0       0       0       0       0       0       
      +0       0       0
  3002 ;;Total ram usage:        0 bytes
  3003 ;; Hardware stack levels used:    1
  3004 ;; This function calls:
  3005 ;;		Nothing
  3006 ;; This function is called by:
  3007 ;;		_MAX17345_read_word
  3008 ;;		_MAX17345_write_word
  3009 ;; This function uses a non-reentrant model
  3010 ;;
  3011                           
  3012                           	psect	text12
  3013  013290                     __ptext12:
  3014                           	callstack 0
  3015  013290                     _i2c_start:
  3016                           	callstack 27
  3017  013290                     
  3018                           ;MAX17435.c: 12:  SSP1CON2bits.SEN = 1;
  3019  013290  8096               	bsf	150,0,c	;volatile
  3020  013292                     l160:
  3021  013292  B096               	btfsc	150,0,c	;volatile
  3022  013294  EF4E  F099         	goto	u3021
  3023  013298  EF50  F099         	goto	u3020
  3024  01329C                     u3021:
  3025  01329C  EF49  F099         	goto	l160
  3026  0132A0                     u3020:
  3027  0132A0  0012               	return		;funcret
  3028  0132A2                     __end_of_i2c_start:
  3029                           	callstack 0
  3030                           
  3031 ;; *************** function _i2c_restart *****************
  3032 ;; Defined at:
  3033 ;;		line 16 in file "MAX17435.c"
  3034 ;; Parameters:    Size  Location     Type
  3035 ;;		None
  3036 ;; Auto vars:     Size  Location     Type
  3037 ;;		None
  3038 ;; Return value:  Size  Location     Type
  3039 ;;                  1    wreg      void 
  3040 ;; Registers used:
  3041 ;;		None
  3042 ;; Tracked objects:
  3043 ;;		On entry : 0/0
  3044 ;;		On exit  : 0/0
  3045 ;;		Unchanged: 0/0
  3046 ;; Data sizes:     COMRAM   BANK0   BANK1   BANK2   BANK3   BANK4   BANK5   BANK6   BANK7   BANK8   BANK9  BANK10  BANK1
      +1  BANK12  BANK13
  3047 ;;      Params:         0       0       0       0       0       0       0       0       0       0       0       0       
      +0       0       0
  3048 ;;      Locals:         0       0       0       0       0       0       0       0       0       0       0       0       
      +0       0       0
  3049 ;;      Temps:          0       0       0       0       0       0       0       0       0       0       0       0       
      +0       0       0
  3050 ;;      Totals:         0       0       0       0       0       0       0       0       0       0       0       0       
      +0       0       0
  3051 ;;Total ram usage:        0 bytes
  3052 ;; Hardware stack levels used:    1
  3053 ;; This function calls:
  3054 ;;		Nothing
  3055 ;; This function is called by:
  3056 ;;		_MAX17345_read_word
  3057 ;; This function uses a non-reentrant model
  3058 ;;
  3059                           
  3060                           	psect	text13
  3061  0132A2                     __ptext13:
  3062                           	callstack 0
  3063  0132A2                     _i2c_restart:
  3064                           	callstack 27
  3065  0132A2                     
  3066                           ;MAX17435.c: 18:  SSP1CON2bits.RSEN = 1;
  3067  0132A2  8296               	bsf	150,1,c	;volatile
  3068  0132A4                     l166:
  3069  0132A4  B296               	btfsc	150,1,c	;volatile
  3070  0132A6  EF57  F099         	goto	u3031
  3071  0132AA  EF59  F099         	goto	u3030
  3072  0132AE                     u3031:
  3073  0132AE  EF52  F099         	goto	l166
  3074  0132B2                     u3030:
  3075  0132B2  0012               	return		;funcret
  3076  0132B4                     __end_of_i2c_restart:
  3077                           	callstack 0
  3078                           
  3079 ;; *************** function _i2c_read_byte *****************
  3080 ;; Defined at:
  3081 ;;		line 42 in file "MAX17435.c"
  3082 ;; Parameters:    Size  Location     Type
  3083 ;;  data            2    0[COMRAM] PTR unsigned char 
  3084 ;;		 -> MAX17345_read_word@dataL(1), MAX17345_read_word@dataH(1), 
  3085 ;; Auto vars:     Size  Location     Type
  3086 ;;		None
  3087 ;; Return value:  Size  Location     Type
  3088 ;;                  1    wreg      unsigned char 
  3089 ;; Registers used:
  3090 ;;		wreg, fsr2l, fsr2h
  3091 ;; Tracked objects:
  3092 ;;		On entry : 0/0
  3093 ;;		On exit  : 0/0
  3094 ;;		Unchanged: 0/0
  3095 ;; Data sizes:     COMRAM   BANK0   BANK1   BANK2   BANK3   BANK4   BANK5   BANK6   BANK7   BANK8   BANK9  BANK10  BANK1
      +1  BANK12  BANK13
  3096 ;;      Params:         2       0       0       0       0       0       0       0       0       0       0       0       
      +0       0       0
  3097 ;;      Locals:         0       0       0       0       0       0       0       0       0       0       0       0       
      +0       0       0
  3098 ;;      Temps:          0       0       0       0       0       0       0       0       0       0       0       0       
      +0       0       0
  3099 ;;      Totals:         2       0       0       0       0       0       0       0       0       0       0       0       
      +0       0       0
  3100 ;;Total ram usage:        2 bytes
  3101 ;; Hardware stack levels used:    1
  3102 ;; This function calls:
  3103 ;;		Nothing
  3104 ;; This function is called by:
  3105 ;;		_MAX17345_read_word
  3106 ;; This function uses a non-reentrant model
  3107 ;;
  3108                           
  3109                           	psect	text14
  3110  0131CE                     __ptext14:
  3111                           	callstack 0
  3112  0131CE                     _i2c_read_byte:
  3113                           	callstack 27
  3114  0131CE                     
  3115                           ;MAX17435.c: 42: unsigned char i2c_read_byte(unsigned char *data);MAX17435.c: 43: {;MAX1
      +                          7435.c: 44:  SSP1CON2bits.RCEN = 1;
  3116  0131CE  8696               	bsf	150,3,c	;volatile
  3117  0131D0                     l190:
  3118  0131D0  B696               	btfsc	150,3,c	;volatile
  3119  0131D2  EFED  F098         	goto	u3071
  3120  0131D6  EFEF  F098         	goto	u3070
  3121  0131DA                     u3071:
  3122  0131DA  EFE8  F098         	goto	l190
  3123  0131DE                     u3070:
  3124  0131DE                     
  3125                           ;MAX17435.c: 46:  *data = SSP1BUF;
  3126  0131DE  C001  FFD9         	movff	i2c_read_byte@data,fsr2l
  3127  0131E2  C002  FFDA         	movff	i2c_read_byte@data+1,fsr2h
  3128  0131E6  CF91 FFDF          	movff	3985,indf2	;volatile
  3129  0131EA                     
  3130                           ;MAX17435.c: 47:  return 0;
  3131  0131EA  0E00               	movlw	0
  3132  0131EC  0012               	return		;funcret
  3133  0131EE                     __end_of_i2c_read_byte:
  3134                           	callstack 0
  3135                           
  3136 ;; *************** function _i2c_nack *****************
  3137 ;; Defined at:
  3138 ;;		line 35 in file "MAX17435.c"
  3139 ;; Parameters:    Size  Location     Type
  3140 ;;		None
  3141 ;; Auto vars:     Size  Location     Type
  3142 ;;		None
  3143 ;; Return value:  Size  Location     Type
  3144 ;;                  1    wreg      void 
  3145 ;; Registers used:
  3146 ;;		None
  3147 ;; Tracked objects:
  3148 ;;		On entry : 0/0
  3149 ;;		On exit  : 0/0
  3150 ;;		Unchanged: 0/0
  3151 ;; Data sizes:     COMRAM   BANK0   BANK1   BANK2   BANK3   BANK4   BANK5   BANK6   BANK7   BANK8   BANK9  BANK10  BANK1
      +1  BANK12  BANK13
  3152 ;;      Params:         0       0       0       0       0       0       0       0       0       0       0       0       
      +0       0       0
  3153 ;;      Locals:         0       0       0       0       0       0       0       0       0       0       0       0       
      +0       0       0
  3154 ;;      Temps:          0       0       0       0       0       0       0       0       0       0       0       0       
      +0       0       0
  3155 ;;      Totals:         0       0       0       0       0       0       0       0       0       0       0       0       
      +0       0       0
  3156 ;;Total ram usage:        0 bytes
  3157 ;; Hardware stack levels used:    1
  3158 ;; This function calls:
  3159 ;;		Nothing
  3160 ;; This function is called by:
  3161 ;;		_MAX17345_read_word
  3162 ;; This function uses a non-reentrant model
  3163 ;;
  3164                           
  3165                           	psect	text15
  3166  013256                     __ptext15:
  3167                           	callstack 0
  3168  013256                     _i2c_nack:
  3169                           	callstack 27
  3170  013256                     
  3171                           ;MAX17435.c: 37:  SSP1CON2bits.ACKDT = 1;
  3172  013256  8A96               	bsf	150,5,c	;volatile
  3173                           
  3174                           ;MAX17435.c: 38:  SSP1CON2bits.ACKEN = 1;
  3175  013258  8896               	bsf	150,4,c	;volatile
  3176  01325A                     l184:
  3177  01325A  B896               	btfsc	150,4,c	;volatile
  3178  01325C  EF32  F099         	goto	u3061
  3179  013260  EF34  F099         	goto	u3060
  3180  013264                     u3061:
  3181  013264  EF2D  F099         	goto	l184
  3182  013268                     u3060:
  3183  013268  0012               	return		;funcret
  3184  01326A                     __end_of_i2c_nack:
  3185                           	callstack 0
  3186                           
  3187 ;; *************** function _i2c_ack *****************
  3188 ;; Defined at:
  3189 ;;		line 28 in file "MAX17435.c"
  3190 ;; Parameters:    Size  Location     Type
  3191 ;;		None
  3192 ;; Auto vars:     Size  Location     Type
  3193 ;;		None
  3194 ;; Return value:  Size  Location     Type
  3195 ;;                  1    wreg      void 
  3196 ;; Registers used:
  3197 ;;		None
  3198 ;; Tracked objects:
  3199 ;;		On entry : 0/0
  3200 ;;		On exit  : 0/0
  3201 ;;		Unchanged: 0/0
  3202 ;; Data sizes:     COMRAM   BANK0   BANK1   BANK2   BANK3   BANK4   BANK5   BANK6   BANK7   BANK8   BANK9  BANK10  BANK1
      +1  BANK12  BANK13
  3203 ;;      Params:         0       0       0       0       0       0       0       0       0       0       0       0       
      +0       0       0
  3204 ;;      Locals:         0       0       0       0       0       0       0       0       0       0       0       0       
      +0       0       0
  3205 ;;      Temps:          0       0       0       0       0       0       0       0       0       0       0       0       
      +0       0       0
  3206 ;;      Totals:         0       0       0       0       0       0       0       0       0       0       0       0       
      +0       0       0
  3207 ;;Total ram usage:        0 bytes
  3208 ;; Hardware stack levels used:    1
  3209 ;; This function calls:
  3210 ;;		Nothing
  3211 ;; This function is called by:
  3212 ;;		_MAX17345_read_word
  3213 ;; This function uses a non-reentrant model
  3214 ;;
  3215                           
  3216                           	psect	text16
  3217  01326A                     __ptext16:
  3218                           	callstack 0
  3219  01326A                     _i2c_ack:
  3220                           	callstack 27
  3221  01326A                     
  3222                           ;MAX17435.c: 30:  SSP1CON2bits.ACKDT = 0;
  3223  01326A  9A96               	bcf	150,5,c	;volatile
  3224                           
  3225                           ;MAX17435.c: 31:  SSP1CON2bits.ACKEN = 1;
  3226  01326C  8896               	bsf	150,4,c	;volatile
  3227  01326E                     l178:
  3228  01326E  B896               	btfsc	150,4,c	;volatile
  3229  013270  EF3C  F099         	goto	u3051
  3230  013274  EF3E  F099         	goto	u3050
  3231  013278                     u3051:
  3232  013278  EF37  F099         	goto	l178
  3233  01327C                     u3050:
  3234  01327C  0012               	return		;funcret
  3235  01327E                     __end_of_i2c_ack:
  3236                           	callstack 0
  3237                           
  3238 ;; *************** function _MAX17320_init *****************
  3239 ;; Defined at:
  3240 ;;		line 148 in file "MAX17320.c"
  3241 ;; Parameters:    Size  Location     Type
  3242 ;;		None
  3243 ;; Auto vars:     Size  Location     Type
  3244 ;;  data            2   27[BANK0 ] unsigned short 
  3245 ;;  x               2   25[BANK0 ] volatile unsigned short 
  3246 ;;  r               1   29[BANK0 ] unsigned char 
  3247 ;; Return value:  Size  Location     Type
  3248 ;;                  1    wreg      unsigned char 
  3249 ;; Registers used:
  3250 ;;		wreg, fsr1l, fsr1h, fsr2l, fsr2h, status,2, status,0, tblptrl, tblptrh, tblptru, prodl, prodh, cstack
  3251 ;; Tracked objects:
  3252 ;;		On entry : 0/0
  3253 ;;		On exit  : 0/0
  3254 ;;		Unchanged: 0/0
  3255 ;; Data sizes:     COMRAM   BANK0   BANK1   BANK2   BANK3   BANK4   BANK5   BANK6   BANK7   BANK8   BANK9  BANK10  BANK1
      +1  BANK12  BANK13
  3256 ;;      Params:         0       0       0       0       0       0       0       0       0       0       0       0       
      +0       0       0
  3257 ;;      Locals:         0       5       0       0       0       0       0       0       0       0       0       0       
      +0       0       0
  3258 ;;      Temps:          0       0       0       0       0       0       0       0       0       0       0       0       
      +0       0       0
  3259 ;;      Totals:         0       5       0       0       0       0       0       0       0       0       0       0       
      +0       0       0
  3260 ;;Total ram usage:        5 bytes
  3261 ;; Hardware stack levels used:    1
  3262 ;; Hardware stack levels required when called:   10
  3263 ;; This function calls:
  3264 ;;		_MAX17320_dump
  3265 ;;		_MAX17320_read_word
  3266 ;;		_MAX17320_write_word
  3267 ;;		_printf
  3268 ;; This function is called by:
  3269 ;;		_main
  3270 ;; This function uses a non-reentrant model
  3271 ;;
  3272                           
  3273                           	psect	text17
  3274  012DDA                     __ptext17:
  3275                           	callstack 0
  3276  012DDA                     _MAX17320_init:
  3277                           	callstack 20
  3278  012DDA                     
  3279                           ;MAX17320.c: 149: volatile unsigned short x = 0x500a;
  3280  012DDA  0E50               	movlw	80
  3281  012DDC  0100               	movlb	0	; () banked
  3282  012DDE  6FA2               	movwf	(MAX17320_init@x+1)& (0+255),b	;volatile
  3283  012DE0  0E0A               	movlw	10
  3284  012DE2  6FA1               	movwf	MAX17320_init@x& (0+255),b	;volatile
  3285  012DE4                     
  3286                           ; BSR set to: 0
  3287                           ;MAX17320.c: 151:     unsigned short data;;MAX17320.c: 152:     LATCbits.LATC0 = 1;
  3288  012DE4  807B               	bsf	123,0,c	;volatile
  3289  012DE6                     
  3290                           ; BSR set to: 0
  3291                           ;MAX17320.c: 153:     TRISCbits.TRISC0 = 0;
  3292  012DE6  9083               	bcf	131,0,c	;volatile
  3293  012DE8                     
  3294                           ; BSR set to: 0
  3295                           ;MAX17320.c: 154:     ODCONCbits.ODCC0 = 1;
  3296  012DE8  010E               	movlb	14	; () banked
  3297  012DEA  81A0               	bsf	160,0,b	;volatile
  3298  012DEC                     
  3299                           ; BSR set to: 14
  3300                           ;MAX17320.c: 156:     WPUCbits.WPUC0 = 1;
  3301  012DEC  81A1               	bsf	161,0,b	;volatile
  3302  012DEE                     
  3303                           ; BSR set to: 14
  3304                           ;MAX17320.c: 157:     INLVLCbits.INLVLC0 = 1;
  3305  012DEE  819E               	bsf	158,0,b	;volatile
  3306  012DF0                     
  3307                           ; BSR set to: 14
  3308                           ;MAX17320.c: 159:  WPUE = 0xff;
  3309  012DF0  69AE               	setf	174,b	;volatile
  3310  012DF2                     
  3311                           ; BSR set to: 14
  3312                           ;MAX17320.c: 161:     printf("boot!");
  3313  012DF2  0EF8               	movlw	low STR_1
  3314  012DF4  6E57               	movwf	printf@fmt^0,c
  3315  012DF6  0EFF               	movlw	high STR_1
  3316  012DF8  6E58               	movwf	(printf@fmt+1)^0,c
  3317  012DFA  ECC0  F098         	call	_printf	;wreg free
  3318  012DFE                     
  3319                           ;MAX17320.c: 163:     MAX17320_dump();
  3320  012DFE  EC00  F080         	call	_MAX17320_dump	;wreg free
  3321  012E02                     
  3322                           ;MAX17320.c: 173:     if ((r = MAX17320_read_word(0x01B5, &data)))return r;
  3323  012E02  0E01               	movlw	1
  3324  012E04  6E08               	movwf	(MAX17320_read_word@address+1)^0,c
  3325  012E06  0EB5               	movlw	181
  3326  012E08  6E07               	movwf	MAX17320_read_word@address^0,c
  3327  012E0A  0EA3               	movlw	low MAX17320_init@data
  3328  012E0C  6E09               	movwf	MAX17320_read_word@data^0,c
  3329  012E0E  0E00               	movlw	high MAX17320_init@data
  3330  012E10  6E0A               	movwf	(MAX17320_read_word@data+1)^0,c
  3331  012E12  EC43  F097         	call	_MAX17320_read_word	;wreg free
  3332  012E16  0100               	movlb	0	; () banked
  3333  012E18  6FA5               	movwf	MAX17320_init@r& (0+255),b
  3334  012E1A  51A5               	movf	MAX17320_init@r& (0+255),w,b
  3335  012E1C  B4D8               	btfsc	status,2,c
  3336  012E1E  EF13  F097         	goto	u4051
  3337  012E22  EF15  F097         	goto	u4050
  3338  012E26                     u4051:
  3339  012E26  EF17  F097         	goto	l5155
  3340  012E2A                     u4050:
  3341  012E2A  EF19  F097         	goto	l52
  3342  012E2E                     l5155:
  3343                           
  3344                           ; BSR set to: 0
  3345                           ;MAX17320.c: 241:     MAX17320_dump();
  3346  012E2E  EC00  F080         	call	_MAX17320_dump	;wreg free
  3347  012E32                     l52:
  3348  012E32  0012               	return		;funcret
  3349  012E34                     __end_of_MAX17320_init:
  3350                           	callstack 0
  3351                           
  3352 ;; *************** function _MAX17320_write_word *****************
  3353 ;; Defined at:
  3354 ;;		line 132 in file "MAX17320.c"
  3355 ;; Parameters:    Size  Location     Type
  3356 ;;  address         2    2[COMRAM] unsigned short 
  3357 ;;  data            2    4[COMRAM] unsigned short 
  3358 ;; Auto vars:     Size  Location     Type
  3359 ;;		None
  3360 ;; Return value:  Size  Location     Type
  3361 ;;                  1    wreg      unsigned char 
  3362 ;; Registers used:
  3363 ;;		wreg, status,2, cstack
  3364 ;; Tracked objects:
  3365 ;;		On entry : 0/0
  3366 ;;		On exit  : 0/0
  3367 ;;		Unchanged: 0/0
  3368 ;; Data sizes:     COMRAM   BANK0   BANK1   BANK2   BANK3   BANK4   BANK5   BANK6   BANK7   BANK8   BANK9  BANK10  BANK1
      +1  BANK12  BANK13
  3369 ;;      Params:         4       0       0       0       0       0       0       0       0       0       0       0       
      +0       0       0
  3370 ;;      Locals:         0       0       0       0       0       0       0       0       0       0       0       0       
      +0       0       0
  3371 ;;      Temps:          0       0       0       0       0       0       0       0       0       0       0       0       
      +0       0       0
  3372 ;;      Totals:         4       0       0       0       0       0       0       0       0       0       0       0       
      +0       0       0
  3373 ;;Total ram usage:        4 bytes
  3374 ;; Hardware stack levels used:    1
  3375 ;; Hardware stack levels required when called:    1
  3376 ;; This function calls:
  3377 ;;		_ow_reset
  3378 ;;		_ow_write_word
  3379 ;; This function is called by:
  3380 ;;		_MAX17320_init
  3381 ;;		_MAX17320_reset
  3382 ;; This function uses a non-reentrant model
  3383 ;;
  3384                           
  3385                           	psect	text18
  3386  012F14                     __ptext18:
  3387                           	callstack 0
  3388  012F14                     _MAX17320_write_word:
  3389                           	callstack 28
  3390  012F14                     
  3391                           ;MAX17320.c: 134:     if (ow_reset()) {
  3392  012F14  EC6F  F08F         	call	_ow_reset	;wreg free
  3393  012F18  0900               	iorlw	0
  3394  012F1A  B4D8               	btfsc	status,2,c
  3395  012F1C  EF92  F097         	goto	u3571
  3396  012F20  EF94  F097         	goto	u3570
  3397  012F24                     u3571:
  3398  012F24  EFA9  F097         	goto	l4839
  3399  012F28                     u3570:
  3400  012F28                     
  3401                           ;MAX17320.c: 136:         ow_write_word(0x00CC | 0x6C00);
  3402  012F28  0E6C               	movlw	108
  3403  012F2A  6E02               	movwf	(ow_write_word@data+1)^0,c
  3404  012F2C  0ECC               	movlw	204
  3405  012F2E  6E01               	movwf	ow_write_word@data^0,c
  3406  012F30  EC7C  F08E         	call	_ow_write_word	;wreg free
  3407                           
  3408                           ;MAX17320.c: 137:         ow_write_word(address);
  3409  012F34  C003  F001         	movff	MAX17320_write_word@address,ow_write_word@data
  3410  012F38  C004  F002         	movff	MAX17320_write_word@address+1,ow_write_word@data+1
  3411  012F3C  EC7C  F08E         	call	_ow_write_word	;wreg free
  3412                           
  3413                           ;MAX17320.c: 138:         ow_write_word(data);
  3414  012F40  C005  F001         	movff	MAX17320_write_word@data,ow_write_word@data
  3415  012F44  C006  F002         	movff	MAX17320_write_word@data+1,ow_write_word@data+1
  3416  012F48  EC7C  F08E         	call	_ow_write_word	;wreg free
  3417  012F4C                     
  3418                           ;MAX17320.c: 139:         return 0;
  3419  012F4C  0E00               	movlw	0
  3420  012F4E  EFAA  F097         	goto	l47
  3421  012F52                     l4839:
  3422                           
  3423                           ;MAX17320.c: 142:         return 1;
  3424  012F52  0E01               	movlw	1
  3425  012F54                     l47:
  3426  012F54  0012               	return		;funcret
  3427  012F56                     __end_of_MAX17320_write_word:
  3428                           	callstack 0
  3429                           
  3430 ;; *************** function _MAX17320_dump *****************
  3431 ;; Defined at:
  3432 ;;		line 284 in file "MAX17320.c"
  3433 ;; Parameters:    Size  Location     Type
  3434 ;;		None
  3435 ;; Auto vars:     Size  Location     Type
  3436 ;;  data            2   92[COMRAM] unsigned short 
  3437 ;; Return value:  Size  Location     Type
  3438 ;;                  1    wreg      void 
  3439 ;; Registers used:
  3440 ;;		wreg, fsr1l, fsr1h, fsr2l, fsr2h, status,2, status,0, tblptrl, tblptrh, tblptru, prodl, prodh, cstack
  3441 ;; Tracked objects:
  3442 ;;		On entry : 0/0
  3443 ;;		On exit  : 0/0
  3444 ;;		Unchanged: 0/0
  3445 ;; Data sizes:     COMRAM   BANK0   BANK1   BANK2   BANK3   BANK4   BANK5   BANK6   BANK7   BANK8   BANK9  BANK10  BANK1
      +1  BANK12  BANK13
  3446 ;;      Params:         0       0       0       0       0       0       0       0       0       0       0       0       
      +0       0       0
  3447 ;;      Locals:         2       0       0       0       0       0       0       0       0       0       0       0       
      +0       0       0
  3448 ;;      Temps:          0       0       0       0       0       0       0       0       0       0       0       0       
      +0       0       0
  3449 ;;      Totals:         2       0       0       0       0       0       0       0       0       0       0       0       
      +0       0       0
  3450 ;;Total ram usage:        2 bytes
  3451 ;; Hardware stack levels used:    1
  3452 ;; Hardware stack levels required when called:    9
  3453 ;; This function calls:
  3454 ;;		_MAX17320_read_word
  3455 ;;		___flmul
  3456 ;;		___fltol
  3457 ;;		___xxtofl
  3458 ;;		_printf
  3459 ;; This function is called by:
  3460 ;;		_MAX17320_init
  3461 ;;		_main
  3462 ;; This function uses a non-reentrant model
  3463 ;;
  3464                           
  3465                           	psect	text19
  3466  010000                     __ptext19:
  3467                           	callstack 0
  3468  010000                     _MAX17320_dump:
  3469                           	callstack 20
  3470  010000                     
  3471                           ;MAX17320.c: 286:     unsigned short data = 0;
  3472  010000  0E00               	movlw	0
  3473  010002  6E5E               	movwf	(MAX17320_dump@data+1)^0,c
  3474  010004  0E00               	movlw	0
  3475  010006  6E5D               	movwf	MAX17320_dump@data^0,c
  3476  010008                     
  3477                           ;MAX17320.c: 288:     printf("\nRAM\n");
  3478  010008  0EEC               	movlw	low STR_2
  3479  01000A  6E57               	movwf	printf@fmt^0,c
  3480  01000C  0EFF               	movlw	high STR_2
  3481  01000E  6E58               	movwf	(printf@fmt+1)^0,c
  3482  010010  ECC0  F098         	call	_printf	;wreg free
  3483  010014                     
  3484                           ;MAX17320.c: 289:     if(!MAX17320_read_word(0x000,&data)){printf("Status    =%04x\n",da
      +                          ta);}
  3485  010014  0E00               	movlw	0
  3486  010016  6E08               	movwf	(MAX17320_read_word@address+1)^0,c
  3487  010018  0E00               	movlw	0
  3488  01001A  6E07               	movwf	MAX17320_read_word@address^0,c
  3489  01001C  0E5D               	movlw	low MAX17320_dump@data
  3490  01001E  6E09               	movwf	MAX17320_read_word@data^0,c
  3491  010020  0E00               	movlw	high MAX17320_dump@data
  3492  010022  6E0A               	movwf	(MAX17320_read_word@data+1)^0,c
  3493  010024  EC43  F097         	call	_MAX17320_read_word	;wreg free
  3494  010028  0900               	iorlw	0
  3495  01002A  A4D8               	btfss	status,2,c
  3496  01002C  EF1A  F080         	goto	u3581
  3497  010030  EF1C  F080         	goto	u3580
  3498  010034                     u3581:
  3499  010034  EF26  F080         	goto	l4855
  3500  010038                     u3580:
  3501  010038  0E6A               	movlw	low STR_3
  3502  01003A  6E57               	movwf	printf@fmt^0,c
  3503  01003C  0EFF               	movlw	high STR_3
  3504  01003E  6E58               	movwf	(printf@fmt+1)^0,c
  3505  010040  C05D  F059         	movff	MAX17320_dump@data,?_printf+2
  3506  010044  C05E  F05A         	movff	MAX17320_dump@data+1,?_printf+3
  3507  010048  ECC0  F098         	call	_printf	;wreg free
  3508  01004C                     l4855:
  3509                           
  3510                           ;MAX17320.c: 290:     if(!MAX17320_read_word(0x0b0,&data)){printf("Status2   =%04x\n",da
      +                          ta);}
  3511  01004C  0E00               	movlw	0
  3512  01004E  6E08               	movwf	(MAX17320_read_word@address+1)^0,c
  3513  010050  0EB0               	movlw	176
  3514  010052  6E07               	movwf	MAX17320_read_word@address^0,c
  3515  010054  0E5D               	movlw	low MAX17320_dump@data
  3516  010056  6E09               	movwf	MAX17320_read_word@data^0,c
  3517  010058  0E00               	movlw	high MAX17320_dump@data
  3518  01005A  6E0A               	movwf	(MAX17320_read_word@data+1)^0,c
  3519  01005C  EC43  F097         	call	_MAX17320_read_word	;wreg free
  3520  010060  0900               	iorlw	0
  3521  010062  A4D8               	btfss	status,2,c
  3522  010064  EF36  F080         	goto	u3591
  3523  010068  EF38  F080         	goto	u3590
  3524  01006C                     u3591:
  3525  01006C  EF42  F080         	goto	l4859
  3526  010070                     u3590:
  3527  010070  0E8C               	movlw	low STR_4
  3528  010072  6E57               	movwf	printf@fmt^0,c
  3529  010074  0EFF               	movlw	high STR_4
  3530  010076  6E58               	movwf	(printf@fmt+1)^0,c
  3531  010078  C05D  F059         	movff	MAX17320_dump@data,?_printf+2
  3532  01007C  C05E  F05A         	movff	MAX17320_dump@data+1,?_printf+3
  3533  010080  ECC0  F098         	call	_printf	;wreg free
  3534  010084                     l4859:
  3535                           
  3536                           ;MAX17320.c: 291:     if(!MAX17320_read_word(0x0af,&data)){printf("ProtAlert =%04x\n",da
      +                          ta);}
  3537  010084  0E00               	movlw	0
  3538  010086  6E08               	movwf	(MAX17320_read_word@address+1)^0,c
  3539  010088  0EAF               	movlw	175
  3540  01008A  6E07               	movwf	MAX17320_read_word@address^0,c
  3541  01008C  0E5D               	movlw	low MAX17320_dump@data
  3542  01008E  6E09               	movwf	MAX17320_read_word@data^0,c
  3543  010090  0E00               	movlw	high MAX17320_dump@data
  3544  010092  6E0A               	movwf	(MAX17320_read_word@data+1)^0,c
  3545  010094  EC43  F097         	call	_MAX17320_read_word	;wreg free
  3546  010098  0900               	iorlw	0
  3547  01009A  A4D8               	btfss	status,2,c
  3548  01009C  EF52  F080         	goto	u3601
  3549  0100A0  EF54  F080         	goto	u3600
  3550  0100A4                     u3601:
  3551  0100A4  EF5E  F080         	goto	l4863
  3552  0100A8                     u3600:
  3553  0100A8  0EBF               	movlw	low STR_5
  3554  0100AA  6E57               	movwf	printf@fmt^0,c
  3555  0100AC  0EFF               	movlw	high STR_5
  3556  0100AE  6E58               	movwf	(printf@fmt+1)^0,c
  3557  0100B0  C05D  F059         	movff	MAX17320_dump@data,?_printf+2
  3558  0100B4  C05E  F05A         	movff	MAX17320_dump@data+1,?_printf+3
  3559  0100B8  ECC0  F098         	call	_printf	;wreg free
  3560  0100BC                     l4863:
  3561                           
  3562                           ;MAX17320.c: 292:     if(!MAX17320_read_word(0x0d9,&data)){printf("ProtStatus=%04x\n",da
      +                          ta);}
  3563  0100BC  0E00               	movlw	0
  3564  0100BE  6E08               	movwf	(MAX17320_read_word@address+1)^0,c
  3565  0100C0  0ED9               	movlw	217
  3566  0100C2  6E07               	movwf	MAX17320_read_word@address^0,c
  3567  0100C4  0E5D               	movlw	low MAX17320_dump@data
  3568  0100C6  6E09               	movwf	MAX17320_read_word@data^0,c
  3569  0100C8  0E00               	movlw	high MAX17320_dump@data
  3570  0100CA  6E0A               	movwf	(MAX17320_read_word@data+1)^0,c
  3571  0100CC  EC43  F097         	call	_MAX17320_read_word	;wreg free
  3572  0100D0  0900               	iorlw	0
  3573  0100D2  A4D8               	btfss	status,2,c
  3574  0100D4  EF6E  F080         	goto	u3611
  3575  0100D8  EF70  F080         	goto	u3610
  3576  0100DC                     u3611:
  3577  0100DC  EF7A  F080         	goto	l4867
  3578  0100E0                     u3610:
  3579  0100E0  0ED0               	movlw	low STR_6
  3580  0100E2  6E57               	movwf	printf@fmt^0,c
  3581  0100E4  0EFF               	movlw	high STR_6
  3582  0100E6  6E58               	movwf	(printf@fmt+1)^0,c
  3583  0100E8  C05D  F059         	movff	MAX17320_dump@data,?_printf+2
  3584  0100EC  C05E  F05A         	movff	MAX17320_dump@data+1,?_printf+3
  3585  0100F0  ECC0  F098         	call	_printf	;wreg free
  3586  0100F4                     l4867:
  3587                           
  3588                           ;MAX17320.c: 293:     if(!MAX17320_read_word(0x00b,&data)){printf("Config    =%04x\n",da
      +                          ta);}
  3589  0100F4  0E00               	movlw	0
  3590  0100F6  6E08               	movwf	(MAX17320_read_word@address+1)^0,c
  3591  0100F8  0E0B               	movlw	11
  3592  0100FA  6E07               	movwf	MAX17320_read_word@address^0,c
  3593  0100FC  0E5D               	movlw	low MAX17320_dump@data
  3594  0100FE  6E09               	movwf	MAX17320_read_word@data^0,c
  3595  010100  0E00               	movlw	high MAX17320_dump@data
  3596  010102  6E0A               	movwf	(MAX17320_read_word@data+1)^0,c
  3597  010104  EC43  F097         	call	_MAX17320_read_word	;wreg free
  3598  010108  0900               	iorlw	0
  3599  01010A  A4D8               	btfss	status,2,c
  3600  01010C  EF8A  F080         	goto	u3621
  3601  010110  EF8C  F080         	goto	u3620
  3602  010114                     u3621:
  3603  010114  EF96  F080         	goto	l4871
  3604  010118                     u3620:
  3605  010118  0EA5               	movlw	low (STR_32+1)
  3606  01011A  6E57               	movwf	printf@fmt^0,c
  3607  01011C  0EFE               	movlw	high (STR_32+1)
  3608  01011E  6E58               	movwf	(printf@fmt+1)^0,c
  3609  010120  C05D  F059         	movff	MAX17320_dump@data,?_printf+2
  3610  010124  C05E  F05A         	movff	MAX17320_dump@data+1,?_printf+3
  3611  010128  ECC0  F098         	call	_printf	;wreg free
  3612  01012C                     l4871:
  3613                           
  3614                           ;MAX17320.c: 294:     if(!MAX17320_read_word(0x0ab,&data)){printf("Config2   =%04x\n",da
      +                          ta);}
  3615  01012C  0E00               	movlw	0
  3616  01012E  6E08               	movwf	(MAX17320_read_word@address+1)^0,c
  3617  010130  0EAB               	movlw	171
  3618  010132  6E07               	movwf	MAX17320_read_word@address^0,c
  3619  010134  0E5D               	movlw	low MAX17320_dump@data
  3620  010136  6E09               	movwf	MAX17320_read_word@data^0,c
  3621  010138  0E00               	movlw	high MAX17320_dump@data
  3622  01013A  6E0A               	movwf	(MAX17320_read_word@data+1)^0,c
  3623  01013C  EC43  F097         	call	_MAX17320_read_word	;wreg free
  3624  010140  0900               	iorlw	0
  3625  010142  A4D8               	btfss	status,2,c
  3626  010144  EFA6  F080         	goto	u3631
  3627  010148  EFA8  F080         	goto	u3630
  3628  01014C                     u3631:
  3629  01014C  EFB2  F080         	goto	l4875
  3630  010150                     u3630:
  3631  010150  0E7B               	movlw	low STR_8
  3632  010152  6E57               	movwf	printf@fmt^0,c
  3633  010154  0EFF               	movlw	high STR_8
  3634  010156  6E58               	movwf	(printf@fmt+1)^0,c
  3635  010158  C05D  F059         	movff	MAX17320_dump@data,?_printf+2
  3636  01015C  C05E  F05A         	movff	MAX17320_dump@data+1,?_printf+3
  3637  010160  ECC0  F098         	call	_printf	;wreg free
  3638  010164                     l4875:
  3639                           
  3640                           ;MAX17320.c: 295:     if(!MAX17320_read_word(0x0a0,&data)){printf("RelaxCfg  =%04x\n",da
      +                          ta);}
  3641  010164  0E00               	movlw	0
  3642  010166  6E08               	movwf	(MAX17320_read_word@address+1)^0,c
  3643  010168  0EA0               	movlw	160
  3644  01016A  6E07               	movwf	MAX17320_read_word@address^0,c
  3645  01016C  0E5D               	movlw	low MAX17320_dump@data
  3646  01016E  6E09               	movwf	MAX17320_read_word@data^0,c
  3647  010170  0E00               	movlw	high MAX17320_dump@data
  3648  010172  6E0A               	movwf	(MAX17320_read_word@data+1)^0,c
  3649  010174  EC43  F097         	call	_MAX17320_read_word	;wreg free
  3650  010178  0900               	iorlw	0
  3651  01017A  A4D8               	btfss	status,2,c
  3652  01017C  EFC2  F080         	goto	u3641
  3653  010180  EFC4  F080         	goto	u3640
  3654  010184                     u3641:
  3655  010184  EFCE  F080         	goto	l4879
  3656  010188                     u3640:
  3657  010188  0E47               	movlw	low (STR_33+1)
  3658  01018A  6E57               	movwf	printf@fmt^0,c
  3659  01018C  0EFF               	movlw	high (STR_33+1)
  3660  01018E  6E58               	movwf	(printf@fmt+1)^0,c
  3661  010190  C05D  F059         	movff	MAX17320_dump@data,?_printf+2
  3662  010194  C05E  F05A         	movff	MAX17320_dump@data+1,?_printf+3
  3663  010198  ECC0  F098         	call	_printf	;wreg free
  3664  01019C                     l4879:
  3665                           
  3666                           ;MAX17320.c: 296:     if(!MAX17320_read_word(0x005,&data)){printf("RepCap    =%04x  %5d[
      +                          mAh]\n",data,data);}
  3667  01019C  0E00               	movlw	0
  3668  01019E  6E08               	movwf	(MAX17320_read_word@address+1)^0,c
  3669  0101A0  0E05               	movlw	5
  3670  0101A2  6E07               	movwf	MAX17320_read_word@address^0,c
  3671  0101A4  0E5D               	movlw	low MAX17320_dump@data
  3672  0101A6  6E09               	movwf	MAX17320_read_word@data^0,c
  3673  0101A8  0E00               	movlw	high MAX17320_dump@data
  3674  0101AA  6E0A               	movwf	(MAX17320_read_word@data+1)^0,c
  3675  0101AC  EC43  F097         	call	_MAX17320_read_word	;wreg free
  3676  0101B0  0900               	iorlw	0
  3677  0101B2  A4D8               	btfss	status,2,c
  3678  0101B4  EFDE  F080         	goto	u3651
  3679  0101B8  EFE0  F080         	goto	u3650
  3680  0101BC                     u3651:
  3681  0101BC  EFEE  F080         	goto	l4883
  3682  0101C0                     u3650:
  3683  0101C0  0ECF               	movlw	low STR_10
  3684  0101C2  6E57               	movwf	printf@fmt^0,c
  3685  0101C4  0EFC               	movlw	high STR_10
  3686  0101C6  6E58               	movwf	(printf@fmt+1)^0,c
  3687  0101C8  C05D  F059         	movff	MAX17320_dump@data,?_printf+2
  3688  0101CC  C05E  F05A         	movff	MAX17320_dump@data+1,?_printf+3
  3689  0101D0  C05D  F05B         	movff	MAX17320_dump@data,?_printf+4
  3690  0101D4  C05E  F05C         	movff	MAX17320_dump@data+1,?_printf+5
  3691  0101D8  ECC0  F098         	call	_printf	;wreg free
  3692  0101DC                     l4883:
  3693                           
  3694                           ;MAX17320.c: 297:     if(!MAX17320_read_word(0x018,&data)){printf("DesignCap =%04x  %5d[
      +                          mAh]\n",data,data);}
  3695  0101DC  0E00               	movlw	0
  3696  0101DE  6E08               	movwf	(MAX17320_read_word@address+1)^0,c
  3697  0101E0  0E18               	movlw	24
  3698  0101E2  6E07               	movwf	MAX17320_read_word@address^0,c
  3699  0101E4  0E5D               	movlw	low MAX17320_dump@data
  3700  0101E6  6E09               	movwf	MAX17320_read_word@data^0,c
  3701  0101E8  0E00               	movlw	high MAX17320_dump@data
  3702  0101EA  6E0A               	movwf	(MAX17320_read_word@data+1)^0,c
  3703  0101EC  EC43  F097         	call	_MAX17320_read_word	;wreg free
  3704  0101F0  0900               	iorlw	0
  3705  0101F2  A4D8               	btfss	status,2,c
  3706  0101F4  EFFE  F080         	goto	u3661
  3707  0101F8  EF00  F081         	goto	u3660
  3708  0101FC                     u3661:
  3709  0101FC  EF0E  F081         	goto	l4887
  3710  010200                     u3660:
  3711  010200  0E7C               	movlw	low (STR_30+1)
  3712  010202  6E57               	movwf	printf@fmt^0,c
  3713  010204  0EFC               	movlw	high (STR_30+1)
  3714  010206  6E58               	movwf	(printf@fmt+1)^0,c
  3715  010208  C05D  F059         	movff	MAX17320_dump@data,?_printf+2
  3716  01020C  C05E  F05A         	movff	MAX17320_dump@data+1,?_printf+3
  3717  010210  C05D  F05B         	movff	MAX17320_dump@data,?_printf+4
  3718  010214  C05E  F05C         	movff	MAX17320_dump@data+1,?_printf+5
  3719  010218  ECC0  F098         	call	_printf	;wreg free
  3720  01021C                     l4887:
  3721                           
  3722                           ;MAX17320.c: 298:     if(!MAX17320_read_word(0x006,&data)){printf("RepSOC    =%04x  %3d[
      +                          %%]\n",data,data>>8);}
  3723  01021C  0E00               	movlw	0
  3724  01021E  6E08               	movwf	(MAX17320_read_word@address+1)^0,c
  3725  010220  0E06               	movlw	6
  3726  010222  6E07               	movwf	MAX17320_read_word@address^0,c
  3727  010224  0E5D               	movlw	low MAX17320_dump@data
  3728  010226  6E09               	movwf	MAX17320_read_word@data^0,c
  3729  010228  0E00               	movlw	high MAX17320_dump@data
  3730  01022A  6E0A               	movwf	(MAX17320_read_word@data+1)^0,c
  3731  01022C  EC43  F097         	call	_MAX17320_read_word	;wreg free
  3732  010230  0900               	iorlw	0
  3733  010232  A4D8               	btfss	status,2,c
  3734  010234  EF1E  F081         	goto	u3671
  3735  010238  EF20  F081         	goto	u3670
  3736  01023C                     u3671:
  3737  01023C  EF2D  F081         	goto	l4891
  3738  010240                     u3670:
  3739  010240  0E04               	movlw	low STR_12
  3740  010242  6E57               	movwf	printf@fmt^0,c
  3741  010244  0EFD               	movlw	high STR_12
  3742  010246  6E58               	movwf	(printf@fmt+1)^0,c
  3743  010248  C05D  F059         	movff	MAX17320_dump@data,?_printf+2
  3744  01024C  C05E  F05A         	movff	MAX17320_dump@data+1,?_printf+3
  3745  010250  505E               	movf	(MAX17320_dump@data+1)^0,w,c
  3746  010252  6E5B               	movwf	(?_printf+4)^0,c
  3747  010254  6A5C               	clrf	(?_printf+5)^0,c
  3748  010256  ECC0  F098         	call	_printf	;wreg free
  3749  01025A                     l4891:
  3750                           
  3751                           ;MAX17320.c: 299:     if(!MAX17320_read_word(0x00e,&data)){printf("AvSOC     =%04x  %3d[
      +                          %%]\n",data,data>>8);}
  3752  01025A  0E00               	movlw	0
  3753  01025C  6E08               	movwf	(MAX17320_read_word@address+1)^0,c
  3754  01025E  0E0E               	movlw	14
  3755  010260  6E07               	movwf	MAX17320_read_word@address^0,c
  3756  010262  0E5D               	movlw	low MAX17320_dump@data
  3757  010264  6E09               	movwf	MAX17320_read_word@data^0,c
  3758  010266  0E00               	movlw	high MAX17320_dump@data
  3759  010268  6E0A               	movwf	(MAX17320_read_word@data+1)^0,c
  3760  01026A  EC43  F097         	call	_MAX17320_read_word	;wreg free
  3761  01026E  0900               	iorlw	0
  3762  010270  A4D8               	btfss	status,2,c
  3763  010272  EF3D  F081         	goto	u3681
  3764  010276  EF3F  F081         	goto	u3680
  3765  01027A                     u3681:
  3766  01027A  EF4C  F081         	goto	l4895
  3767  01027E                     u3680:
  3768  01027E  0EEA               	movlw	low STR_13
  3769  010280  6E57               	movwf	printf@fmt^0,c
  3770  010282  0EFC               	movlw	high STR_13
  3771  010284  6E58               	movwf	(printf@fmt+1)^0,c
  3772  010286  C05D  F059         	movff	MAX17320_dump@data,?_printf+2
  3773  01028A  C05E  F05A         	movff	MAX17320_dump@data+1,?_printf+3
  3774  01028E  505E               	movf	(MAX17320_dump@data+1)^0,w,c
  3775  010290  6E5B               	movwf	(?_printf+4)^0,c
  3776  010292  6A5C               	clrf	(?_printf+5)^0,c
  3777  010294  ECC0  F098         	call	_printf	;wreg free
  3778  010298                     l4895:
  3779                           
  3780                           ;MAX17320.c: 300:     if(!MAX17320_read_word(0x0d8,&data)){printf("CELL1     =%04x  %5d[
      +                          mV]\n",data,(int)(data*0.078125));}
  3781  010298  0E00               	movlw	0
  3782  01029A  6E08               	movwf	(MAX17320_read_word@address+1)^0,c
  3783  01029C  0ED8               	movlw	216
  3784  01029E  6E07               	movwf	MAX17320_read_word@address^0,c
  3785  0102A0  0E5D               	movlw	low MAX17320_dump@data
  3786  0102A2  6E09               	movwf	MAX17320_read_word@data^0,c
  3787  0102A4  0E00               	movlw	high MAX17320_dump@data
  3788  0102A6  6E0A               	movwf	(MAX17320_read_word@data+1)^0,c
  3789  0102A8  EC43  F097         	call	_MAX17320_read_word	;wreg free
  3790  0102AC  0900               	iorlw	0
  3791  0102AE  A4D8               	btfss	status,2,c
  3792  0102B0  EF5C  F081         	goto	u3691
  3793  0102B4  EF5E  F081         	goto	u3690
  3794  0102B8                     u3691:
  3795  0102B8  EF91  F081         	goto	l4899
  3796  0102BC                     u3690:
  3797  0102BC  0E86               	movlw	low STR_14
  3798  0102BE  6E57               	movwf	printf@fmt^0,c
  3799  0102C0  0EFD               	movlw	high STR_14
  3800  0102C2  6E58               	movwf	(printf@fmt+1)^0,c
  3801  0102C4  C05D  F059         	movff	MAX17320_dump@data,?_printf+2
  3802  0102C8  C05E  F05A         	movff	MAX17320_dump@data+1,?_printf+3
  3803  0102CC  0E00               	movlw	0
  3804  0102CE  6E13               	movwf	___flmul@a^0,c
  3805  0102D0  0E00               	movlw	0
  3806  0102D2  6E14               	movwf	(___flmul@a+1)^0,c
  3807  0102D4  0EA0               	movlw	160
  3808  0102D6  6E15               	movwf	(___flmul@a+2)^0,c
  3809  0102D8  0E3D               	movlw	61
  3810  0102DA  6E16               	movwf	(___flmul@a+3)^0,c
  3811  0102DC  C05D  F001         	movff	MAX17320_dump@data,___xxtofl@val
  3812  0102E0  C05E  F002         	movff	MAX17320_dump@data+1,___xxtofl@val+1
  3813  0102E4  6A03               	clrf	(___xxtofl@val+2)^0,c
  3814  0102E6  6A04               	clrf	(___xxtofl@val+3)^0,c
  3815  0102E8  0E00               	movlw	0
  3816  0102EA  EC4B  F090         	call	___xxtofl
  3817  0102EE  C001  F00F         	movff	?___xxtofl,___flmul@b
  3818  0102F2  C002  F010         	movff	?___xxtofl+1,___flmul@b+1
  3819  0102F6  C003  F011         	movff	?___xxtofl+2,___flmul@b+2
  3820  0102FA  C004  F012         	movff	?___xxtofl+3,___flmul@b+3
  3821  0102FE  EC78  F088         	call	___flmul	;wreg free
  3822  010302  C00F  F028         	movff	?___flmul,___fltol@f1
  3823  010306  C010  F029         	movff	?___flmul+1,___fltol@f1+1
  3824  01030A  C011  F02A         	movff	?___flmul+2,___fltol@f1+2
  3825  01030E  C012  F02B         	movff	?___flmul+3,___fltol@f1+3
  3826  010312  EC1D  F094         	call	___fltol	;wreg free
  3827  010316  C028  F05B         	movff	?___fltol,?_printf+4
  3828  01031A  C029  F05C         	movff	?___fltol+1,?_printf+5
  3829  01031E  ECC0  F098         	call	_printf	;wreg free
  3830  010322                     l4899:
  3831                           
  3832                           ;MAX17320.c: 301:     if(!MAX17320_read_word(0x0d7,&data)){printf("CELL2     =%04x  %5d[
      +                          mV]\n",data,(int)(data*0.078125));}
  3833  010322  0E00               	movlw	0
  3834  010324  6E08               	movwf	(MAX17320_read_word@address+1)^0,c
  3835  010326  0ED7               	movlw	215
  3836  010328  6E07               	movwf	MAX17320_read_word@address^0,c
  3837  01032A  0E5D               	movlw	low MAX17320_dump@data
  3838  01032C  6E09               	movwf	MAX17320_read_word@data^0,c
  3839  01032E  0E00               	movlw	high MAX17320_dump@data
  3840  010330  6E0A               	movwf	(MAX17320_read_word@data+1)^0,c
  3841  010332  EC43  F097         	call	_MAX17320_read_word	;wreg free
  3842  010336  0900               	iorlw	0
  3843  010338  A4D8               	btfss	status,2,c
  3844  01033A  EFA1  F081         	goto	u3701
  3845  01033E  EFA3  F081         	goto	u3700
  3846  010342                     u3701:
  3847  010342  EFD6  F081         	goto	l4903
  3848  010346                     u3700:
  3849  010346  0EA0               	movlw	low STR_15
  3850  010348  6E57               	movwf	printf@fmt^0,c
  3851  01034A  0EFD               	movlw	high STR_15
  3852  01034C  6E58               	movwf	(printf@fmt+1)^0,c
  3853  01034E  C05D  F059         	movff	MAX17320_dump@data,?_printf+2
  3854  010352  C05E  F05A         	movff	MAX17320_dump@data+1,?_printf+3
  3855  010356  0E00               	movlw	0
  3856  010358  6E13               	movwf	___flmul@a^0,c
  3857  01035A  0E00               	movlw	0
  3858  01035C  6E14               	movwf	(___flmul@a+1)^0,c
  3859  01035E  0EA0               	movlw	160
  3860  010360  6E15               	movwf	(___flmul@a+2)^0,c
  3861  010362  0E3D               	movlw	61
  3862  010364  6E16               	movwf	(___flmul@a+3)^0,c
  3863  010366  C05D  F001         	movff	MAX17320_dump@data,___xxtofl@val
  3864  01036A  C05E  F002         	movff	MAX17320_dump@data+1,___xxtofl@val+1
  3865  01036E  6A03               	clrf	(___xxtofl@val+2)^0,c
  3866  010370  6A04               	clrf	(___xxtofl@val+3)^0,c
  3867  010372  0E00               	movlw	0
  3868  010374  EC4B  F090         	call	___xxtofl
  3869  010378  C001  F00F         	movff	?___xxtofl,___flmul@b
  3870  01037C  C002  F010         	movff	?___xxtofl+1,___flmul@b+1
  3871  010380  C003  F011         	movff	?___xxtofl+2,___flmul@b+2
  3872  010384  C004  F012         	movff	?___xxtofl+3,___flmul@b+3
  3873  010388  EC78  F088         	call	___flmul	;wreg free
  3874  01038C  C00F  F028         	movff	?___flmul,___fltol@f1
  3875  010390  C010  F029         	movff	?___flmul+1,___fltol@f1+1
  3876  010394  C011  F02A         	movff	?___flmul+2,___fltol@f1+2
  3877  010398  C012  F02B         	movff	?___flmul+3,___fltol@f1+3
  3878  01039C  EC1D  F094         	call	___fltol	;wreg free
  3879  0103A0  C028  F05B         	movff	?___fltol,?_printf+4
  3880  0103A4  C029  F05C         	movff	?___fltol+1,?_printf+5
  3881  0103A8  ECC0  F098         	call	_printf	;wreg free
  3882  0103AC                     l4903:
  3883                           
  3884                           ;MAX17320.c: 302:     if(!MAX17320_read_word(0x0d6,&data)){printf("CELL3     =%04x  %5d[
      +                          mV]\n",data,(int)(data*0.078125));}
  3885  0103AC  0E00               	movlw	0
  3886  0103AE  6E08               	movwf	(MAX17320_read_word@address+1)^0,c
  3887  0103B0  0ED6               	movlw	214
  3888  0103B2  6E07               	movwf	MAX17320_read_word@address^0,c
  3889  0103B4  0E5D               	movlw	low MAX17320_dump@data
  3890  0103B6  6E09               	movwf	MAX17320_read_word@data^0,c
  3891  0103B8  0E00               	movlw	high MAX17320_dump@data
  3892  0103BA  6E0A               	movwf	(MAX17320_read_word@data+1)^0,c
  3893  0103BC  EC43  F097         	call	_MAX17320_read_word	;wreg free
  3894  0103C0  0900               	iorlw	0
  3895  0103C2  A4D8               	btfss	status,2,c
  3896  0103C4  EFE6  F081         	goto	u3711
  3897  0103C8  EFE8  F081         	goto	u3710
  3898  0103CC                     u3711:
  3899  0103CC  EF1B  F082         	goto	l4907
  3900  0103D0                     u3710:
  3901  0103D0  0EBA               	movlw	low STR_16
  3902  0103D2  6E57               	movwf	printf@fmt^0,c
  3903  0103D4  0EFD               	movlw	high STR_16
  3904  0103D6  6E58               	movwf	(printf@fmt+1)^0,c
  3905  0103D8  C05D  F059         	movff	MAX17320_dump@data,?_printf+2
  3906  0103DC  C05E  F05A         	movff	MAX17320_dump@data+1,?_printf+3
  3907  0103E0  0E00               	movlw	0
  3908  0103E2  6E13               	movwf	___flmul@a^0,c
  3909  0103E4  0E00               	movlw	0
  3910  0103E6  6E14               	movwf	(___flmul@a+1)^0,c
  3911  0103E8  0EA0               	movlw	160
  3912  0103EA  6E15               	movwf	(___flmul@a+2)^0,c
  3913  0103EC  0E3D               	movlw	61
  3914  0103EE  6E16               	movwf	(___flmul@a+3)^0,c
  3915  0103F0  C05D  F001         	movff	MAX17320_dump@data,___xxtofl@val
  3916  0103F4  C05E  F002         	movff	MAX17320_dump@data+1,___xxtofl@val+1
  3917  0103F8  6A03               	clrf	(___xxtofl@val+2)^0,c
  3918  0103FA  6A04               	clrf	(___xxtofl@val+3)^0,c
  3919  0103FC  0E00               	movlw	0
  3920  0103FE  EC4B  F090         	call	___xxtofl
  3921  010402  C001  F00F         	movff	?___xxtofl,___flmul@b
  3922  010406  C002  F010         	movff	?___xxtofl+1,___flmul@b+1
  3923  01040A  C003  F011         	movff	?___xxtofl+2,___flmul@b+2
  3924  01040E  C004  F012         	movff	?___xxtofl+3,___flmul@b+3
  3925  010412  EC78  F088         	call	___flmul	;wreg free
  3926  010416  C00F  F028         	movff	?___flmul,___fltol@f1
  3927  01041A  C010  F029         	movff	?___flmul+1,___fltol@f1+1
  3928  01041E  C011  F02A         	movff	?___flmul+2,___fltol@f1+2
  3929  010422  C012  F02B         	movff	?___flmul+3,___fltol@f1+3
  3930  010426  EC1D  F094         	call	___fltol	;wreg free
  3931  01042A  C028  F05B         	movff	?___fltol,?_printf+4
  3932  01042E  C029  F05C         	movff	?___fltol+1,?_printf+5
  3933  010432  ECC0  F098         	call	_printf	;wreg free
  3934  010436                     l4907:
  3935                           
  3936                           ;MAX17320.c: 303:     if(!MAX17320_read_word(0x0d5,&data)){printf("CELL4     =%04x  %5d[
      +                          mV]\n",data,(int)(data*0.078125));}
  3937  010436  0E00               	movlw	0
  3938  010438  6E08               	movwf	(MAX17320_read_word@address+1)^0,c
  3939  01043A  0ED5               	movlw	213
  3940  01043C  6E07               	movwf	MAX17320_read_word@address^0,c
  3941  01043E  0E5D               	movlw	low MAX17320_dump@data
  3942  010440  6E09               	movwf	MAX17320_read_word@data^0,c
  3943  010442  0E00               	movlw	high MAX17320_dump@data
  3944  010444  6E0A               	movwf	(MAX17320_read_word@data+1)^0,c
  3945  010446  EC43  F097         	call	_MAX17320_read_word	;wreg free
  3946  01044A  0900               	iorlw	0
  3947  01044C  A4D8               	btfss	status,2,c
  3948  01044E  EF2B  F082         	goto	u3721
  3949  010452  EF2D  F082         	goto	u3720
  3950  010456                     u3721:
  3951  010456  EF60  F082         	goto	l4911
  3952  01045A                     u3720:
  3953  01045A  0ED4               	movlw	low STR_17
  3954  01045C  6E57               	movwf	printf@fmt^0,c
  3955  01045E  0EFD               	movlw	high STR_17
  3956  010460  6E58               	movwf	(printf@fmt+1)^0,c
  3957  010462  C05D  F059         	movff	MAX17320_dump@data,?_printf+2
  3958  010466  C05E  F05A         	movff	MAX17320_dump@data+1,?_printf+3
  3959  01046A  0E00               	movlw	0
  3960  01046C  6E13               	movwf	___flmul@a^0,c
  3961  01046E  0E00               	movlw	0
  3962  010470  6E14               	movwf	(___flmul@a+1)^0,c
  3963  010472  0EA0               	movlw	160
  3964  010474  6E15               	movwf	(___flmul@a+2)^0,c
  3965  010476  0E3D               	movlw	61
  3966  010478  6E16               	movwf	(___flmul@a+3)^0,c
  3967  01047A  C05D  F001         	movff	MAX17320_dump@data,___xxtofl@val
  3968  01047E  C05E  F002         	movff	MAX17320_dump@data+1,___xxtofl@val+1
  3969  010482  6A03               	clrf	(___xxtofl@val+2)^0,c
  3970  010484  6A04               	clrf	(___xxtofl@val+3)^0,c
  3971  010486  0E00               	movlw	0
  3972  010488  EC4B  F090         	call	___xxtofl
  3973  01048C  C001  F00F         	movff	?___xxtofl,___flmul@b
  3974  010490  C002  F010         	movff	?___xxtofl+1,___flmul@b+1
  3975  010494  C003  F011         	movff	?___xxtofl+2,___flmul@b+2
  3976  010498  C004  F012         	movff	?___xxtofl+3,___flmul@b+3
  3977  01049C  EC78  F088         	call	___flmul	;wreg free
  3978  0104A0  C00F  F028         	movff	?___flmul,___fltol@f1
  3979  0104A4  C010  F029         	movff	?___flmul+1,___fltol@f1+1
  3980  0104A8  C011  F02A         	movff	?___flmul+2,___fltol@f1+2
  3981  0104AC  C012  F02B         	movff	?___flmul+3,___fltol@f1+3
  3982  0104B0  EC1D  F094         	call	___fltol	;wreg free
  3983  0104B4  C028  F05B         	movff	?___fltol,?_printf+4
  3984  0104B8  C029  F05C         	movff	?___fltol+1,?_printf+5
  3985  0104BC  ECC0  F098         	call	_printf	;wreg free
  3986  0104C0                     l4911:
  3987                           
  3988                           ;MAX17320.c: 304:     if(!MAX17320_read_word(0x0da,&data)){printf("Batt      =%04x  %5d[
      +                          mV]\n",data,(int)(data*0.3125));}
  3989  0104C0  0E00               	movlw	0
  3990  0104C2  6E08               	movwf	(MAX17320_read_word@address+1)^0,c
  3991  0104C4  0EDA               	movlw	218
  3992  0104C6  6E07               	movwf	MAX17320_read_word@address^0,c
  3993  0104C8  0E5D               	movlw	low MAX17320_dump@data
  3994  0104CA  6E09               	movwf	MAX17320_read_word@data^0,c
  3995  0104CC  0E00               	movlw	high MAX17320_dump@data
  3996  0104CE  6E0A               	movwf	(MAX17320_read_word@data+1)^0,c
  3997  0104D0  EC43  F097         	call	_MAX17320_read_word	;wreg free
  3998  0104D4  0900               	iorlw	0
  3999  0104D6  A4D8               	btfss	status,2,c
  4000  0104D8  EF70  F082         	goto	u3731
  4001  0104DC  EF72  F082         	goto	u3730
  4002  0104E0                     u3731:
  4003  0104E0  EFA5  F082         	goto	l4915
  4004  0104E4                     u3730:
  4005  0104E4  0E6C               	movlw	low STR_18
  4006  0104E6  6E57               	movwf	printf@fmt^0,c
  4007  0104E8  0EFD               	movlw	high STR_18
  4008  0104EA  6E58               	movwf	(printf@fmt+1)^0,c
  4009  0104EC  C05D  F059         	movff	MAX17320_dump@data,?_printf+2
  4010  0104F0  C05E  F05A         	movff	MAX17320_dump@data+1,?_printf+3
  4011  0104F4  0E00               	movlw	0
  4012  0104F6  6E13               	movwf	___flmul@a^0,c
  4013  0104F8  0E00               	movlw	0
  4014  0104FA  6E14               	movwf	(___flmul@a+1)^0,c
  4015  0104FC  0EA0               	movlw	160
  4016  0104FE  6E15               	movwf	(___flmul@a+2)^0,c
  4017  010500  0E3E               	movlw	62
  4018  010502  6E16               	movwf	(___flmul@a+3)^0,c
  4019  010504  C05D  F001         	movff	MAX17320_dump@data,___xxtofl@val
  4020  010508  C05E  F002         	movff	MAX17320_dump@data+1,___xxtofl@val+1
  4021  01050C  6A03               	clrf	(___xxtofl@val+2)^0,c
  4022  01050E  6A04               	clrf	(___xxtofl@val+3)^0,c
  4023  010510  0E00               	movlw	0
  4024  010512  EC4B  F090         	call	___xxtofl
  4025  010516  C001  F00F         	movff	?___xxtofl,___flmul@b
  4026  01051A  C002  F010         	movff	?___xxtofl+1,___flmul@b+1
  4027  01051E  C003  F011         	movff	?___xxtofl+2,___flmul@b+2
  4028  010522  C004  F012         	movff	?___xxtofl+3,___flmul@b+3
  4029  010526  EC78  F088         	call	___flmul	;wreg free
  4030  01052A  C00F  F028         	movff	?___flmul,___fltol@f1
  4031  01052E  C010  F029         	movff	?___flmul+1,___fltol@f1+1
  4032  010532  C011  F02A         	movff	?___flmul+2,___fltol@f1+2
  4033  010536  C012  F02B         	movff	?___flmul+3,___fltol@f1+3
  4034  01053A  EC1D  F094         	call	___fltol	;wreg free
  4035  01053E  C028  F05B         	movff	?___fltol,?_printf+4
  4036  010542  C029  F05C         	movff	?___fltol+1,?_printf+5
  4037  010546  ECC0  F098         	call	_printf	;wreg free
  4038  01054A                     l4915:
  4039                           
  4040                           ;MAX17320.c: 305:     if(!MAX17320_read_word(0x0db,&data)){printf("PCKP      =%04x  %5d[
      +                          mV]\n",data,(int)(data*0.3125));}
  4041  01054A  0E00               	movlw	0
  4042  01054C  6E08               	movwf	(MAX17320_read_word@address+1)^0,c
  4043  01054E  0EDB               	movlw	219
  4044  010550  6E07               	movwf	MAX17320_read_word@address^0,c
  4045  010552  0E5D               	movlw	low MAX17320_dump@data
  4046  010554  6E09               	movwf	MAX17320_read_word@data^0,c
  4047  010556  0E00               	movlw	high MAX17320_dump@data
  4048  010558  6E0A               	movwf	(MAX17320_read_word@data+1)^0,c
  4049  01055A  EC43  F097         	call	_MAX17320_read_word	;wreg free
  4050  01055E  0900               	iorlw	0
  4051  010560  A4D8               	btfss	status,2,c
  4052  010562  EFB5  F082         	goto	u3741
  4053  010566  EFB7  F082         	goto	u3740
  4054  01056A                     u3741:
  4055  01056A  EFEA  F082         	goto	l4919
  4056  01056E                     u3740:
  4057  01056E  0E52               	movlw	low STR_19
  4058  010570  6E57               	movwf	printf@fmt^0,c
  4059  010572  0EFD               	movlw	high STR_19
  4060  010574  6E58               	movwf	(printf@fmt+1)^0,c
  4061  010576  C05D  F059         	movff	MAX17320_dump@data,?_printf+2
  4062  01057A  C05E  F05A         	movff	MAX17320_dump@data+1,?_printf+3
  4063  01057E  0E00               	movlw	0
  4064  010580  6E13               	movwf	___flmul@a^0,c
  4065  010582  0E00               	movlw	0
  4066  010584  6E14               	movwf	(___flmul@a+1)^0,c
  4067  010586  0EA0               	movlw	160
  4068  010588  6E15               	movwf	(___flmul@a+2)^0,c
  4069  01058A  0E3E               	movlw	62
  4070  01058C  6E16               	movwf	(___flmul@a+3)^0,c
  4071  01058E  C05D  F001         	movff	MAX17320_dump@data,___xxtofl@val
  4072  010592  C05E  F002         	movff	MAX17320_dump@data+1,___xxtofl@val+1
  4073  010596  6A03               	clrf	(___xxtofl@val+2)^0,c
  4074  010598  6A04               	clrf	(___xxtofl@val+3)^0,c
  4075  01059A  0E00               	movlw	0
  4076  01059C  EC4B  F090         	call	___xxtofl
  4077  0105A0  C001  F00F         	movff	?___xxtofl,___flmul@b
  4078  0105A4  C002  F010         	movff	?___xxtofl+1,___flmul@b+1
  4079  0105A8  C003  F011         	movff	?___xxtofl+2,___flmul@b+2
  4080  0105AC  C004  F012         	movff	?___xxtofl+3,___flmul@b+3
  4081  0105B0  EC78  F088         	call	___flmul	;wreg free
  4082  0105B4  C00F  F028         	movff	?___flmul,___fltol@f1
  4083  0105B8  C010  F029         	movff	?___flmul+1,___fltol@f1+1
  4084  0105BC  C011  F02A         	movff	?___flmul+2,___fltol@f1+2
  4085  0105C0  C012  F02B         	movff	?___flmul+3,___fltol@f1+3
  4086  0105C4  EC1D  F094         	call	___fltol	;wreg free
  4087  0105C8  C028  F05B         	movff	?___fltol,?_printf+4
  4088  0105CC  C029  F05C         	movff	?___fltol+1,?_printf+5
  4089  0105D0  ECC0  F098         	call	_printf	;wreg free
  4090  0105D4                     l4919:
  4091                           
  4092                           ;MAX17320.c: 306:     if(!MAX17320_read_word(0x01b,&data)){printf("Temp      =%04x  %3d[
      +                          degC]\n",data,data>>8);}
  4093  0105D4  0E00               	movlw	0
  4094  0105D6  6E08               	movwf	(MAX17320_read_word@address+1)^0,c
  4095  0105D8  0E1B               	movlw	27
  4096  0105DA  6E07               	movwf	MAX17320_read_word@address^0,c
  4097  0105DC  0E5D               	movlw	low MAX17320_dump@data
  4098  0105DE  6E09               	movwf	MAX17320_read_word@data^0,c
  4099  0105E0  0E00               	movlw	high MAX17320_dump@data
  4100  0105E2  6E0A               	movwf	(MAX17320_read_word@data+1)^0,c
  4101  0105E4  EC43  F097         	call	_MAX17320_read_word	;wreg free
  4102  0105E8  0900               	iorlw	0
  4103  0105EA  A4D8               	btfss	status,2,c
  4104  0105EC  EFFA  F082         	goto	u3751
  4105  0105F0  EFFC  F082         	goto	u3750
  4106  0105F4                     u3751:
  4107  0105F4  EF09  F083         	goto	l4923
  4108  0105F8                     u3750:
  4109  0105F8  0E5F               	movlw	low STR_20
  4110  0105FA  6E57               	movwf	printf@fmt^0,c
  4111  0105FC  0EFC               	movlw	high STR_20
  4112  0105FE  6E58               	movwf	(printf@fmt+1)^0,c
  4113  010600  C05D  F059         	movff	MAX17320_dump@data,?_printf+2
  4114  010604  C05E  F05A         	movff	MAX17320_dump@data+1,?_printf+3
  4115  010608  505E               	movf	(MAX17320_dump@data+1)^0,w,c
  4116  01060A  6E5B               	movwf	(?_printf+4)^0,c
  4117  01060C  6A5C               	clrf	(?_printf+5)^0,c
  4118  01060E  ECC0  F098         	call	_printf	;wreg free
  4119  010612                     l4923:
  4120                           
  4121                           ;MAX17320.c: 307:     if(!MAX17320_read_word(0x01c,&data)){printf("Current   =%04x  %5d[
      +                          mA]\n",data,(signed int)((signed int)data*0.3125));}
  4122  010612  0E00               	movlw	0
  4123  010614  6E08               	movwf	(MAX17320_read_word@address+1)^0,c
  4124  010616  0E1C               	movlw	28
  4125  010618  6E07               	movwf	MAX17320_read_word@address^0,c
  4126  01061A  0E5D               	movlw	low MAX17320_dump@data
  4127  01061C  6E09               	movwf	MAX17320_read_word@data^0,c
  4128  01061E  0E00               	movlw	high MAX17320_dump@data
  4129  010620  6E0A               	movwf	(MAX17320_read_word@data+1)^0,c
  4130  010622  EC43  F097         	call	_MAX17320_read_word	;wreg free
  4131  010626  0900               	iorlw	0
  4132  010628  A4D8               	btfss	status,2,c
  4133  01062A  EF19  F083         	goto	u3761
  4134  01062E  EF1B  F083         	goto	u3760
  4135  010632                     u3761:
  4136  010632  EF51  F083         	goto	l4927
  4137  010636                     u3760:
  4138  010636  0E1E               	movlw	low STR_21
  4139  010638  6E57               	movwf	printf@fmt^0,c
  4140  01063A  0EFD               	movlw	high STR_21
  4141  01063C  6E58               	movwf	(printf@fmt+1)^0,c
  4142  01063E  C05D  F059         	movff	MAX17320_dump@data,?_printf+2
  4143  010642  C05E  F05A         	movff	MAX17320_dump@data+1,?_printf+3
  4144  010646  0E00               	movlw	0
  4145  010648  6E13               	movwf	___flmul@a^0,c
  4146  01064A  0E00               	movlw	0
  4147  01064C  6E14               	movwf	(___flmul@a+1)^0,c
  4148  01064E  0EA0               	movlw	160
  4149  010650  6E15               	movwf	(___flmul@a+2)^0,c
  4150  010652  0E3E               	movlw	62
  4151  010654  6E16               	movwf	(___flmul@a+3)^0,c
  4152  010656  C05D  F001         	movff	MAX17320_dump@data,___xxtofl@val
  4153  01065A  C05E  F002         	movff	MAX17320_dump@data+1,___xxtofl@val+1
  4154  01065E  0E00               	movlw	0
  4155  010660  BE02               	btfsc	(___xxtofl@val+1)^0,7,c
  4156  010662  0EFF               	movlw	-1
  4157  010664  6E03               	movwf	(___xxtofl@val+2)^0,c
  4158  010666  6E04               	movwf	(___xxtofl@val+3)^0,c
  4159  010668  0E01               	movlw	1
  4160  01066A  EC4B  F090         	call	___xxtofl
  4161  01066E  C001  F00F         	movff	?___xxtofl,___flmul@b
  4162  010672  C002  F010         	movff	?___xxtofl+1,___flmul@b+1
  4163  010676  C003  F011         	movff	?___xxtofl+2,___flmul@b+2
  4164  01067A  C004  F012         	movff	?___xxtofl+3,___flmul@b+3
  4165  01067E  EC78  F088         	call	___flmul	;wreg free
  4166  010682  C00F  F028         	movff	?___flmul,___fltol@f1
  4167  010686  C010  F029         	movff	?___flmul+1,___fltol@f1+1
  4168  01068A  C011  F02A         	movff	?___flmul+2,___fltol@f1+2
  4169  01068E  C012  F02B         	movff	?___flmul+3,___fltol@f1+3
  4170  010692  EC1D  F094         	call	___fltol	;wreg free
  4171  010696  C028  F05B         	movff	?___fltol,?_printf+4
  4172  01069A  C029  F05C         	movff	?___fltol+1,?_printf+5
  4173  01069E  ECC0  F098         	call	_printf	;wreg free
  4174  0106A2                     l4927:
  4175                           
  4176                           ;MAX17320.c: 308:     if(!MAX17320_read_word(0x028,&data)){printf("ChgingCurr=%04x  %5d[
      +                          mA]\n",data,(int)(data*0.3125));}
  4177  0106A2  0E00               	movlw	0
  4178  0106A4  6E08               	movwf	(MAX17320_read_word@address+1)^0,c
  4179  0106A6  0E28               	movlw	40
  4180  0106A8  6E07               	movwf	MAX17320_read_word@address^0,c
  4181  0106AA  0E5D               	movlw	low MAX17320_dump@data
  4182  0106AC  6E09               	movwf	MAX17320_read_word@data^0,c
  4183  0106AE  0E00               	movlw	high MAX17320_dump@data
  4184  0106B0  6E0A               	movwf	(MAX17320_read_word@data+1)^0,c
  4185  0106B2  EC43  F097         	call	_MAX17320_read_word	;wreg free
  4186  0106B6  0900               	iorlw	0
  4187  0106B8  A4D8               	btfss	status,2,c
  4188  0106BA  EF61  F083         	goto	u3771
  4189  0106BE  EF63  F083         	goto	u3770
  4190  0106C2                     u3771:
  4191  0106C2  EF96  F083         	goto	l4931
  4192  0106C6                     u3770:
  4193  0106C6  0E38               	movlw	low STR_22
  4194  0106C8  6E57               	movwf	printf@fmt^0,c
  4195  0106CA  0EFD               	movlw	high STR_22
  4196  0106CC  6E58               	movwf	(printf@fmt+1)^0,c
  4197  0106CE  C05D  F059         	movff	MAX17320_dump@data,?_printf+2
  4198  0106D2  C05E  F05A         	movff	MAX17320_dump@data+1,?_printf+3
  4199  0106D6  0E00               	movlw	0
  4200  0106D8  6E13               	movwf	___flmul@a^0,c
  4201  0106DA  0E00               	movlw	0
  4202  0106DC  6E14               	movwf	(___flmul@a+1)^0,c
  4203  0106DE  0EA0               	movlw	160
  4204  0106E0  6E15               	movwf	(___flmul@a+2)^0,c
  4205  0106E2  0E3E               	movlw	62
  4206  0106E4  6E16               	movwf	(___flmul@a+3)^0,c
  4207  0106E6  C05D  F001         	movff	MAX17320_dump@data,___xxtofl@val
  4208  0106EA  C05E  F002         	movff	MAX17320_dump@data+1,___xxtofl@val+1
  4209  0106EE  6A03               	clrf	(___xxtofl@val+2)^0,c
  4210  0106F0  6A04               	clrf	(___xxtofl@val+3)^0,c
  4211  0106F2  0E00               	movlw	0
  4212  0106F4  EC4B  F090         	call	___xxtofl
  4213  0106F8  C001  F00F         	movff	?___xxtofl,___flmul@b
  4214  0106FC  C002  F010         	movff	?___xxtofl+1,___flmul@b+1
  4215  010700  C003  F011         	movff	?___xxtofl+2,___flmul@b+2
  4216  010704  C004  F012         	movff	?___xxtofl+3,___flmul@b+3
  4217  010708  EC78  F088         	call	___flmul	;wreg free
  4218  01070C  C00F  F028         	movff	?___flmul,___fltol@f1
  4219  010710  C010  F029         	movff	?___flmul+1,___fltol@f1+1
  4220  010714  C011  F02A         	movff	?___flmul+2,___fltol@f1+2
  4221  010718  C012  F02B         	movff	?___flmul+3,___fltol@f1+3
  4222  01071C  EC1D  F094         	call	___fltol	;wreg free
  4223  010720  C028  F05B         	movff	?___fltol,?_printf+4
  4224  010724  C029  F05C         	movff	?___fltol+1,?_printf+5
  4225  010728  ECC0  F098         	call	_printf	;wreg free
  4226  01072C                     l4931:
  4227                           
  4228                           ;MAX17320.c: 309:     if(!MAX17320_read_word(0x02a,&data)){printf("ChgingVolt=%04x  %5d[
      +                          mV]\n",data,(int)(data*0.078125));}
  4229  01072C  0E00               	movlw	0
  4230  01072E  6E08               	movwf	(MAX17320_read_word@address+1)^0,c
  4231  010730  0E2A               	movlw	42
  4232  010732  6E07               	movwf	MAX17320_read_word@address^0,c
  4233  010734  0E5D               	movlw	low MAX17320_dump@data
  4234  010736  6E09               	movwf	MAX17320_read_word@data^0,c
  4235  010738  0E00               	movlw	high MAX17320_dump@data
  4236  01073A  6E0A               	movwf	(MAX17320_read_word@data+1)^0,c
  4237  01073C  EC43  F097         	call	_MAX17320_read_word	;wreg free
  4238  010740  0900               	iorlw	0
  4239  010742  A4D8               	btfss	status,2,c
  4240  010744  EFA6  F083         	goto	u3781
  4241  010748  EFA8  F083         	goto	u3780
  4242  01074C                     u3781:
  4243  01074C  EFDB  F083         	goto	l4935
  4244  010750                     u3780:
  4245  010750  0EEE               	movlw	low STR_23
  4246  010752  6E57               	movwf	printf@fmt^0,c
  4247  010754  0EFD               	movlw	high STR_23
  4248  010756  6E58               	movwf	(printf@fmt+1)^0,c
  4249  010758  C05D  F059         	movff	MAX17320_dump@data,?_printf+2
  4250  01075C  C05E  F05A         	movff	MAX17320_dump@data+1,?_printf+3
  4251  010760  0E00               	movlw	0
  4252  010762  6E13               	movwf	___flmul@a^0,c
  4253  010764  0E00               	movlw	0
  4254  010766  6E14               	movwf	(___flmul@a+1)^0,c
  4255  010768  0EA0               	movlw	160
  4256  01076A  6E15               	movwf	(___flmul@a+2)^0,c
  4257  01076C  0E3D               	movlw	61
  4258  01076E  6E16               	movwf	(___flmul@a+3)^0,c
  4259  010770  C05D  F001         	movff	MAX17320_dump@data,___xxtofl@val
  4260  010774  C05E  F002         	movff	MAX17320_dump@data+1,___xxtofl@val+1
  4261  010778  6A03               	clrf	(___xxtofl@val+2)^0,c
  4262  01077A  6A04               	clrf	(___xxtofl@val+3)^0,c
  4263  01077C  0E00               	movlw	0
  4264  01077E  EC4B  F090         	call	___xxtofl
  4265  010782  C001  F00F         	movff	?___xxtofl,___flmul@b
  4266  010786  C002  F010         	movff	?___xxtofl+1,___flmul@b+1
  4267  01078A  C003  F011         	movff	?___xxtofl+2,___flmul@b+2
  4268  01078E  C004  F012         	movff	?___xxtofl+3,___flmul@b+3
  4269  010792  EC78  F088         	call	___flmul	;wreg free
  4270  010796  C00F  F028         	movff	?___flmul,___fltol@f1
  4271  01079A  C010  F029         	movff	?___flmul+1,___fltol@f1+1
  4272  01079E  C011  F02A         	movff	?___flmul+2,___fltol@f1+2
  4273  0107A2  C012  F02B         	movff	?___flmul+3,___fltol@f1+3
  4274  0107A6  EC1D  F094         	call	___fltol	;wreg free
  4275  0107AA  C028  F05B         	movff	?___fltol,?_printf+4
  4276  0107AE  C029  F05C         	movff	?___fltol+1,?_printf+5
  4277  0107B2  ECC0  F098         	call	_printf	;wreg free
  4278  0107B6                     l4935:
  4279                           
  4280                           ;MAX17320.c: 310:     if(!MAX17320_read_word(0x1f1,&data)){printf("HProtCfg2 =%04x\n",da
      +                          ta);}
  4281  0107B6  0E01               	movlw	1
  4282  0107B8  6E08               	movwf	(MAX17320_read_word@address+1)^0,c
  4283  0107BA  0EF1               	movlw	241
  4284  0107BC  6E07               	movwf	MAX17320_read_word@address^0,c
  4285  0107BE  0E5D               	movlw	low MAX17320_dump@data
  4286  0107C0  6E09               	movwf	MAX17320_read_word@data^0,c
  4287  0107C2  0E00               	movlw	high MAX17320_dump@data
  4288  0107C4  6E0A               	movwf	(MAX17320_read_word@data+1)^0,c
  4289  0107C6  EC43  F097         	call	_MAX17320_read_word	;wreg free
  4290  0107CA  0900               	iorlw	0
  4291  0107CC  A4D8               	btfss	status,2,c
  4292  0107CE  EFEB  F083         	goto	u3791
  4293  0107D2  EFED  F083         	goto	u3790
  4294  0107D6                     u3791:
  4295  0107D6  EFF7  F083         	goto	l4939
  4296  0107DA                     u3790:
  4297  0107DA  0EAE               	movlw	low STR_24
  4298  0107DC  6E57               	movwf	printf@fmt^0,c
  4299  0107DE  0EFF               	movlw	high STR_24
  4300  0107E0  6E58               	movwf	(printf@fmt+1)^0,c
  4301  0107E2  C05D  F059         	movff	MAX17320_dump@data,?_printf+2
  4302  0107E6  C05E  F05A         	movff	MAX17320_dump@data+1,?_printf+3
  4303  0107EA  ECC0  F098         	call	_printf	;wreg free
  4304  0107EE                     l4939:
  4305                           
  4306                           ;MAX17320.c: 311:     if(!MAX17320_read_word(0x061,&data)){printf("CommStat  =%04x\n",da
      +                          ta);}
  4307  0107EE  0E00               	movlw	0
  4308  0107F0  6E08               	movwf	(MAX17320_read_word@address+1)^0,c
  4309  0107F2  0E61               	movlw	97
  4310  0107F4  6E07               	movwf	MAX17320_read_word@address^0,c
  4311  0107F6  0E5D               	movlw	low MAX17320_dump@data
  4312  0107F8  6E09               	movwf	MAX17320_read_word@data^0,c
  4313  0107FA  0E00               	movlw	high MAX17320_dump@data
  4314  0107FC  6E0A               	movwf	(MAX17320_read_word@data+1)^0,c
  4315  0107FE  EC43  F097         	call	_MAX17320_read_word	;wreg free
  4316  010802  0900               	iorlw	0
  4317  010804  A4D8               	btfss	status,2,c
  4318  010806  EF07  F084         	goto	u3801
  4319  01080A  EF09  F084         	goto	u3800
  4320  01080E                     u3801:
  4321  01080E  EF13  F084         	goto	l107
  4322  010812                     u3800:
  4323  010812  0E9D               	movlw	low STR_25
  4324  010814  6E57               	movwf	printf@fmt^0,c
  4325  010816  0EFF               	movlw	high STR_25
  4326  010818  6E58               	movwf	(printf@fmt+1)^0,c
  4327  01081A  C05D  F059         	movff	MAX17320_dump@data,?_printf+2
  4328  01081E  C05E  F05A         	movff	MAX17320_dump@data+1,?_printf+3
  4329  010822  ECC0  F098         	call	_printf	;wreg free
  4330  010826                     l107:
  4331                           
  4332                           ;MAX17320.c: 313:     printf("\nNVM\n");
  4333  010826  0EF2               	movlw	low STR_26
  4334  010828  6E57               	movwf	printf@fmt^0,c
  4335  01082A  0EFF               	movlw	high STR_26
  4336  01082C  6E58               	movwf	(printf@fmt+1)^0,c
  4337  01082E  ECC0  F098         	call	_printf	;wreg free
  4338  010832                     
  4339                           ;MAX17320.c: 314:     if(!MAX17320_read_word(0x19f,&data)){printf("nLearnCfg  =%04x\n",d
      +                          ata);}
  4340  010832  0E01               	movlw	1
  4341  010834  6E08               	movwf	(MAX17320_read_word@address+1)^0,c
  4342  010836  0E9F               	movlw	159
  4343  010838  6E07               	movwf	MAX17320_read_word@address^0,c
  4344  01083A  0E5D               	movlw	low MAX17320_dump@data
  4345  01083C  6E09               	movwf	MAX17320_read_word@data^0,c
  4346  01083E  0E00               	movlw	high MAX17320_dump@data
  4347  010840  6E0A               	movwf	(MAX17320_read_word@data+1)^0,c
  4348  010842  EC43  F097         	call	_MAX17320_read_word	;wreg free
  4349  010846  0900               	iorlw	0
  4350  010848  A4D8               	btfss	status,2,c
  4351  01084A  EF29  F084         	goto	u3811
  4352  01084E  EF2B  F084         	goto	u3810
  4353  010852                     u3811:
  4354  010852  EF35  F084         	goto	l4947
  4355  010856                     u3810:
  4356  010856  0E34               	movlw	low STR_27
  4357  010858  6E57               	movwf	printf@fmt^0,c
  4358  01085A  0EFF               	movlw	high STR_27
  4359  01085C  6E58               	movwf	(printf@fmt+1)^0,c
  4360  01085E  C05D  F059         	movff	MAX17320_dump@data,?_printf+2
  4361  010862  C05E  F05A         	movff	MAX17320_dump@data+1,?_printf+3
  4362  010866  ECC0  F098         	call	_printf	;wreg free
  4363  01086A                     l4947:
  4364                           
  4365                           ;MAX17320.c: 315:     if(!MAX17320_read_word(0x1a9,&data)){printf("nFullCapRep=%04x  %5d
      +                          [mAh]\n",data,data);}
  4366  01086A  0E01               	movlw	1
  4367  01086C  6E08               	movwf	(MAX17320_read_word@address+1)^0,c
  4368  01086E  0EA9               	movlw	169
  4369  010870  6E07               	movwf	MAX17320_read_word@address^0,c
  4370  010872  0E5D               	movlw	low MAX17320_dump@data
  4371  010874  6E09               	movwf	MAX17320_read_word@data^0,c
  4372  010876  0E00               	movlw	high MAX17320_dump@data
  4373  010878  6E0A               	movwf	(MAX17320_read_word@data+1)^0,c
  4374  01087A  EC43  F097         	call	_MAX17320_read_word	;wreg free
  4375  01087E  0900               	iorlw	0
  4376  010880  A4D8               	btfss	status,2,c
  4377  010882  EF45  F084         	goto	u3821
  4378  010886  EF47  F084         	goto	u3820
  4379  01088A                     u3821:
  4380  01088A  EF55  F084         	goto	l4951
  4381  01088E                     u3820:
  4382  01088E  0EB3               	movlw	low STR_28
  4383  010890  6E57               	movwf	printf@fmt^0,c
  4384  010892  0EFC               	movlw	high STR_28
  4385  010894  6E58               	movwf	(printf@fmt+1)^0,c
  4386  010896  C05D  F059         	movff	MAX17320_dump@data,?_printf+2
  4387  01089A  C05E  F05A         	movff	MAX17320_dump@data+1,?_printf+3
  4388  01089E  C05D  F05B         	movff	MAX17320_dump@data,?_printf+4
  4389  0108A2  C05E  F05C         	movff	MAX17320_dump@data+1,?_printf+5
  4390  0108A6  ECC0  F098         	call	_printf	;wreg free
  4391  0108AA                     l4951:
  4392                           
  4393                           ;MAX17320.c: 316:     if(!MAX17320_read_word(0x1a5,&data)){printf("nFullCapNom=%04x  %5d
      +                          [mAh]\n",data,data);}
  4394  0108AA  0E01               	movlw	1
  4395  0108AC  6E08               	movwf	(MAX17320_read_word@address+1)^0,c
  4396  0108AE  0EA5               	movlw	165
  4397  0108B0  6E07               	movwf	MAX17320_read_word@address^0,c
  4398  0108B2  0E5D               	movlw	low MAX17320_dump@data
  4399  0108B4  6E09               	movwf	MAX17320_read_word@data^0,c
  4400  0108B6  0E00               	movlw	high MAX17320_dump@data
  4401  0108B8  6E0A               	movwf	(MAX17320_read_word@data+1)^0,c
  4402  0108BA  EC43  F097         	call	_MAX17320_read_word	;wreg free
  4403  0108BE  0900               	iorlw	0
  4404  0108C0  A4D8               	btfss	status,2,c
  4405  0108C2  EF65  F084         	goto	u3831
  4406  0108C6  EF67  F084         	goto	u3830
  4407  0108CA                     u3831:
  4408  0108CA  EF75  F084         	goto	l4955
  4409  0108CE                     u3830:
  4410  0108CE  0E97               	movlw	low STR_29
  4411  0108D0  6E57               	movwf	printf@fmt^0,c
  4412  0108D2  0EFC               	movlw	high STR_29
  4413  0108D4  6E58               	movwf	(printf@fmt+1)^0,c
  4414  0108D6  C05D  F059         	movff	MAX17320_dump@data,?_printf+2
  4415  0108DA  C05E  F05A         	movff	MAX17320_dump@data+1,?_printf+3
  4416  0108DE  C05D  F05B         	movff	MAX17320_dump@data,?_printf+4
  4417  0108E2  C05E  F05C         	movff	MAX17320_dump@data+1,?_printf+5
  4418  0108E6  ECC0  F098         	call	_printf	;wreg free
  4419  0108EA                     l4955:
  4420                           
  4421                           ;MAX17320.c: 317:     if(!MAX17320_read_word(0x1b3,&data)){printf("nDesignCap =%04x  %5d
      +                          [mAh]\n",data,data);}
  4422  0108EA  0E01               	movlw	1
  4423  0108EC  6E08               	movwf	(MAX17320_read_word@address+1)^0,c
  4424  0108EE  0EB3               	movlw	179
  4425  0108F0  6E07               	movwf	MAX17320_read_word@address^0,c
  4426  0108F2  0E5D               	movlw	low MAX17320_dump@data
  4427  0108F4  6E09               	movwf	MAX17320_read_word@data^0,c
  4428  0108F6  0E00               	movlw	high MAX17320_dump@data
  4429  0108F8  6E0A               	movwf	(MAX17320_read_word@data+1)^0,c
  4430  0108FA  EC43  F097         	call	_MAX17320_read_word	;wreg free
  4431  0108FE  0900               	iorlw	0
  4432  010900  A4D8               	btfss	status,2,c
  4433  010902  EF85  F084         	goto	u3841
  4434  010906  EF87  F084         	goto	u3840
  4435  01090A                     u3841:
  4436  01090A  EF95  F084         	goto	l4959
  4437  01090E                     u3840:
  4438  01090E  0E7B               	movlw	low STR_30
  4439  010910  6E57               	movwf	printf@fmt^0,c
  4440  010912  0EFC               	movlw	high STR_30
  4441  010914  6E58               	movwf	(printf@fmt+1)^0,c
  4442  010916  C05D  F059         	movff	MAX17320_dump@data,?_printf+2
  4443  01091A  C05E  F05A         	movff	MAX17320_dump@data+1,?_printf+3
  4444  01091E  C05D  F05B         	movff	MAX17320_dump@data,?_printf+4
  4445  010922  C05E  F05C         	movff	MAX17320_dump@data+1,?_printf+5
  4446  010926  ECC0  F098         	call	_printf	;wreg free
  4447  01092A                     l4959:
  4448                           
  4449                           ;MAX17320.c: 318:     if(!MAX17320_read_word(0x1a8,&data)){printf("nBattStatus=%04x\n",d
      +                          ata);}
  4450  01092A  0E01               	movlw	1
  4451  01092C  6E08               	movwf	(MAX17320_read_word@address+1)^0,c
  4452  01092E  0EA8               	movlw	168
  4453  010930  6E07               	movwf	MAX17320_read_word@address^0,c
  4454  010932  0E5D               	movlw	low MAX17320_dump@data
  4455  010934  6E09               	movwf	MAX17320_read_word@data^0,c
  4456  010936  0E00               	movlw	high MAX17320_dump@data
  4457  010938  6E0A               	movwf	(MAX17320_read_word@data+1)^0,c
  4458  01093A  EC43  F097         	call	_MAX17320_read_word	;wreg free
  4459  01093E  0900               	iorlw	0
  4460  010940  A4D8               	btfss	status,2,c
  4461  010942  EFA5  F084         	goto	u3851
  4462  010946  EFA7  F084         	goto	u3850
  4463  01094A                     u3851:
  4464  01094A  EFB1  F084         	goto	l4963
  4465  01094E                     u3850:
  4466  01094E  0E58               	movlw	low STR_31
  4467  010950  6E57               	movwf	printf@fmt^0,c
  4468  010952  0EFF               	movlw	high STR_31
  4469  010954  6E58               	movwf	(printf@fmt+1)^0,c
  4470  010956  C05D  F059         	movff	MAX17320_dump@data,?_printf+2
  4471  01095A  C05E  F05A         	movff	MAX17320_dump@data+1,?_printf+3
  4472  01095E  ECC0  F098         	call	_printf	;wreg free
  4473  010962                     l4963:
  4474                           
  4475                           ;MAX17320.c: 319:     if(!MAX17320_read_word(0x1b0,&data)){printf("nConfig    =%04x\n",d
      +                          ata);}
  4476  010962  0E01               	movlw	1
  4477  010964  6E08               	movwf	(MAX17320_read_word@address+1)^0,c
  4478  010966  0EB0               	movlw	176
  4479  010968  6E07               	movwf	MAX17320_read_word@address^0,c
  4480  01096A  0E5D               	movlw	low MAX17320_dump@data
  4481  01096C  6E09               	movwf	MAX17320_read_word@data^0,c
  4482  01096E  0E00               	movlw	high MAX17320_dump@data
  4483  010970  6E0A               	movwf	(MAX17320_read_word@data+1)^0,c
  4484  010972  EC43  F097         	call	_MAX17320_read_word	;wreg free
  4485  010976  0900               	iorlw	0
  4486  010978  A4D8               	btfss	status,2,c
  4487  01097A  EFC1  F084         	goto	u3861
  4488  01097E  EFC3  F084         	goto	u3860
  4489  010982                     u3861:
  4490  010982  EFCD  F084         	goto	l4967
  4491  010986                     u3860:
  4492  010986  0EA4               	movlw	low STR_32
  4493  010988  6E57               	movwf	printf@fmt^0,c
  4494  01098A  0EFE               	movlw	high STR_32
  4495  01098C  6E58               	movwf	(printf@fmt+1)^0,c
  4496  01098E  C05D  F059         	movff	MAX17320_dump@data,?_printf+2
  4497  010992  C05E  F05A         	movff	MAX17320_dump@data+1,?_printf+3
  4498  010996  ECC0  F098         	call	_printf	;wreg free
  4499  01099A                     l4967:
  4500                           
  4501                           ;MAX17320.c: 320:     if(!MAX17320_read_word(0x1b6,&data)){printf("nRelaxCfg  =%04x\n",d
      +                          ata);}
  4502  01099A  0E01               	movlw	1
  4503  01099C  6E08               	movwf	(MAX17320_read_word@address+1)^0,c
  4504  01099E  0EB6               	movlw	182
  4505  0109A0  6E07               	movwf	MAX17320_read_word@address^0,c
  4506  0109A2  0E5D               	movlw	low MAX17320_dump@data
  4507  0109A4  6E09               	movwf	MAX17320_read_word@data^0,c
  4508  0109A6  0E00               	movlw	high MAX17320_dump@data
  4509  0109A8  6E0A               	movwf	(MAX17320_read_word@data+1)^0,c
  4510  0109AA  EC43  F097         	call	_MAX17320_read_word	;wreg free
  4511  0109AE  0900               	iorlw	0
  4512  0109B0  A4D8               	btfss	status,2,c
  4513  0109B2  EFDD  F084         	goto	u3871
  4514  0109B6  EFDF  F084         	goto	u3870
  4515  0109BA                     u3871:
  4516  0109BA  EFE9  F084         	goto	l4971
  4517  0109BE                     u3870:
  4518  0109BE  0E46               	movlw	low STR_33
  4519  0109C0  6E57               	movwf	printf@fmt^0,c
  4520  0109C2  0EFF               	movlw	high STR_33
  4521  0109C4  6E58               	movwf	(printf@fmt+1)^0,c
  4522  0109C6  C05D  F059         	movff	MAX17320_dump@data,?_printf+2
  4523  0109CA  C05E  F05A         	movff	MAX17320_dump@data+1,?_printf+3
  4524  0109CE  ECC0  F098         	call	_printf	;wreg free
  4525  0109D2                     l4971:
  4526                           
  4527                           ;MAX17320.c: 321:     if(!MAX17320_read_word(0x1b5,&data)){printf("nPackCfg   =%04x\n",d
      +                          ata);}
  4528  0109D2  0E01               	movlw	1
  4529  0109D4  6E08               	movwf	(MAX17320_read_word@address+1)^0,c
  4530  0109D6  0EB5               	movlw	181
  4531  0109D8  6E07               	movwf	MAX17320_read_word@address^0,c
  4532  0109DA  0E5D               	movlw	low MAX17320_dump@data
  4533  0109DC  6E09               	movwf	MAX17320_read_word@data^0,c
  4534  0109DE  0E00               	movlw	high MAX17320_dump@data
  4535  0109E0  6E0A               	movwf	(MAX17320_read_word@data+1)^0,c
  4536  0109E2  EC43  F097         	call	_MAX17320_read_word	;wreg free
  4537  0109E6  0900               	iorlw	0
  4538  0109E8  A4D8               	btfss	status,2,c
  4539  0109EA  EFF9  F084         	goto	u3881
  4540  0109EE  EFFB  F084         	goto	u3880
  4541  0109F2                     u3881:
  4542  0109F2  EF05  F085         	goto	l4975
  4543  0109F6                     u3880:
  4544  0109F6  0EC8               	movlw	low STR_34
  4545  0109F8  6E57               	movwf	printf@fmt^0,c
  4546  0109FA  0EFE               	movlw	high STR_34
  4547  0109FC  6E58               	movwf	(printf@fmt+1)^0,c
  4548  0109FE  C05D  F059         	movff	MAX17320_dump@data,?_printf+2
  4549  010A02  C05E  F05A         	movff	MAX17320_dump@data+1,?_printf+3
  4550  010A06  ECC0  F098         	call	_printf	;wreg free
  4551  010A0A                     l4975:
  4552                           
  4553                           ;MAX17320.c: 322:     if(!MAX17320_read_word(0x1c2,&data)){printf("nChgCfg    =%04x\n",d
      +                          ata);}
  4554  010A0A  0E01               	movlw	1
  4555  010A0C  6E08               	movwf	(MAX17320_read_word@address+1)^0,c
  4556  010A0E  0EC2               	movlw	194
  4557  010A10  6E07               	movwf	MAX17320_read_word@address^0,c
  4558  010A12  0E5D               	movlw	low MAX17320_dump@data
  4559  010A14  6E09               	movwf	MAX17320_read_word@data^0,c
  4560  010A16  0E00               	movlw	high MAX17320_dump@data
  4561  010A18  6E0A               	movwf	(MAX17320_read_word@data+1)^0,c
  4562  010A1A  EC43  F097         	call	_MAX17320_read_word	;wreg free
  4563  010A1E  0900               	iorlw	0
  4564  010A20  A4D8               	btfss	status,2,c
  4565  010A22  EF15  F085         	goto	u3891
  4566  010A26  EF17  F085         	goto	u3890
  4567  010A2A                     u3891:
  4568  010A2A  EF21  F085         	goto	l4979
  4569  010A2E                     u3890:
  4570  010A2E  0E92               	movlw	low STR_35
  4571  010A30  6E57               	movwf	printf@fmt^0,c
  4572  010A32  0EFE               	movlw	high STR_35
  4573  010A34  6E58               	movwf	(printf@fmt+1)^0,c
  4574  010A36  C05D  F059         	movff	MAX17320_dump@data,?_printf+2
  4575  010A3A  C05E  F05A         	movff	MAX17320_dump@data+1,?_printf+3
  4576  010A3E  ECC0  F098         	call	_printf	;wreg free
  4577  010A42                     l4979:
  4578                           
  4579                           ;MAX17320.c: 323:     if(!MAX17320_read_word(0x1c3,&data)){printf("nChgCtrl   =%04x\n",d
      +                          ata);}
  4580  010A42  0E01               	movlw	1
  4581  010A44  6E08               	movwf	(MAX17320_read_word@address+1)^0,c
  4582  010A46  0EC3               	movlw	195
  4583  010A48  6E07               	movwf	MAX17320_read_word@address^0,c
  4584  010A4A  0E5D               	movlw	low MAX17320_dump@data
  4585  010A4C  6E09               	movwf	MAX17320_read_word@data^0,c
  4586  010A4E  0E00               	movlw	high MAX17320_dump@data
  4587  010A50  6E0A               	movwf	(MAX17320_read_word@data+1)^0,c
  4588  010A52  EC43  F097         	call	_MAX17320_read_word	;wreg free
  4589  010A56  0900               	iorlw	0
  4590  010A58  A4D8               	btfss	status,2,c
  4591  010A5A  EF31  F085         	goto	u3901
  4592  010A5E  EF33  F085         	goto	u3900
  4593  010A62                     u3901:
  4594  010A62  EF3D  F085         	goto	l4983
  4595  010A66                     u3900:
  4596  010A66  0EEC               	movlw	low STR_36
  4597  010A68  6E57               	movwf	printf@fmt^0,c
  4598  010A6A  0EFE               	movlw	high STR_36
  4599  010A6C  6E58               	movwf	(printf@fmt+1)^0,c
  4600  010A6E  C05D  F059         	movff	MAX17320_dump@data,?_printf+2
  4601  010A72  C05E  F05A         	movff	MAX17320_dump@data+1,?_printf+3
  4602  010A76  ECC0  F098         	call	_printf	;wreg free
  4603  010A7A                     l4983:
  4604                           
  4605                           ;MAX17320.c: 324:     if(!MAX17320_read_word(0x1b7,&data)){printf("nConvgCfg  =%04x\n",d
      +                          ata);}
  4606  010A7A  0E01               	movlw	1
  4607  010A7C  6E08               	movwf	(MAX17320_read_word@address+1)^0,c
  4608  010A7E  0EB7               	movlw	183
  4609  010A80  6E07               	movwf	MAX17320_read_word@address^0,c
  4610  010A82  0E5D               	movlw	low MAX17320_dump@data
  4611  010A84  6E09               	movwf	MAX17320_read_word@data^0,c
  4612  010A86  0E00               	movlw	high MAX17320_dump@data
  4613  010A88  6E0A               	movwf	(MAX17320_read_word@data+1)^0,c
  4614  010A8A  EC43  F097         	call	_MAX17320_read_word	;wreg free
  4615  010A8E  0900               	iorlw	0
  4616  010A90  A4D8               	btfss	status,2,c
  4617  010A92  EF4D  F085         	goto	u3911
  4618  010A96  EF4F  F085         	goto	u3910
  4619  010A9A                     u3911:
  4620  010A9A  EF59  F085         	goto	l4987
  4621  010A9E                     u3910:
  4622  010A9E  0E10               	movlw	low STR_37
  4623  010AA0  6E57               	movwf	printf@fmt^0,c
  4624  010AA2  0EFF               	movlw	high STR_37
  4625  010AA4  6E58               	movwf	(printf@fmt+1)^0,c
  4626  010AA6  C05D  F059         	movff	MAX17320_dump@data,?_printf+2
  4627  010AAA  C05E  F05A         	movff	MAX17320_dump@data+1,?_printf+3
  4628  010AAE  ECC0  F098         	call	_printf	;wreg free
  4629  010AB2                     l4987:
  4630                           
  4631                           ;MAX17320.c: 325:     if(!MAX17320_read_word(0x1bb,&data)){printf("nHibCfg    =%04x\n",d
      +                          ata);}
  4632  010AB2  0E01               	movlw	1
  4633  010AB4  6E08               	movwf	(MAX17320_read_word@address+1)^0,c
  4634  010AB6  0EBB               	movlw	187
  4635  010AB8  6E07               	movwf	MAX17320_read_word@address^0,c
  4636  010ABA  0E5D               	movlw	low MAX17320_dump@data
  4637  010ABC  6E09               	movwf	MAX17320_read_word@data^0,c
  4638  010ABE  0E00               	movlw	high MAX17320_dump@data
  4639  010AC0  6E0A               	movwf	(MAX17320_read_word@data+1)^0,c
  4640  010AC2  EC43  F097         	call	_MAX17320_read_word	;wreg free
  4641  010AC6  0900               	iorlw	0
  4642  010AC8  A4D8               	btfss	status,2,c
  4643  010ACA  EF69  F085         	goto	u3921
  4644  010ACE  EF6B  F085         	goto	u3920
  4645  010AD2                     u3921:
  4646  010AD2  EF75  F085         	goto	l4991
  4647  010AD6                     u3920:
  4648  010AD6  0E80               	movlw	low STR_38
  4649  010AD8  6E57               	movwf	printf@fmt^0,c
  4650  010ADA  0EFE               	movlw	high STR_38
  4651  010ADC  6E58               	movwf	(printf@fmt+1)^0,c
  4652  010ADE  C05D  F059         	movff	MAX17320_dump@data,?_printf+2
  4653  010AE2  C05E  F05A         	movff	MAX17320_dump@data+1,?_printf+3
  4654  010AE6  ECC0  F098         	call	_printf	;wreg free
  4655  010AEA                     l4991:
  4656                           
  4657                           ;MAX17320.c: 326:     if(!MAX17320_read_word(0x1ca,&data)){printf("nThermCfg  =%04x\n",d
      +                          ata);}
  4658  010AEA  0E01               	movlw	1
  4659  010AEC  6E08               	movwf	(MAX17320_read_word@address+1)^0,c
  4660  010AEE  0ECA               	movlw	202
  4661  010AF0  6E07               	movwf	MAX17320_read_word@address^0,c
  4662  010AF2  0E5D               	movlw	low MAX17320_dump@data
  4663  010AF4  6E09               	movwf	MAX17320_read_word@data^0,c
  4664  010AF6  0E00               	movlw	high MAX17320_dump@data
  4665  010AF8  6E0A               	movwf	(MAX17320_read_word@data+1)^0,c
  4666  010AFA  EC43  F097         	call	_MAX17320_read_word	;wreg free
  4667  010AFE  0900               	iorlw	0
  4668  010B00  A4D8               	btfss	status,2,c
  4669  010B02  EF85  F085         	goto	u3931
  4670  010B06  EF87  F085         	goto	u3930
  4671  010B0A                     u3931:
  4672  010B0A  EF91  F085         	goto	l4995
  4673  010B0E                     u3930:
  4674  010B0E  0E22               	movlw	low STR_39
  4675  010B10  6E57               	movwf	printf@fmt^0,c
  4676  010B12  0EFF               	movlw	high STR_39
  4677  010B14  6E58               	movwf	(printf@fmt+1)^0,c
  4678  010B16  C05D  F059         	movff	MAX17320_dump@data,?_printf+2
  4679  010B1A  C05E  F05A         	movff	MAX17320_dump@data+1,?_printf+3
  4680  010B1E  ECC0  F098         	call	_printf	;wreg free
  4681  010B22                     l4995:
  4682                           
  4683                           ;MAX17320.c: 327:     if(!MAX17320_read_word(0x1d7,&data)){printf("nProtCfg   =%04x\n",d
      +                          ata);}
  4684  010B22  0E01               	movlw	1
  4685  010B24  6E08               	movwf	(MAX17320_read_word@address+1)^0,c
  4686  010B26  0ED7               	movlw	215
  4687  010B28  6E07               	movwf	MAX17320_read_word@address^0,c
  4688  010B2A  0E5D               	movlw	low MAX17320_dump@data
  4689  010B2C  6E09               	movwf	MAX17320_read_word@data^0,c
  4690  010B2E  0E00               	movlw	high MAX17320_dump@data
  4691  010B30  6E0A               	movwf	(MAX17320_read_word@data+1)^0,c
  4692  010B32  EC43  F097         	call	_MAX17320_read_word	;wreg free
  4693  010B36  0900               	iorlw	0
  4694  010B38  A4D8               	btfss	status,2,c
  4695  010B3A  EFA1  F085         	goto	u3941
  4696  010B3E  EFA3  F085         	goto	u3940
  4697  010B42                     u3941:
  4698  010B42  EFAD  F085         	goto	l4999
  4699  010B46                     u3940:
  4700  010B46  0EDA               	movlw	low STR_40
  4701  010B48  6E57               	movwf	printf@fmt^0,c
  4702  010B4A  0EFE               	movlw	high STR_40
  4703  010B4C  6E58               	movwf	(printf@fmt+1)^0,c
  4704  010B4E  C05D  F059         	movff	MAX17320_dump@data,?_printf+2
  4705  010B52  C05E  F05A         	movff	MAX17320_dump@data+1,?_printf+3
  4706  010B56  ECC0  F098         	call	_printf	;wreg free
  4707  010B5A                     l4999:
  4708                           
  4709                           ;MAX17320.c: 328:     if(!MAX17320_read_word(0x1df,&data)){printf("nProtCfg2  =%04x\n",d
      +                          ata);}
  4710  010B5A  0E01               	movlw	1
  4711  010B5C  6E08               	movwf	(MAX17320_read_word@address+1)^0,c
  4712  010B5E  0EDF               	movlw	223
  4713  010B60  6E07               	movwf	MAX17320_read_word@address^0,c
  4714  010B62  0E5D               	movlw	low MAX17320_dump@data
  4715  010B64  6E09               	movwf	MAX17320_read_word@data^0,c
  4716  010B66  0E00               	movlw	high MAX17320_dump@data
  4717  010B68  6E0A               	movwf	(MAX17320_read_word@data+1)^0,c
  4718  010B6A  EC43  F097         	call	_MAX17320_read_word	;wreg free
  4719  010B6E  0900               	iorlw	0
  4720  010B70  A4D8               	btfss	status,2,c
  4721  010B72  EFBD  F085         	goto	u3951
  4722  010B76  EFBF  F085         	goto	u3950
  4723  010B7A                     u3951:
  4724  010B7A  EFC9  F085         	goto	l5003
  4725  010B7E                     u3950:
  4726  010B7E  0EFE               	movlw	low STR_41
  4727  010B80  6E57               	movwf	printf@fmt^0,c
  4728  010B82  0EFE               	movlw	high STR_41
  4729  010B84  6E58               	movwf	(printf@fmt+1)^0,c
  4730  010B86  C05D  F059         	movff	MAX17320_dump@data,?_printf+2
  4731  010B8A  C05E  F05A         	movff	MAX17320_dump@data+1,?_printf+3
  4732  010B8E  ECC0  F098         	call	_printf	;wreg free
  4733  010B92                     l5003:
  4734                           
  4735                           ;MAX17320.c: 329:     if(!MAX17320_read_word(0x1d8,&data)){printf("nJEITAC    =%04x\n",d
      +                          ata);}
  4736  010B92  0E01               	movlw	1
  4737  010B94  6E08               	movwf	(MAX17320_read_word@address+1)^0,c
  4738  010B96  0ED8               	movlw	216
  4739  010B98  6E07               	movwf	MAX17320_read_word@address^0,c
  4740  010B9A  0E5D               	movlw	low MAX17320_dump@data
  4741  010B9C  6E09               	movwf	MAX17320_read_word@data^0,c
  4742  010B9E  0E00               	movlw	high MAX17320_dump@data
  4743  010BA0  6E0A               	movwf	(MAX17320_read_word@data+1)^0,c
  4744  010BA2  EC43  F097         	call	_MAX17320_read_word	;wreg free
  4745  010BA6  0900               	iorlw	0
  4746  010BA8  A4D8               	btfss	status,2,c
  4747  010BAA  EFD9  F085         	goto	u3961
  4748  010BAE  EFDB  F085         	goto	u3960
  4749  010BB2                     u3961:
  4750  010BB2  EFE5  F085         	goto	l5007
  4751  010BB6                     u3960:
  4752  010BB6  0E5C               	movlw	low STR_42
  4753  010BB8  6E57               	movwf	printf@fmt^0,c
  4754  010BBA  0EFE               	movlw	high STR_42
  4755  010BBC  6E58               	movwf	(printf@fmt+1)^0,c
  4756  010BBE  C05D  F059         	movff	MAX17320_dump@data,?_printf+2
  4757  010BC2  C05E  F05A         	movff	MAX17320_dump@data+1,?_printf+3
  4758  010BC6  ECC0  F098         	call	_printf	;wreg free
  4759  010BCA                     l5007:
  4760                           
  4761                           ;MAX17320.c: 330:     if(!MAX17320_read_word(0x1d9,&data)){printf("nJEITAV    =%04x\n",d
      +                          ata);}
  4762  010BCA  0E01               	movlw	1
  4763  010BCC  6E08               	movwf	(MAX17320_read_word@address+1)^0,c
  4764  010BCE  0ED9               	movlw	217
  4765  010BD0  6E07               	movwf	MAX17320_read_word@address^0,c
  4766  010BD2  0E5D               	movlw	low MAX17320_dump@data
  4767  010BD4  6E09               	movwf	MAX17320_read_word@data^0,c
  4768  010BD6  0E00               	movlw	high MAX17320_dump@data
  4769  010BD8  6E0A               	movwf	(MAX17320_read_word@data+1)^0,c
  4770  010BDA  EC43  F097         	call	_MAX17320_read_word	;wreg free
  4771  010BDE  0900               	iorlw	0
  4772  010BE0  A4D8               	btfss	status,2,c
  4773  010BE2  EFF5  F085         	goto	u3971
  4774  010BE6  EFF7  F085         	goto	u3970
  4775  010BEA                     u3971:
  4776  010BEA  EF01  F086         	goto	l5011
  4777  010BEE                     u3970:
  4778  010BEE  0E6E               	movlw	low STR_43
  4779  010BF0  6E57               	movwf	printf@fmt^0,c
  4780  010BF2  0EFE               	movlw	high STR_43
  4781  010BF4  6E58               	movwf	(printf@fmt+1)^0,c
  4782  010BF6  C05D  F059         	movff	MAX17320_dump@data,?_printf+2
  4783  010BFA  C05E  F05A         	movff	MAX17320_dump@data+1,?_printf+3
  4784  010BFE  ECC0  F098         	call	_printf	;wreg free
  4785  010C02                     l5011:
  4786                           
  4787                           ;MAX17320.c: 331:     if(!MAX17320_read_word(0x1b8,&data)){printf("nNVCfg0    =%04x\n",d
      +                          ata);}
  4788  010C02  0E01               	movlw	1
  4789  010C04  6E08               	movwf	(MAX17320_read_word@address+1)^0,c
  4790  010C06  0EB8               	movlw	184
  4791  010C08  6E07               	movwf	MAX17320_read_word@address^0,c
  4792  010C0A  0E5D               	movlw	low MAX17320_dump@data
  4793  010C0C  6E09               	movwf	MAX17320_read_word@data^0,c
  4794  010C0E  0E00               	movlw	high MAX17320_dump@data
  4795  010C10  6E0A               	movwf	(MAX17320_read_word@data+1)^0,c
  4796  010C12  EC43  F097         	call	_MAX17320_read_word	;wreg free
  4797  010C16  0900               	iorlw	0
  4798  010C18  A4D8               	btfss	status,2,c
  4799  010C1A  EF11  F086         	goto	u3981
  4800  010C1E  EF13  F086         	goto	u3980
  4801  010C22                     u3981:
  4802  010C22  EF1D  F086         	goto	l5015
  4803  010C26                     u3980:
  4804  010C26  0E4A               	movlw	low STR_44
  4805  010C28  6E57               	movwf	printf@fmt^0,c
  4806  010C2A  0EFE               	movlw	high STR_44
  4807  010C2C  6E58               	movwf	(printf@fmt+1)^0,c
  4808  010C2E  C05D  F059         	movff	MAX17320_dump@data,?_printf+2
  4809  010C32  C05E  F05A         	movff	MAX17320_dump@data+1,?_printf+3
  4810  010C36  ECC0  F098         	call	_printf	;wreg free
  4811  010C3A                     l5015:
  4812                           
  4813                           ;MAX17320.c: 332:     if(!MAX17320_read_word(0x1fd,&data)){printf("NVM_USED   =%04x\n",d
      +                          ata);}
  4814  010C3A  0E01               	movlw	1
  4815  010C3C  6E08               	movwf	(MAX17320_read_word@address+1)^0,c
  4816  010C3E  0EFD               	movlw	253
  4817  010C40  6E07               	movwf	MAX17320_read_word@address^0,c
  4818  010C42  0E5D               	movlw	low MAX17320_dump@data
  4819  010C44  6E09               	movwf	MAX17320_read_word@data^0,c
  4820  010C46  0E00               	movlw	high MAX17320_dump@data
  4821  010C48  6E0A               	movwf	(MAX17320_read_word@data+1)^0,c
  4822  010C4A  EC43  F097         	call	_MAX17320_read_word	;wreg free
  4823  010C4E  0900               	iorlw	0
  4824  010C50  A4D8               	btfss	status,2,c
  4825  010C52  EF2D  F086         	goto	u3991
  4826  010C56  EF2F  F086         	goto	u3990
  4827  010C5A                     u3991:
  4828  010C5A  EF39  F086         	goto	l127
  4829  010C5E                     u3990:
  4830  010C5E  0EB6               	movlw	low STR_45
  4831  010C60  6E57               	movwf	printf@fmt^0,c
  4832  010C62  0EFE               	movlw	high STR_45
  4833  010C64  6E58               	movwf	(printf@fmt+1)^0,c
  4834  010C66  C05D  F059         	movff	MAX17320_dump@data,?_printf+2
  4835  010C6A  C05E  F05A         	movff	MAX17320_dump@data+1,?_printf+3
  4836  010C6E  ECC0  F098         	call	_printf	;wreg free
  4837  010C72                     l127:
  4838  010C72  0012               	return		;funcret
  4839  010C74                     __end_of_MAX17320_dump:
  4840                           	callstack 0
  4841                           
  4842 ;; *************** function _printf *****************
  4843 ;; Defined at:
  4844 ;;		line 5 in file "C:\Program Files\Microchip\xc8\v2.31\pic\sources\c99\common\printf.c"
  4845 ;; Parameters:    Size  Location     Type
  4846 ;;  fmt             2   86[COMRAM] PTR const unsigned char 
  4847 ;;		 -> STR_51(30), STR_50(30), STR_49(22), STR_48(22), 
  4848 ;;		 -> STR_47(22), STR_46(11), STR_45(18), STR_44(18), 
  4849 ;;		 -> STR_43(18), STR_42(18), STR_41(18), STR_40(18), 
  4850 ;;		 -> STR_39(18), STR_38(18), STR_37(18), STR_36(18), 
  4851 ;;		 -> STR_35(18), STR_34(18), STR_33(18), STR_32(18), 
  4852 ;;		 -> STR_31(18), STR_30(28), STR_29(28), STR_28(28), 
  4853 ;;		 -> STR_27(18), STR_26(6), STR_25(17), STR_24(17), 
  4854 ;;		 -> STR_23(26), STR_22(26), STR_21(26), STR_20(28), 
  4855 ;;		 -> STR_19(26), STR_18(26), STR_17(26), STR_16(26), 
  4856 ;;		 -> STR_15(26), STR_14(26), STR_13(26), STR_12(26), 
  4857 ;;		 -> STR_11(27), STR_10(27), STR_9(17), STR_8(17), 
  4858 ;;		 -> STR_7(17), STR_6(17), STR_5(17), STR_4(17), 
  4859 ;;		 -> STR_3(17), STR_2(6), STR_1(6), 
  4860 ;; Auto vars:     Size  Location     Type
  4861 ;;  ap              2   23[BANK0 ] PTR void [1]
  4862 ;;		 -> ?_printf(2), 
  4863 ;;  ret             2    0        int 
  4864 ;; Return value:  Size  Location     Type
  4865 ;;                  2   86[COMRAM] int 
  4866 ;; Registers used:
  4867 ;;		wreg, fsr1l, fsr1h, fsr2l, fsr2h, status,2, status,0, tblptrl, tblptrh, tblptru, prodl, prodh, cstack
  4868 ;; Tracked objects:
  4869 ;;		On entry : 0/0
  4870 ;;		On exit  : 0/0
  4871 ;;		Unchanged: 0/0
  4872 ;; Data sizes:     COMRAM   BANK0   BANK1   BANK2   BANK3   BANK4   BANK5   BANK6   BANK7   BANK8   BANK9  BANK10  BANK1
      +1  BANK12  BANK13
  4873 ;;      Params:         6       0       0       0       0       0       0       0       0       0       0       0       
      +0       0       0
  4874 ;;      Locals:         0       4       0       0       0       0       0       0       0       0       0       0       
      +0       0       0
  4875 ;;      Temps:          0       0       0       0       0       0       0       0       0       0       0       0       
      +0       0       0
  4876 ;;      Totals:         6       4       0       0       0       0       0       0       0       0       0       0       
      +0       0       0
  4877 ;;Total ram usage:       10 bytes
  4878 ;; Hardware stack levels used:    1
  4879 ;; Hardware stack levels required when called:    8
  4880 ;; This function calls:
  4881 ;;		_vfprintf
  4882 ;; This function is called by:
  4883 ;;		_MAX17320_init
  4884 ;;		_MAX17320_dump
  4885 ;;		_MAX17345_dump
  4886 ;; This function uses a non-reentrant model
  4887 ;;
  4888                           
  4889                           	psect	text20
  4890  013180                     __ptext20:
  4891                           	callstack 0
  4892  013180                     _printf:
  4893                           	callstack 20
  4894  013180  0E59               	movlw	low (?_printf+2)
  4895  013182  0100               	movlb	0	; () banked
  4896  013184  6F9F               	movwf	printf@ap& (0+255),b
  4897  013186  0E00               	movlw	high (?_printf+2)
  4898  013188  6FA0               	movwf	(printf@ap+1)& (0+255),b
  4899  01318A                     
  4900                           ; BSR set to: 0
  4901  01318A  0E00               	movlw	0
  4902  01318C  6E4F               	movwf	vfprintf@fp^0,c
  4903  01318E  0E00               	movlw	0
  4904  013190  6E50               	movwf	(vfprintf@fp+1)^0,c
  4905  013192  C057  F051         	movff	printf@fmt,vfprintf@fmt
  4906  013196  C058  F052         	movff	printf@fmt+1,vfprintf@fmt+1
  4907  01319A  0E9F               	movlw	low printf@ap
  4908  01319C  6E53               	movwf	vfprintf@ap^0,c
  4909  01319E  0E00               	movlw	high printf@ap
  4910  0131A0  6E54               	movwf	(vfprintf@ap+1)^0,c
  4911  0131A2  EC5A  F096         	call	_vfprintf	;wreg free
  4912  0131A6  0012               	return		;funcret
  4913  0131A8                     __end_of_printf:
  4914                           	callstack 0
  4915                           
  4916 ;; *************** function _vfprintf *****************
  4917 ;; Defined at:
  4918 ;;		line 1390 in file "C:\Program Files\Microchip\xc8\v2.31\pic\sources\c99\common\doprnt.c"
  4919 ;; Parameters:    Size  Location     Type
  4920 ;;  fp              2   78[COMRAM] PTR struct _IO_FILE
  4921 ;;		 -> NULL(0), 
  4922 ;;  fmt             2   80[COMRAM] PTR const unsigned char 
  4923 ;;		 -> STR_51(30), STR_50(30), STR_49(22), STR_48(22), 
  4924 ;;		 -> STR_47(22), STR_46(11), STR_45(18), STR_44(18), 
  4925 ;;		 -> STR_43(18), STR_42(18), STR_41(18), STR_40(18), 
  4926 ;;		 -> STR_39(18), STR_38(18), STR_37(18), STR_36(18), 
  4927 ;;		 -> STR_35(18), STR_34(18), STR_33(18), STR_32(18), 
  4928 ;;		 -> STR_31(18), STR_30(28), STR_29(28), STR_28(28), 
  4929 ;;		 -> STR_27(18), STR_26(6), STR_25(17), STR_24(17), 
  4930 ;;		 -> STR_23(26), STR_22(26), STR_21(26), STR_20(28), 
  4931 ;;		 -> STR_19(26), STR_18(26), STR_17(26), STR_16(26), 
  4932 ;;		 -> STR_15(26), STR_14(26), STR_13(26), STR_12(26), 
  4933 ;;		 -> STR_11(27), STR_10(27), STR_9(17), STR_8(17), 
  4934 ;;		 -> STR_7(17), STR_6(17), STR_5(17), STR_4(17), 
  4935 ;;		 -> STR_3(17), STR_2(6), STR_1(6), 
  4936 ;;  ap              2   82[COMRAM] PTR PTR void 
  4937 ;;		 -> printf@ap(2), 
  4938 ;; Auto vars:     Size  Location     Type
  4939 ;;  cfmt            2   84[COMRAM] PTR unsigned char 
  4940 ;;		 -> STR_51(30), STR_50(30), STR_49(22), STR_48(22), 
  4941 ;;		 -> STR_47(22), STR_46(11), STR_45(18), STR_44(18), 
  4942 ;;		 -> STR_43(18), STR_42(18), STR_41(18), STR_40(18), 
  4943 ;;		 -> STR_39(18), STR_38(18), STR_37(18), STR_36(18), 
  4944 ;;		 -> STR_35(18), STR_34(18), STR_33(18), STR_32(18), 
  4945 ;;		 -> STR_31(18), STR_30(28), STR_29(28), STR_28(28), 
  4946 ;;		 -> STR_27(18), STR_26(6), STR_25(17), STR_24(17), 
  4947 ;;		 -> STR_23(26), STR_22(26), STR_21(26), STR_20(28), 
  4948 ;;		 -> STR_19(26), STR_18(26), STR_17(26), STR_16(26), 
  4949 ;;		 -> STR_15(26), STR_14(26), STR_13(26), STR_12(26), 
  4950 ;;		 -> STR_11(27), STR_10(27), STR_9(17), STR_8(17), 
  4951 ;;		 -> STR_7(17), STR_6(17), STR_5(17), STR_4(17), 
  4952 ;;		 -> STR_3(17), STR_2(6), STR_1(6), 
  4953 ;; Return value:  Size  Location     Type
  4954 ;;                  2   78[COMRAM] int 
  4955 ;; Registers used:
  4956 ;;		wreg, fsr1l, fsr1h, fsr2l, fsr2h, status,2, status,0, tblptrl, tblptrh, tblptru, prodl, prodh, cstack
  4957 ;; Tracked objects:
  4958 ;;		On entry : 0/0
  4959 ;;		On exit  : 0/0
  4960 ;;		Unchanged: 0/0
  4961 ;; Data sizes:     COMRAM   BANK0   BANK1   BANK2   BANK3   BANK4   BANK5   BANK6   BANK7   BANK8   BANK9  BANK10  BANK1
      +1  BANK12  BANK13
  4962 ;;      Params:         6       0       0       0       0       0       0       0       0       0       0       0       
      +0       0       0
  4963 ;;      Locals:         2       0       0       0       0       0       0       0       0       0       0       0       
      +0       0       0
  4964 ;;      Temps:          0       0       0       0       0       0       0       0       0       0       0       0       
      +0       0       0
  4965 ;;      Totals:         8       0       0       0       0       0       0       0       0       0       0       0       
      +0       0       0
  4966 ;;Total ram usage:        8 bytes
  4967 ;; Hardware stack levels used:    1
  4968 ;; Hardware stack levels required when called:    7
  4969 ;; This function calls:
  4970 ;;		_vfpfcnvrt
  4971 ;; This function is called by:
  4972 ;;		_printf
  4973 ;; This function uses a non-reentrant model
  4974 ;;
  4975                           
  4976                           	psect	text21
  4977  012CB4                     __ptext21:
  4978                           	callstack 0
  4979  012CB4                     _vfprintf:
  4980                           	callstack 20
  4981  012CB4                     
  4982                           ;C:\Program Files\Microchip\xc8\v2.31\pic\sources\c99\common\doprnt.c: 1390: int vfprint
      +                          f(FILE *fp, const char *fmt, va_list ap);C:\Program Files\Microchip\xc8\v2.31\pic\source
      +                          s\c99\common\doprnt.c: 1391: {;C:\Program Files\Microchip\xc8\v2.31\pic\sources\c99\comm
      +                          on\doprnt.c: 1393:     char *cfmt;;C:\Program Files\Microchip\xc8\v2.31\pic\sources\c99\
      +                          common\doprnt.c: 1395:     cfmt = (char *)fmt;
  4983  012CB4  C051  F055         	movff	vfprintf@fmt,vfprintf@cfmt
  4984  012CB8  C052  F056         	movff	vfprintf@fmt+1,vfprintf@cfmt+1
  4985  012CBC                     
  4986                           ;C:\Program Files\Microchip\xc8\v2.31\pic\sources\c99\common\doprnt.c: 1396:     nout = 
      +                          0;
  4987  012CBC  0E00               	movlw	0
  4988  012CBE  0100               	movlb	0	; () banked
  4989  012CC0  6F61               	movwf	(_nout+1)& (0+255),b
  4990  012CC2  0E00               	movlw	0
  4991  012CC4  6F60               	movwf	_nout& (0+255),b
  4992                           
  4993                           ;C:\Program Files\Microchip\xc8\v2.31\pic\sources\c99\common\doprnt.c: 1397:     while (
      +                          *cfmt) {
  4994  012CC6  EF78  F096         	goto	l4505
  4995  012CCA                     l4503:
  4996                           
  4997                           ; BSR set to: 0
  4998                           ;C:\Program Files\Microchip\xc8\v2.31\pic\sources\c99\common\doprnt.c: 1398:         nou
      +                          t += vfpfcnvrt(fp, &cfmt, ap);
  4999  012CCA  C04F  F045         	movff	vfprintf@fp,vfpfcnvrt@fp
  5000  012CCE  C050  F046         	movff	vfprintf@fp+1,vfpfcnvrt@fp+1
  5001  012CD2  0E55               	movlw	low vfprintf@cfmt
  5002  012CD4  6E47               	movwf	vfpfcnvrt@fmt^0,c
  5003  012CD6  0E00               	movlw	high vfprintf@cfmt
  5004  012CD8  6E48               	movwf	(vfpfcnvrt@fmt+1)^0,c
  5005  012CDA  C053  F049         	movff	vfprintf@ap,vfpfcnvrt@ap
  5006  012CDE  C054  F04A         	movff	vfprintf@ap+1,vfpfcnvrt@ap+1
  5007  012CE2  EC3A  F086         	call	_vfpfcnvrt	;wreg free
  5008  012CE6  5045               	movf	?_vfpfcnvrt^0,w,c
  5009  012CE8  0100               	movlb	0	; () banked
  5010  012CEA  2760               	addwf	_nout& (0+255),f,b
  5011  012CEC  5046               	movf	(?_vfpfcnvrt+1)^0,w,c
  5012  012CEE  2361               	addwfc	(_nout+1)& (0+255),f,b
  5013  012CF0                     l4505:
  5014                           
  5015                           ; BSR set to: 0
  5016                           ;C:\Program Files\Microchip\xc8\v2.31\pic\sources\c99\common\doprnt.c: 1397:     while (
      +                          *cfmt) {
  5017  012CF0  C055  FFF6         	movff	vfprintf@cfmt,tblptrl
  5018  012CF4  C056  FFF7         	movff	vfprintf@cfmt+1,tblptrh
  5019  012CF8                     	if	0	;tblptru may be non-zero
  5020  012CF8                     	endif
  5021  012CF8                     	if	1	;Program memory is > 0xFFFF, there are 3 active tblptr bytes
  5022  012CF8  0E00               	movlw	low (__mediumconst shr (0+16))
  5023  012CFA  6EF8               	movwf	tblptru,c
  5024  012CFC                     	endif
  5025  012CFC  0008               	tblrd		*
  5026  012CFE  50F5               	movf	tablat,w,c
  5027  012D00  0900               	iorlw	0
  5028  012D02  A4D8               	btfss	status,2,c
  5029  012D04  EF86  F096         	goto	u3101
  5030  012D08  EF88  F096         	goto	u3100
  5031  012D0C                     u3101:
  5032  012D0C  EF65  F096         	goto	l4503
  5033  012D10                     u3100:
  5034  012D10                     
  5035                           ; BSR set to: 0
  5036                           ;C:\Program Files\Microchip\xc8\v2.31\pic\sources\c99\common\doprnt.c: 1400:     return 
      +                          nout;
  5037  012D10  C060  F04F         	movff	_nout,?_vfprintf
  5038  012D14  C061  F050         	movff	_nout+1,?_vfprintf+1
  5039  012D18                     
  5040                           ; BSR set to: 0
  5041  012D18  0012               	return		;funcret
  5042  012D1A                     __end_of_vfprintf:
  5043                           	callstack 0
  5044                           
  5045 ;; *************** function _vfpfcnvrt *****************
  5046 ;; Defined at:
  5047 ;;		line 692 in file "C:\Program Files\Microchip\xc8\v2.31\pic\sources\c99\common\doprnt.c"
  5048 ;; Parameters:    Size  Location     Type
  5049 ;;  fp              2   68[COMRAM] PTR struct _IO_FILE
  5050 ;;		 -> NULL(0), 
  5051 ;;  fmt             2   70[COMRAM] PTR PTR unsigned char 
  5052 ;;		 -> vfprintf@cfmt(2), 
  5053 ;;  ap              2   72[COMRAM] PTR PTR void 
  5054 ;;		 -> printf@ap(2), 
  5055 ;; Auto vars:     Size  Location     Type
  5056 ;;  llu             8    8[BANK0 ] unsigned long long 
  5057 ;;  ll              8    0[BANK0 ] long long 
  5058 ;;  f               4    0        long long 
  5059 ;;  vp              3    0        PTR void 
  5060 ;;  ct              3    0        unsigned char [3]
  5061 ;;  cp              3    0        PTR unsigned char 
  5062 ;;  done            2   16[BANK0 ] int 
  5063 ;;  i               2    0        int 
  5064 ;;  c               1   20[BANK0 ] unsigned char 
  5065 ;; Return value:  Size  Location     Type
  5066 ;;                  2   68[COMRAM] int 
  5067 ;; Registers used:
  5068 ;;		wreg, fsr1l, fsr1h, fsr2l, fsr2h, status,2, status,0, tblptrl, tblptrh, tblptru, prodl, prodh, cstack
  5069 ;; Tracked objects:
  5070 ;;		On entry : 0/0
  5071 ;;		On exit  : 0/0
  5072 ;;		Unchanged: 0/0
  5073 ;; Data sizes:     COMRAM   BANK0   BANK1   BANK2   BANK3   BANK4   BANK5   BANK6   BANK7   BANK8   BANK9  BANK10  BANK1
      +1  BANK12  BANK13
  5074 ;;      Params:         6       0       0       0       0       0       0       0       0       0       0       0       
      +0       0       0
  5075 ;;      Locals:         0      21       0       0       0       0       0       0       0       0       0       0       
      +0       0       0
  5076 ;;      Temps:          4       0       0       0       0       0       0       0       0       0       0       0       
      +0       0       0
  5077 ;;      Totals:        10      21       0       0       0       0       0       0       0       0       0       0       
      +0       0       0
  5078 ;;Total ram usage:       31 bytes
  5079 ;; Hardware stack levels used:    1
  5080 ;; Hardware stack levels required when called:    6
  5081 ;; This function calls:
  5082 ;;		_atoi
  5083 ;;		_dtoa
  5084 ;;		_fputc
  5085 ;;		_isdigit
  5086 ;;		_xtoa
  5087 ;; This function is called by:
  5088 ;;		_vfprintf
  5089 ;; This function uses a non-reentrant model
  5090 ;;
  5091                           
  5092                           	psect	text22
  5093  010C74                     __ptext22:
  5094                           	callstack 0
  5095  010C74                     _vfpfcnvrt:
  5096                           	callstack 20
  5097  010C74                     
  5098                           ;C:\Program Files\Microchip\xc8\v2.31\pic\sources\c99\common\doprnt.c: 692: static int v
      +                          fpfcnvrt(FILE *fp, char *fmt[], va_list ap);C:\Program Files\Microchip\xc8\v2.31\pic\sou
      +                          rces\c99\common\doprnt.c: 693: {;C:\Program Files\Microchip\xc8\v2.31\pic\sources\c99\co
      +                          mmon\doprnt.c: 694:     char c, *cp, ct[3];;C:\Program Files\Microchip\xc8\v2.31\pic\sou
      +                          rces\c99\common\doprnt.c: 695:     int done, i;;C:\Program Files\Microchip\xc8\v2.31\pic
      +                          \sources\c99\common\doprnt.c: 696:     long long ll;;C:\Program Files\Microchip\xc8\v2.3
      +                          1\pic\sources\c99\common\doprnt.c: 697:     unsigned long long llu;
  5099  010C74  C047  FFD9         	movff	vfpfcnvrt@fmt,fsr2l
  5100  010C78  C048  FFDA         	movff	vfpfcnvrt@fmt+1,fsr2h
  5101  010C7C  CFDE FFF6          	movff	postinc2,tblptrl
  5102  010C80  CFDD FFF7          	movff	postdec2,tblptrh
  5103  010C84                     	if	0	;tblptru may be non-zero
  5104  010C84                     	endif
  5105  010C84                     	if	1	;Program memory is > 0xFFFF, there are 3 active tblptr bytes
  5106  010C84  0E00               	movlw	low (__mediumconst shr (0+16))
  5107  010C86  6EF8               	movwf	tblptru,c
  5108  010C88                     	endif
  5109  010C88  0008               	tblrd		*
  5110  010C8A  50F5               	movf	tablat,w,c
  5111  010C8C  0A25               	xorlw	37
  5112  010C8E  A4D8               	btfss	status,2,c
  5113  010C90  EF4C  F086         	goto	u2871
  5114  010C94  EF4E  F086         	goto	u2870
  5115  010C98                     u2871:
  5116  010C98  EF5A  F088         	goto	l3745
  5117  010C9C                     u2870:
  5118  010C9C                     
  5119                           ;C:\Program Files\Microchip\xc8\v2.31\pic\sources\c99\common\doprnt.c: 703:         ++*f
      +                          mt;
  5120  010C9C  C047  FFD9         	movff	vfpfcnvrt@fmt,fsr2l
  5121  010CA0  C048  FFDA         	movff	vfpfcnvrt@fmt+1,fsr2h
  5122  010CA4  2ADE               	incf	postinc2,f,c
  5123  010CA6  0E00               	movlw	0
  5124  010CA8  22DD               	addwfc	postdec2,f,c
  5125  010CAA                     
  5126                           ;C:\Program Files\Microchip\xc8\v2.31\pic\sources\c99\common\doprnt.c: 705:         flag
      +                          s = width = 0;
  5127  010CAA  0E00               	movlw	0
  5128  010CAC  0100               	movlb	0	; () banked
  5129  010CAE  6F63               	movwf	(_width+1)& (0+255),b
  5130  010CB0  0E00               	movlw	0
  5131  010CB2  6F62               	movwf	_width& (0+255),b
  5132  010CB4  C062  F066         	movff	_width,_flags
  5133  010CB8  C063  F067         	movff	_width+1,_flags+1
  5134  010CBC                     
  5135                           ; BSR set to: 0
  5136                           ;C:\Program Files\Microchip\xc8\v2.31\pic\sources\c99\common\doprnt.c: 706:         prec
      +                           = -1;
  5137  010CBC  6964               	setf	_prec& (0+255),b
  5138  010CBE  6965               	setf	(_prec+1)& (0+255),b
  5139  010CC0                     
  5140                           ; BSR set to: 0
  5141                           ;C:\Program Files\Microchip\xc8\v2.31\pic\sources\c99\common\doprnt.c: 710:         done
      +                           = 0;
  5142  010CC0  0E00               	movlw	0
  5143  010CC2  6F99               	movwf	(vfpfcnvrt@done+1)& (0+255),b
  5144  010CC4  0E00               	movlw	0
  5145  010CC6  6F98               	movwf	vfpfcnvrt@done& (0+255),b
  5146                           
  5147                           ;C:\Program Files\Microchip\xc8\v2.31\pic\sources\c99\common\doprnt.c: 711:         whil
      +                          e (!done) {
  5148  010CC8  EFAE  F086         	goto	l3683
  5149  010CCC                     l3657:
  5150                           
  5151                           ; BSR set to: 0
  5152                           ;C:\Program Files\Microchip\xc8\v2.31\pic\sources\c99\common\doprnt.c: 714:             
      +                                  flags |= (1 << 0);
  5153  010CCC  8166               	bsf	_flags& (0+255),0,b
  5154  010CCE                     l3659:
  5155                           
  5156                           ; BSR set to: 0
  5157                           ;C:\Program Files\Microchip\xc8\v2.31\pic\sources\c99\common\doprnt.c: 715:             
      +                                  ++*fmt;
  5158  010CCE  C047  FFD9         	movff	vfpfcnvrt@fmt,fsr2l
  5159  010CD2  C048  FFDA         	movff	vfpfcnvrt@fmt+1,fsr2h
  5160  010CD6  2ADE               	incf	postinc2,f,c
  5161  010CD8  0E00               	movlw	0
  5162  010CDA  22DD               	addwfc	postdec2,f,c
  5163                           
  5164                           ;C:\Program Files\Microchip\xc8\v2.31\pic\sources\c99\common\doprnt.c: 716:             
      +                                  break;
  5165  010CDC  EFAE  F086         	goto	l3683
  5166  010CE0                     l3661:
  5167                           
  5168                           ; BSR set to: 0
  5169                           ;C:\Program Files\Microchip\xc8\v2.31\pic\sources\c99\common\doprnt.c: 718:             
      +                                  flags |= (1 << 1);
  5170  010CE0  8366               	bsf	_flags& (0+255),1,b
  5171  010CE2  EF67  F086         	goto	l3659
  5172  010CE6                     l3665:
  5173                           
  5174                           ; BSR set to: 0
  5175                           ;C:\Program Files\Microchip\xc8\v2.31\pic\sources\c99\common\doprnt.c: 722:             
      +                                  flags |= (1 << 2);
  5176  010CE6  8566               	bsf	_flags& (0+255),2,b
  5177  010CE8  EF67  F086         	goto	l3659
  5178  010CEC                     l3669:
  5179                           
  5180                           ; BSR set to: 0
  5181                           ;C:\Program Files\Microchip\xc8\v2.31\pic\sources\c99\common\doprnt.c: 726:             
      +                                  flags |= (1 << 3);
  5182  010CEC  8766               	bsf	_flags& (0+255),3,b
  5183  010CEE  EF67  F086         	goto	l3659
  5184  010CF2                     l3673:
  5185                           
  5186                           ; BSR set to: 0
  5187                           ;C:\Program Files\Microchip\xc8\v2.31\pic\sources\c99\common\doprnt.c: 730:             
      +                                  flags |= (1 << 4);
  5188  010CF2  8966               	bsf	_flags& (0+255),4,b
  5189  010CF4  EF67  F086         	goto	l3659
  5190  010CF8                     l3677:
  5191                           
  5192                           ; BSR set to: 0
  5193                           ;C:\Program Files\Microchip\xc8\v2.31\pic\sources\c99\common\doprnt.c: 734:             
      +                                  done = 1;
  5194  010CF8  0E00               	movlw	0
  5195  010CFA  6F99               	movwf	(vfpfcnvrt@done+1)& (0+255),b
  5196  010CFC  0E01               	movlw	1
  5197  010CFE  6F98               	movwf	vfpfcnvrt@done& (0+255),b
  5198                           
  5199                           ;C:\Program Files\Microchip\xc8\v2.31\pic\sources\c99\common\doprnt.c: 735:             
      +                                  break;
  5200  010D00  EFAE  F086         	goto	l3683
  5201  010D04                     l3681:
  5202                           
  5203                           ; BSR set to: 0
  5204  010D04  C047  FFD9         	movff	vfpfcnvrt@fmt,fsr2l
  5205  010D08  C048  FFDA         	movff	vfpfcnvrt@fmt+1,fsr2h
  5206  010D0C  CFDE FFF6          	movff	postinc2,tblptrl
  5207  010D10  CFDD FFF7          	movff	postdec2,tblptrh
  5208  010D14                     	if	0	;tblptru may be non-zero
  5209  010D14                     	endif
  5210  010D14                     	if	1	;Program memory is > 0xFFFF, there are 3 active tblptr bytes
  5211  010D14  0E00               	movlw	low (__mediumconst shr (0+16))
  5212  010D16  6EF8               	movwf	tblptru,c
  5213  010D18                     	endif
  5214  010D18  0008               	tblrd		*
  5215  010D1A  50F5               	movf	tablat,w,c
  5216  010D1C  6E4B               	movwf	??_vfpfcnvrt^0,c
  5217  010D1E  6A4C               	clrf	(??_vfpfcnvrt+1)^0,c
  5218                           
  5219                           ; Switch on 2 bytes has been partitioned into a top level switch of size 1, and 1 sub-sw
      +                          itches
  5220                           ; Switch size 1, requested type "simple"
  5221                           ; Number of cases is 1, Range of values is 0 to 0
  5222                           ; switch strategies available:
  5223                           ; Name         Instructions Cycles
  5224                           ; simple_byte            4     3 (average)
  5225                           ;	Chosen strategy is simple_byte
  5226  010D20  504C               	movf	(??_vfpfcnvrt+1)^0,w,c
  5227  010D22  0A00               	xorlw	0	; case 0
  5228  010D24  B4D8               	btfsc	status,2,c
  5229  010D26  EF97  F086         	goto	l5325
  5230  010D2A  EF7C  F086         	goto	l3677
  5231  010D2E                     l5325:
  5232                           
  5233                           ; BSR set to: 0
  5234                           ; Switch size 1, requested type "simple"
  5235                           ; Number of cases is 5, Range of values is 32 to 48
  5236                           ; switch strategies available:
  5237                           ; Name         Instructions Cycles
  5238                           ; simple_byte           16     9 (average)
  5239                           ;	Chosen strategy is simple_byte
  5240  010D2E  504B               	movf	??_vfpfcnvrt^0,w,c
  5241  010D30  0A20               	xorlw	32	; case 32
  5242  010D32  B4D8               	btfsc	status,2,c
  5243  010D34  EF76  F086         	goto	l3669
  5244  010D38  0A03               	xorlw	3	; case 35
  5245  010D3A  B4D8               	btfsc	status,2,c
  5246  010D3C  EF79  F086         	goto	l3673
  5247  010D40  0A08               	xorlw	8	; case 43
  5248  010D42  B4D8               	btfsc	status,2,c
  5249  010D44  EF73  F086         	goto	l3665
  5250  010D48  0A06               	xorlw	6	; case 45
  5251  010D4A  B4D8               	btfsc	status,2,c
  5252  010D4C  EF66  F086         	goto	l3657
  5253  010D50  0A1D               	xorlw	29	; case 48
  5254  010D52  B4D8               	btfsc	status,2,c
  5255  010D54  EF70  F086         	goto	l3661
  5256  010D58  EF7C  F086         	goto	l3677
  5257  010D5C                     l3683:
  5258                           
  5259                           ; BSR set to: 0
  5260                           ;C:\Program Files\Microchip\xc8\v2.31\pic\sources\c99\common\doprnt.c: 711:         whil
      +                          e (!done) {
  5261  010D5C  5198               	movf	vfpfcnvrt@done& (0+255),w,b
  5262  010D5E  1199               	iorwf	(vfpfcnvrt@done+1)& (0+255),w,b
  5263  010D60  B4D8               	btfsc	status,2,c
  5264  010D62  EFB5  F086         	goto	u2881
  5265  010D66  EFB7  F086         	goto	u2880
  5266  010D6A                     u2881:
  5267  010D6A  EF82  F086         	goto	l3681
  5268  010D6E                     u2880:
  5269  010D6E                     
  5270                           ; BSR set to: 0
  5271                           ;C:\Program Files\Microchip\xc8\v2.31\pic\sources\c99\common\doprnt.c: 738:         if (
      +                          flags & (1 << 0)) {
  5272  010D6E  A166               	btfss	_flags& (0+255),0,b
  5273  010D70  EFBC  F086         	goto	u2891
  5274  010D74  EFBE  F086         	goto	u2890
  5275  010D78                     u2891:
  5276  010D78  EFBF  F086         	goto	l3687
  5277  010D7C                     u2890:
  5278  010D7C                     
  5279                           ; BSR set to: 0
  5280                           ;C:\Program Files\Microchip\xc8\v2.31\pic\sources\c99\common\doprnt.c: 739:             
      +                          flags &= ~(1 << 1);
  5281  010D7C  9366               	bcf	_flags& (0+255),1,b
  5282  010D7E                     l3687:
  5283                           
  5284                           ; BSR set to: 0
  5285                           ;C:\Program Files\Microchip\xc8\v2.31\pic\sources\c99\common\doprnt.c: 745:         if (
      +                          (*fmt)[0] == '*') {
  5286  010D7E  C047  FFD9         	movff	vfpfcnvrt@fmt,fsr2l
  5287  010D82  C048  FFDA         	movff	vfpfcnvrt@fmt+1,fsr2h
  5288  010D86  CFDE FFF6          	movff	postinc2,tblptrl
  5289  010D8A  CFDD FFF7          	movff	postdec2,tblptrh
  5290  010D8E                     	if	0	;tblptru may be non-zero
  5291  010D8E                     	endif
  5292  010D8E                     	if	1	;Program memory is > 0xFFFF, there are 3 active tblptr bytes
  5293  010D8E  0E00               	movlw	low (__mediumconst shr (0+16))
  5294  010D90  6EF8               	movwf	tblptru,c
  5295  010D92                     	endif
  5296  010D92  0008               	tblrd		*
  5297  010D94  50F5               	movf	tablat,w,c
  5298  010D96  0A2A               	xorlw	42
  5299  010D98  A4D8               	btfss	status,2,c
  5300  010D9A  EFD1  F086         	goto	u2901
  5301  010D9E  EFD3  F086         	goto	u2900
  5302  010DA2                     u2901:
  5303  010DA2  EFFC  F086         	goto	l3695
  5304  010DA6                     u2900:
  5305  010DA6                     
  5306                           ; BSR set to: 0
  5307                           ;C:\Program Files\Microchip\xc8\v2.31\pic\sources\c99\common\doprnt.c: 746:             
      +                          ++*fmt;
  5308  010DA6  C047  FFD9         	movff	vfpfcnvrt@fmt,fsr2l
  5309  010DAA  C048  FFDA         	movff	vfpfcnvrt@fmt+1,fsr2h
  5310  010DAE  2ADE               	incf	postinc2,f,c
  5311  010DB0  0E00               	movlw	0
  5312  010DB2  22DD               	addwfc	postdec2,f,c
  5313                           
  5314                           ;C:\Program Files\Microchip\xc8\v2.31\pic\sources\c99\common\doprnt.c: 747:             
      +                          width = (*(int *)__va_arg(*(int **)ap, (int)0));
  5315  010DB4  C049  FFD9         	movff	vfpfcnvrt@ap,fsr2l
  5316  010DB8  C04A  FFDA         	movff	vfpfcnvrt@ap+1,fsr2h
  5317  010DBC  CFDF F04B          	movff	indf2,??_vfpfcnvrt
  5318  010DC0  0E02               	movlw	2
  5319  010DC2  26DE               	addwf	postinc2,f,c
  5320  010DC4  CFDF F04C          	movff	indf2,??_vfpfcnvrt+1
  5321  010DC8  0E00               	movlw	0
  5322  010DCA  22DD               	addwfc	postdec2,f,c
  5323  010DCC  C04B  FFD9         	movff	??_vfpfcnvrt,fsr2l
  5324  010DD0  C04C  FFDA         	movff	??_vfpfcnvrt+1,fsr2h
  5325  010DD4  CFDE F062          	movff	postinc2,_width
  5326  010DD8  CFDD F063          	movff	postdec2,_width+1
  5327  010DDC                     
  5328                           ; BSR set to: 0
  5329                           ;C:\Program Files\Microchip\xc8\v2.31\pic\sources\c99\common\doprnt.c: 748:             
      +                          if (width < 0) {
  5330  010DDC  BF63               	btfsc	(_width+1)& (0+255),7,b
  5331  010DDE  EFF5  F086         	goto	u2910
  5332  010DE2  EFF3  F086         	goto	u2911
  5333  010DE6                     u2911:
  5334  010DE6  EF42  F087         	goto	l3705
  5335  010DEA                     u2910:
  5336  010DEA                     
  5337                           ; BSR set to: 0
  5338                           ;C:\Program Files\Microchip\xc8\v2.31\pic\sources\c99\common\doprnt.c: 749:             
      +                              flags |= (1 << 0);
  5339  010DEA  8166               	bsf	_flags& (0+255),0,b
  5340                           
  5341                           ;C:\Program Files\Microchip\xc8\v2.31\pic\sources\c99\common\doprnt.c: 750:             
      +                              width = -width;
  5342  010DEC  6D62               	negf	_width& (0+255),b
  5343  010DEE  1F63               	comf	(_width+1)& (0+255),f,b
  5344  010DF0  B0D8               	btfsc	status,0,c
  5345  010DF2  2B63               	incf	(_width+1)& (0+255),f,b
  5346  010DF4  EF42  F087         	goto	l3705
  5347  010DF8                     l3695:
  5348                           
  5349                           ; BSR set to: 0
  5350                           ;C:\Program Files\Microchip\xc8\v2.31\pic\sources\c99\common\doprnt.c: 753:             
      +                          width = atoi(*fmt);
  5351  010DF8  C047  FFD9         	movff	vfpfcnvrt@fmt,fsr2l
  5352  010DFC  C048  FFDA         	movff	vfpfcnvrt@fmt+1,fsr2h
  5353  010E00  CFDE F008          	movff	postinc2,atoi@s
  5354  010E04  CFDD F009          	movff	postdec2,atoi@s+1
  5355  010E08  EC25  F091         	call	_atoi	;wreg free
  5356  010E0C  C008  F062         	movff	?_atoi,_width
  5357  010E10  C009  F063         	movff	?_atoi+1,_width+1
  5358                           
  5359                           ;C:\Program Files\Microchip\xc8\v2.31\pic\sources\c99\common\doprnt.c: 754:             
      +                          while ((0 ? isdigit((*fmt)[0]) : ((unsigned)((*fmt)[0])-'0') < 10)) {
  5360  010E14  EF13  F087         	goto	l3699
  5361  010E18                     l3697:
  5362                           
  5363                           ; BSR set to: 0
  5364                           ;C:\Program Files\Microchip\xc8\v2.31\pic\sources\c99\common\doprnt.c: 755:             
      +                              ++*fmt;
  5365  010E18  C047  FFD9         	movff	vfpfcnvrt@fmt,fsr2l
  5366  010E1C  C048  FFDA         	movff	vfpfcnvrt@fmt+1,fsr2h
  5367  010E20  2ADE               	incf	postinc2,f,c
  5368  010E22  0E00               	movlw	0
  5369  010E24  22DD               	addwfc	postdec2,f,c
  5370  010E26                     l3699:
  5371  010E26  0ED0               	movlw	208
  5372  010E28  6E4B               	movwf	??_vfpfcnvrt^0,c
  5373  010E2A  0EFF               	movlw	255
  5374  010E2C  6E4C               	movwf	(??_vfpfcnvrt+1)^0,c
  5375  010E2E  C047  FFD9         	movff	vfpfcnvrt@fmt,fsr2l
  5376  010E32  C048  FFDA         	movff	vfpfcnvrt@fmt+1,fsr2h
  5377  010E36  CFDE FFF6          	movff	postinc2,tblptrl
  5378  010E3A  CFDD FFF7          	movff	postdec2,tblptrh
  5379  010E3E                     	if	0	;tblptru may be non-zero
  5380  010E3E                     	endif
  5381  010E3E                     	if	1	;Program memory is > 0xFFFF, there are 3 active tblptr bytes
  5382  010E3E  0E00               	movlw	low (__mediumconst shr (0+16))
  5383  010E40  6EF8               	movwf	tblptru,c
  5384  010E42                     	endif
  5385  010E42  0008               	tblrd		*
  5386  010E44  50F5               	movf	tablat,w,c
  5387  010E46  6E4D               	movwf	(??_vfpfcnvrt+2)^0,c
  5388  010E48  6A4E               	clrf	(??_vfpfcnvrt+3)^0,c
  5389  010E4A  504B               	movf	??_vfpfcnvrt^0,w,c
  5390  010E4C  264D               	addwf	(??_vfpfcnvrt+2)^0,f,c
  5391  010E4E  504C               	movf	(??_vfpfcnvrt+1)^0,w,c
  5392  010E50  224E               	addwfc	(??_vfpfcnvrt+3)^0,f,c
  5393  010E52  504E               	movf	(??_vfpfcnvrt+3)^0,w,c
  5394  010E54  E10A               	bnz	u2920
  5395  010E56  0E0A               	movlw	10
  5396  010E58  5C4D               	subwf	(??_vfpfcnvrt+2)^0,w,c
  5397  010E5A  A0D8               	btfss	status,0,c
  5398  010E5C  EF32  F087         	goto	u2921
  5399  010E60  EF35  F087         	goto	u2920
  5400  010E64                     u2921:
  5401  010E64  0E01               	movlw	1
  5402  010E66  EF36  F087         	goto	u2930
  5403  010E6A                     u2920:
  5404  010E6A  0E00               	movlw	0
  5405  010E6C                     u2930:
  5406  010E6C  0100               	movlb	0	; () banked
  5407  010E6E  6F9A               	movwf	_vfpfcnvrt$1660& (0+255),b
  5408  010E70  6B9B               	clrf	(_vfpfcnvrt$1660+1)& (0+255),b
  5409  010E72                     
  5410                           ; BSR set to: 0
  5411  010E72  519A               	movf	_vfpfcnvrt$1660& (0+255),w,b
  5412  010E74  119B               	iorwf	(_vfpfcnvrt$1660+1)& (0+255),w,b
  5413  010E76  A4D8               	btfss	status,2,c
  5414  010E78  EF40  F087         	goto	u2941
  5415  010E7C  EF42  F087         	goto	u2940
  5416  010E80                     u2941:
  5417  010E80  EF0C  F087         	goto	l3697
  5418  010E84                     u2940:
  5419  010E84                     l3705:
  5420                           
  5421                           ; BSR set to: 0
  5422                           ;C:\Program Files\Microchip\xc8\v2.31\pic\sources\c99\common\doprnt.c: 847:         if (
      +                          (*fmt[0] == 'd') || (*fmt[0] == 'i')) {
  5423  010E84  C047  FFD9         	movff	vfpfcnvrt@fmt,fsr2l
  5424  010E88  C048  FFDA         	movff	vfpfcnvrt@fmt+1,fsr2h
  5425  010E8C  CFDE FFF6          	movff	postinc2,tblptrl
  5426  010E90  CFDD FFF7          	movff	postdec2,tblptrh
  5427  010E94                     	if	0	;tblptru may be non-zero
  5428  010E94                     	endif
  5429  010E94                     	if	1	;Program memory is > 0xFFFF, there are 3 active tblptr bytes
  5430  010E94  0E00               	movlw	low (__mediumconst shr (0+16))
  5431  010E96  6EF8               	movwf	tblptru,c
  5432  010E98                     	endif
  5433  010E98  0008               	tblrd		*
  5434  010E9A  50F5               	movf	tablat,w,c
  5435  010E9C  0A64               	xorlw	100
  5436  010E9E  B4D8               	btfsc	status,2,c
  5437  010EA0  EF54  F087         	goto	u2951
  5438  010EA4  EF56  F087         	goto	u2950
  5439  010EA8                     u2951:
  5440  010EA8  EF6A  F087         	goto	l3709
  5441  010EAC                     u2950:
  5442  010EAC                     
  5443                           ; BSR set to: 0
  5444  010EAC  C047  FFD9         	movff	vfpfcnvrt@fmt,fsr2l
  5445  010EB0  C048  FFDA         	movff	vfpfcnvrt@fmt+1,fsr2h
  5446  010EB4  CFDE FFF6          	movff	postinc2,tblptrl
  5447  010EB8  CFDD FFF7          	movff	postdec2,tblptrh
  5448  010EBC                     	if	0	;tblptru may be non-zero
  5449  010EBC                     	endif
  5450  010EBC                     	if	1	;Program memory is > 0xFFFF, there are 3 active tblptr bytes
  5451  010EBC  0E00               	movlw	low (__mediumconst shr (0+16))
  5452  010EBE  6EF8               	movwf	tblptru,c
  5453  010EC0                     	endif
  5454  010EC0  0008               	tblrd		*
  5455  010EC2  50F5               	movf	tablat,w,c
  5456  010EC4  0A69               	xorlw	105
  5457  010EC6  A4D8               	btfss	status,2,c
  5458  010EC8  EF68  F087         	goto	u2961
  5459  010ECC  EF6A  F087         	goto	u2960
  5460  010ED0                     u2961:
  5461  010ED0  EFAA  F087         	goto	l3715
  5462  010ED4                     u2960:
  5463  010ED4                     l3709:
  5464                           
  5465                           ; BSR set to: 0
  5466                           ;C:\Program Files\Microchip\xc8\v2.31\pic\sources\c99\common\doprnt.c: 849:             
      +                          ++*fmt;
  5467  010ED4  C047  FFD9         	movff	vfpfcnvrt@fmt,fsr2l
  5468  010ED8  C048  FFDA         	movff	vfpfcnvrt@fmt+1,fsr2h
  5469  010EDC  2ADE               	incf	postinc2,f,c
  5470  010EDE  0E00               	movlw	0
  5471  010EE0  22DD               	addwfc	postdec2,f,c
  5472                           
  5473                           ;C:\Program Files\Microchip\xc8\v2.31\pic\sources\c99\common\doprnt.c: 850:             
      +                          ll = (long long)(*(int *)__va_arg(*(int **)ap, (int)0));
  5474  010EE2  C049  FFD9         	movff	vfpfcnvrt@ap,fsr2l
  5475  010EE6  C04A  FFDA         	movff	vfpfcnvrt@ap+1,fsr2h
  5476  010EEA  CFDF F04B          	movff	indf2,??_vfpfcnvrt
  5477  010EEE  0E02               	movlw	2
  5478  010EF0  26DE               	addwf	postinc2,f,c
  5479  010EF2  CFDF F04C          	movff	indf2,??_vfpfcnvrt+1
  5480  010EF6  0E00               	movlw	0
  5481  010EF8  22DD               	addwfc	postdec2,f,c
  5482  010EFA  C04B  FFD9         	movff	??_vfpfcnvrt,fsr2l
  5483  010EFE  C04C  FFDA         	movff	??_vfpfcnvrt+1,fsr2h
  5484  010F02  CFDE F088          	movff	postinc2,vfpfcnvrt@ll
  5485  010F06  CFDD F089          	movff	postdec2,vfpfcnvrt@ll+1
  5486  010F0A  0E00               	movlw	0
  5487  010F0C  BF89               	btfsc	(vfpfcnvrt@ll+1)& (0+255),7,b
  5488  010F0E  0EFF               	movlw	-1
  5489  010F10  6F8A               	movwf	(vfpfcnvrt@ll+2)& (0+255),b
  5490  010F12  6F8B               	movwf	(vfpfcnvrt@ll+3)& (0+255),b
  5491  010F14  6F8C               	movwf	(vfpfcnvrt@ll+4)& (0+255),b
  5492  010F16  6F8D               	movwf	(vfpfcnvrt@ll+5)& (0+255),b
  5493  010F18  6F8E               	movwf	(vfpfcnvrt@ll+6)& (0+255),b
  5494  010F1A  6F8F               	movwf	(vfpfcnvrt@ll+7)& (0+255),b
  5495  010F1C                     
  5496                           ; BSR set to: 0
  5497                           ;C:\Program Files\Microchip\xc8\v2.31\pic\sources\c99\common\doprnt.c: 852:             
      +                          return dtoa(fp, ll);
  5498  010F1C  C045  F01E         	movff	vfpfcnvrt@fp,dtoa@fp
  5499  010F20  C046  F01F         	movff	vfpfcnvrt@fp+1,dtoa@fp+1
  5500  010F24  C088  F020         	movff	vfpfcnvrt@ll,dtoa@d
  5501  010F28  C089  F021         	movff	vfpfcnvrt@ll+1,dtoa@d+1
  5502  010F2C  C08A  F022         	movff	vfpfcnvrt@ll+2,dtoa@d+2
  5503  010F30  C08B  F023         	movff	vfpfcnvrt@ll+3,dtoa@d+3
  5504  010F34  C08C  F024         	movff	vfpfcnvrt@ll+4,dtoa@d+4
  5505  010F38  C08D  F025         	movff	vfpfcnvrt@ll+5,dtoa@d+5
  5506  010F3C  C08E  F026         	movff	vfpfcnvrt@ll+6,dtoa@d+6
  5507  010F40  C08F  F027         	movff	vfpfcnvrt@ll+7,dtoa@d+7
  5508  010F44  EC8D  F08A         	call	_dtoa	;wreg free
  5509  010F48  C01E  F045         	movff	?_dtoa,?_vfpfcnvrt
  5510  010F4C  C01F  F046         	movff	?_dtoa+1,?_vfpfcnvrt+1
  5511  010F50  EF77  F088         	goto	l1136
  5512  010F54                     l3715:
  5513                           
  5514                           ; BSR set to: 0
  5515                           ;C:\Program Files\Microchip\xc8\v2.31\pic\sources\c99\common\doprnt.c: 1296:         if 
      +                          ((*fmt[0] == 'x') || (*fmt[0] == 'X')) {
  5516  010F54  C047  FFD9         	movff	vfpfcnvrt@fmt,fsr2l
  5517  010F58  C048  FFDA         	movff	vfpfcnvrt@fmt+1,fsr2h
  5518  010F5C  CFDE FFF6          	movff	postinc2,tblptrl
  5519  010F60  CFDD FFF7          	movff	postdec2,tblptrh
  5520  010F64                     	if	0	;tblptru may be non-zero
  5521  010F64                     	endif
  5522  010F64                     	if	1	;Program memory is > 0xFFFF, there are 3 active tblptr bytes
  5523  010F64  0E00               	movlw	low (__mediumconst shr (0+16))
  5524  010F66  6EF8               	movwf	tblptru,c
  5525  010F68                     	endif
  5526  010F68  0008               	tblrd		*
  5527  010F6A  50F5               	movf	tablat,w,c
  5528  010F6C  0A78               	xorlw	120
  5529  010F6E  B4D8               	btfsc	status,2,c
  5530  010F70  EFBC  F087         	goto	u2971
  5531  010F74  EFBE  F087         	goto	u2970
  5532  010F78                     u2971:
  5533  010F78  EFD2  F087         	goto	l3719
  5534  010F7C                     u2970:
  5535  010F7C                     
  5536                           ; BSR set to: 0
  5537  010F7C  C047  FFD9         	movff	vfpfcnvrt@fmt,fsr2l
  5538  010F80  C048  FFDA         	movff	vfpfcnvrt@fmt+1,fsr2h
  5539  010F84  CFDE FFF6          	movff	postinc2,tblptrl
  5540  010F88  CFDD FFF7          	movff	postdec2,tblptrh
  5541  010F8C                     	if	0	;tblptru may be non-zero
  5542  010F8C                     	endif
  5543  010F8C                     	if	1	;Program memory is > 0xFFFF, there are 3 active tblptr bytes
  5544  010F8C  0E00               	movlw	low (__mediumconst shr (0+16))
  5545  010F8E  6EF8               	movwf	tblptru,c
  5546  010F90                     	endif
  5547  010F90  0008               	tblrd		*
  5548  010F92  50F5               	movf	tablat,w,c
  5549  010F94  0A58               	xorlw	88
  5550  010F96  A4D8               	btfss	status,2,c
  5551  010F98  EFD0  F087         	goto	u2981
  5552  010F9C  EFD2  F087         	goto	u2980
  5553  010FA0                     u2981:
  5554  010FA0  EF22  F088         	goto	l3729
  5555  010FA4                     u2980:
  5556  010FA4                     l3719:
  5557                           
  5558                           ; BSR set to: 0
  5559                           ;C:\Program Files\Microchip\xc8\v2.31\pic\sources\c99\common\doprnt.c: 1298:            
      +                           c = (*fmt)[0];
  5560  010FA4  C047  FFD9         	movff	vfpfcnvrt@fmt,fsr2l
  5561  010FA8  C048  FFDA         	movff	vfpfcnvrt@fmt+1,fsr2h
  5562  010FAC  CFDE FFF6          	movff	postinc2,tblptrl
  5563  010FB0  CFDD FFF7          	movff	postdec2,tblptrh
  5564  010FB4                     	if	0	;tblptru may be non-zero
  5565  010FB4                     	endif
  5566  010FB4                     	if	1	;Program memory is > 0xFFFF, there are 3 active tblptr bytes
  5567  010FB4  0E00               	movlw	low (__mediumconst shr (0+16))
  5568  010FB6  6EF8               	movwf	tblptru,c
  5569  010FB8                     	endif
  5570  010FB8  0008               	tblrd		*
  5571  010FBA  CFF5 F09C          	movff	tablat,vfpfcnvrt@c
  5572  010FBE                     
  5573                           ; BSR set to: 0
  5574                           ;C:\Program Files\Microchip\xc8\v2.31\pic\sources\c99\common\doprnt.c: 1299:            
      +                           ++*fmt;
  5575  010FBE  C047  FFD9         	movff	vfpfcnvrt@fmt,fsr2l
  5576  010FC2  C048  FFDA         	movff	vfpfcnvrt@fmt+1,fsr2h
  5577  010FC6  2ADE               	incf	postinc2,f,c
  5578  010FC8  0E00               	movlw	0
  5579  010FCA  22DD               	addwfc	postdec2,f,c
  5580  010FCC                     
  5581                           ; BSR set to: 0
  5582                           ;C:\Program Files\Microchip\xc8\v2.31\pic\sources\c99\common\doprnt.c: 1300:            
      +                           llu = (unsigned long long)(*(unsigned int *)__va_arg(*(unsigned int **)ap, (unsigned in
      +                          t)0));
  5583  010FCC  C049  FFD9         	movff	vfpfcnvrt@ap,fsr2l
  5584  010FD0  C04A  FFDA         	movff	vfpfcnvrt@ap+1,fsr2h
  5585  010FD4  CFDF F04B          	movff	indf2,??_vfpfcnvrt
  5586  010FD8  0E02               	movlw	2
  5587  010FDA  26DE               	addwf	postinc2,f,c
  5588  010FDC  CFDF F04C          	movff	indf2,??_vfpfcnvrt+1
  5589  010FE0  0E00               	movlw	0
  5590  010FE2  22DD               	addwfc	postdec2,f,c
  5591  010FE4  C04B  FFD9         	movff	??_vfpfcnvrt,fsr2l
  5592  010FE8  C04C  FFDA         	movff	??_vfpfcnvrt+1,fsr2h
  5593  010FEC  CFDE F04D          	movff	postinc2,??_vfpfcnvrt+2
  5594  010FF0  CFDD F04E          	movff	postdec2,??_vfpfcnvrt+3
  5595  010FF4  C04D  F090         	movff	??_vfpfcnvrt+2,vfpfcnvrt@llu
  5596  010FF8  C04E  F091         	movff	??_vfpfcnvrt+3,vfpfcnvrt@llu+1
  5597  010FFC  6B92               	clrf	(vfpfcnvrt@llu+2)& (0+255),b
  5598  010FFE  6B93               	clrf	(vfpfcnvrt@llu+3)& (0+255),b
  5599  011000  6B94               	clrf	(vfpfcnvrt@llu+4)& (0+255),b
  5600  011002  6B95               	clrf	(vfpfcnvrt@llu+5)& (0+255),b
  5601  011004  6B96               	clrf	(vfpfcnvrt@llu+6)& (0+255),b
  5602  011006  6B97               	clrf	(vfpfcnvrt@llu+7)& (0+255),b
  5603  011008                     
  5604                           ; BSR set to: 0
  5605                           ;C:\Program Files\Microchip\xc8\v2.31\pic\sources\c99\common\doprnt.c: 1302:            
      +                           return xtoa(fp, llu, c);
  5606  011008  C045  F01E         	movff	vfpfcnvrt@fp,xtoa@fp
  5607  01100C  C046  F01F         	movff	vfpfcnvrt@fp+1,xtoa@fp+1
  5608  011010  C090  F020         	movff	vfpfcnvrt@llu,xtoa@d
  5609  011014  C091  F021         	movff	vfpfcnvrt@llu+1,xtoa@d+1
  5610  011018  C092  F022         	movff	vfpfcnvrt@llu+2,xtoa@d+2
  5611  01101C  C093  F023         	movff	vfpfcnvrt@llu+3,xtoa@d+3
  5612  011020  C094  F024         	movff	vfpfcnvrt@llu+4,xtoa@d+4
  5613  011024  C095  F025         	movff	vfpfcnvrt@llu+5,xtoa@d+5
  5614  011028  C096  F026         	movff	vfpfcnvrt@llu+6,xtoa@d+6
  5615  01102C  C097  F027         	movff	vfpfcnvrt@llu+7,xtoa@d+7
  5616  011030  C09C  F028         	movff	vfpfcnvrt@c,xtoa@x
  5617  011034  ECFE  F08B         	call	_xtoa	;wreg free
  5618  011038  C01E  F045         	movff	?_xtoa,?_vfpfcnvrt
  5619  01103C  C01F  F046         	movff	?_xtoa+1,?_vfpfcnvrt+1
  5620  011040  EF77  F088         	goto	l1136
  5621  011044                     l3729:
  5622                           
  5623                           ; BSR set to: 0
  5624                           ;C:\Program Files\Microchip\xc8\v2.31\pic\sources\c99\common\doprnt.c: 1372:         if 
      +                          ((*fmt)[0] == '%') {
  5625  011044  C047  FFD9         	movff	vfpfcnvrt@fmt,fsr2l
  5626  011048  C048  FFDA         	movff	vfpfcnvrt@fmt+1,fsr2h
  5627  01104C  CFDE FFF6          	movff	postinc2,tblptrl
  5628  011050  CFDD FFF7          	movff	postdec2,tblptrh
  5629  011054                     	if	0	;tblptru may be non-zero
  5630  011054                     	endif
  5631  011054                     	if	1	;Program memory is > 0xFFFF, there are 3 active tblptr bytes
  5632  011054  0E00               	movlw	low (__mediumconst shr (0+16))
  5633  011056  6EF8               	movwf	tblptru,c
  5634  011058                     	endif
  5635  011058  0008               	tblrd		*
  5636  01105A  50F5               	movf	tablat,w,c
  5637  01105C  0A25               	xorlw	37
  5638  01105E  A4D8               	btfss	status,2,c
  5639  011060  EF34  F088         	goto	u2991
  5640  011064  EF36  F088         	goto	u2990
  5641  011068                     u2991:
  5642  011068  EF4D  F088         	goto	l3739
  5643  01106C                     u2990:
  5644  01106C                     
  5645                           ; BSR set to: 0
  5646                           ;C:\Program Files\Microchip\xc8\v2.31\pic\sources\c99\common\doprnt.c: 1373:            
      +                           ++*fmt;
  5647  01106C  C047  FFD9         	movff	vfpfcnvrt@fmt,fsr2l
  5648  011070  C048  FFDA         	movff	vfpfcnvrt@fmt+1,fsr2h
  5649  011074  2ADE               	incf	postinc2,f,c
  5650  011076  0E00               	movlw	0
  5651  011078  22DD               	addwfc	postdec2,f,c
  5652  01107A                     
  5653                           ; BSR set to: 0
  5654                           ;C:\Program Files\Microchip\xc8\v2.31\pic\sources\c99\common\doprnt.c: 1374:            
      +                           fputc((int)'%', fp);
  5655  01107A  0E00               	movlw	0
  5656  01107C  6E04               	movwf	(fputc@c+1)^0,c
  5657  01107E  0E25               	movlw	37
  5658  011080  6E03               	movwf	fputc@c^0,c
  5659  011082  C045  F005         	movff	vfpfcnvrt@fp,fputc@fp
  5660  011086  C046  F006         	movff	vfpfcnvrt@fp+1,fputc@fp+1
  5661  01108A  ECD0  F095         	call	_fputc	;wreg free
  5662  01108E                     l3735:
  5663                           
  5664                           ;C:\Program Files\Microchip\xc8\v2.31\pic\sources\c99\common\doprnt.c: 1375:            
      +                           return 1;
  5665  01108E  0E00               	movlw	0
  5666  011090  6E46               	movwf	(?_vfpfcnvrt+1)^0,c
  5667  011092  0E01               	movlw	1
  5668  011094  6E45               	movwf	?_vfpfcnvrt^0,c
  5669  011096  EF77  F088         	goto	l1136
  5670  01109A                     l3739:
  5671                           
  5672                           ; BSR set to: 0
  5673                           ;C:\Program Files\Microchip\xc8\v2.31\pic\sources\c99\common\doprnt.c: 1379:         ++*
      +                          fmt;
  5674  01109A  C047  FFD9         	movff	vfpfcnvrt@fmt,fsr2l
  5675  01109E  C048  FFDA         	movff	vfpfcnvrt@fmt+1,fsr2h
  5676  0110A2  2ADE               	incf	postinc2,f,c
  5677  0110A4  0E00               	movlw	0
  5678  0110A6  22DD               	addwfc	postdec2,f,c
  5679  0110A8                     
  5680                           ; BSR set to: 0
  5681                           ;C:\Program Files\Microchip\xc8\v2.31\pic\sources\c99\common\doprnt.c: 1380:         ret
      +                          urn 0;
  5682  0110A8  0E00               	movlw	0
  5683  0110AA  6E46               	movwf	(?_vfpfcnvrt+1)^0,c
  5684  0110AC  0E00               	movlw	0
  5685  0110AE  6E45               	movwf	?_vfpfcnvrt^0,c
  5686  0110B0  EF77  F088         	goto	l1136
  5687  0110B4                     l3745:
  5688                           
  5689                           ;C:\Program Files\Microchip\xc8\v2.31\pic\sources\c99\common\doprnt.c: 1384:     fputc((
      +                          int)(*fmt)[0], fp);
  5690  0110B4  C047  FFD9         	movff	vfpfcnvrt@fmt,fsr2l
  5691  0110B8  C048  FFDA         	movff	vfpfcnvrt@fmt+1,fsr2h
  5692  0110BC  CFDE FFF6          	movff	postinc2,tblptrl
  5693  0110C0  CFDD FFF7          	movff	postdec2,tblptrh
  5694  0110C4                     	if	0	;tblptru may be non-zero
  5695  0110C4                     	endif
  5696  0110C4                     	if	1	;Program memory is > 0xFFFF, there are 3 active tblptr bytes
  5697  0110C4  0E00               	movlw	low (__mediumconst shr (0+16))
  5698  0110C6  6EF8               	movwf	tblptru,c
  5699  0110C8                     	endif
  5700  0110C8  0008               	tblrd		*
  5701  0110CA  50F5               	movf	tablat,w,c
  5702  0110CC  6E03               	movwf	fputc@c^0,c
  5703  0110CE  6A04               	clrf	(fputc@c+1)^0,c
  5704  0110D0  C045  F005         	movff	vfpfcnvrt@fp,fputc@fp
  5705  0110D4  C046  F006         	movff	vfpfcnvrt@fp+1,fputc@fp+1
  5706  0110D8  ECD0  F095         	call	_fputc	;wreg free
  5707  0110DC                     
  5708                           ;C:\Program Files\Microchip\xc8\v2.31\pic\sources\c99\common\doprnt.c: 1385:     ++*fmt;
  5709  0110DC  C047  FFD9         	movff	vfpfcnvrt@fmt,fsr2l
  5710  0110E0  C048  FFDA         	movff	vfpfcnvrt@fmt+1,fsr2h
  5711  0110E4  2ADE               	incf	postinc2,f,c
  5712  0110E6  0E00               	movlw	0
  5713  0110E8  22DD               	addwfc	postdec2,f,c
  5714  0110EA  EF47  F088         	goto	l3735
  5715  0110EE                     l1136:
  5716  0110EE  0012               	return		;funcret
  5717  0110F0                     __end_of_vfpfcnvrt:
  5718                           	callstack 0
  5719                           
  5720 ;; *************** function _xtoa *****************
  5721 ;; Defined at:
  5722 ;;		line 645 in file "C:\Program Files\Microchip\xc8\v2.31\pic\sources\c99\common\doprnt.c"
  5723 ;; Parameters:    Size  Location     Type
  5724 ;;  fp              2   29[COMRAM] PTR struct _IO_FILE
  5725 ;;		 -> NULL(0), 
  5726 ;;  d               8   31[COMRAM] unsigned long long 
  5727 ;;  x               1   39[COMRAM] unsigned char 
  5728 ;; Auto vars:     Size  Location     Type
  5729 ;;  n               8   56[COMRAM] unsigned long long 
  5730 ;;  c               2   66[COMRAM] int 
  5731 ;;  i               2   64[COMRAM] int 
  5732 ;;  w               2   54[COMRAM] int 
  5733 ;;  p               2   52[COMRAM] int 
  5734 ;; Return value:  Size  Location     Type
  5735 ;;                  2   29[COMRAM] int 
  5736 ;; Registers used:
  5737 ;;		wreg, fsr1l, fsr1h, fsr2l, fsr2h, status,2, status,0, cstack
  5738 ;; Tracked objects:
  5739 ;;		On entry : 0/0
  5740 ;;		On exit  : 0/0
  5741 ;;		Unchanged: 0/0
  5742 ;; Data sizes:     COMRAM   BANK0   BANK1   BANK2   BANK3   BANK4   BANK5   BANK6   BANK7   BANK8   BANK9  BANK10  BANK1
      +1  BANK12  BANK13
  5743 ;;      Params:        11       0       0       0       0       0       0       0       0       0       0       0       
      +0       0       0
  5744 ;;      Locals:        20       0       0       0       0       0       0       0       0       0       0       0       
      +0       0       0
  5745 ;;      Temps:          8       0       0       0       0       0       0       0       0       0       0       0       
      +0       0       0
  5746 ;;      Totals:        39       0       0       0       0       0       0       0       0       0       0       0       
      +0       0       0
  5747 ;;Total ram usage:       39 bytes
  5748 ;; Hardware stack levels used:    1
  5749 ;; Hardware stack levels required when called:    5
  5750 ;; This function calls:
  5751 ;;		_isalpha
  5752 ;;		_isupper
  5753 ;;		_pad
  5754 ;;		_toupper
  5755 ;; This function is called by:
  5756 ;;		_vfpfcnvrt
  5757 ;; This function uses a non-reentrant model
  5758 ;;
  5759                           
  5760                           	psect	text23
  5761  0117FC                     __ptext23:
  5762                           	callstack 0
  5763  0117FC                     _xtoa:
  5764                           	callstack 20
  5765  0117FC                     
  5766                           ;C:\Program Files\Microchip\xc8\v2.31\pic\sources\c99\common\doprnt.c: 645: static int x
      +                          toa(FILE *fp, unsigned long long d, char x);C:\Program Files\Microchip\xc8\v2.31\pic\sou
      +                          rces\c99\common\doprnt.c: 646: {;C:\Program Files\Microchip\xc8\v2.31\pic\sources\c99\co
      +                          mmon\doprnt.c: 647:     int c, i, p, w;;C:\Program Files\Microchip\xc8\v2.31\pic\sources
      +                          \c99\common\doprnt.c: 648:     unsigned long long n;;C:\Program Files\Microchip\xc8\v2.3
      +                          1\pic\sources\c99\common\doprnt.c: 651:     if (!(prec < 0)) {
  5767  0117FC  0100               	movlb	0	; () banked
  5768  0117FE  BF65               	btfsc	(_prec+1)& (0+255),7,b
  5769  011800  EF04  F08C         	goto	u2631
  5770  011804  EF06  F08C         	goto	u2630
  5771  011808                     u2631:
  5772  011808  EF07  F08C         	goto	l3543
  5773  01180C                     u2630:
  5774  01180C                     
  5775                           ; BSR set to: 0
  5776                           ;C:\Program Files\Microchip\xc8\v2.31\pic\sources\c99\common\doprnt.c: 652:         flag
      +                          s &= ~(1 << 1);
  5777  01180C  9366               	bcf	_flags& (0+255),1,b
  5778  01180E                     l3543:
  5779                           
  5780                           ; BSR set to: 0
  5781                           ;C:\Program Files\Microchip\xc8\v2.31\pic\sources\c99\common\doprnt.c: 654:     p = (0 <
      +                           prec) ? prec : 1;
  5782  01180E  BF65               	btfsc	(_prec+1)& (0+255),7,b
  5783  011810  EF14  F08C         	goto	u2640
  5784  011814  5165               	movf	(_prec+1)& (0+255),w,b
  5785  011816  E106               	bnz	u2641
  5786  011818  0564               	decf	_prec& (0+255),w,b
  5787  01181A  B0D8               	btfsc	status,0,c
  5788  01181C  EF12  F08C         	goto	u2641
  5789  011820  EF14  F08C         	goto	u2640
  5790  011824                     u2641:
  5791  011824  EF1A  F08C         	goto	l1082
  5792  011828                     u2640:
  5793  011828                     
  5794                           ; BSR set to: 0
  5795  011828  0E00               	movlw	0
  5796  01182A  6E36               	movwf	(xtoa@p+1)^0,c
  5797  01182C  0E01               	movlw	1
  5798  01182E  6E35               	movwf	xtoa@p^0,c
  5799  011830  EF1E  F08C         	goto	l1084
  5800  011834                     l1082:
  5801                           
  5802                           ; BSR set to: 0
  5803  011834  C064  F035         	movff	_prec,xtoa@p
  5804  011838  C065  F036         	movff	_prec+1,xtoa@p+1
  5805  01183C                     l1084:
  5806                           
  5807                           ; BSR set to: 0
  5808                           ;C:\Program Files\Microchip\xc8\v2.31\pic\sources\c99\common\doprnt.c: 655:     w = widt
      +                          h;
  5809  01183C  C062  F037         	movff	_width,xtoa@w
  5810  011840  C063  F038         	movff	_width+1,xtoa@w+1
  5811                           
  5812                           ;C:\Program Files\Microchip\xc8\v2.31\pic\sources\c99\common\doprnt.c: 656:     if (flag
      +                          s & (1 << 4)) {
  5813  011844  A966               	btfss	_flags& (0+255),4,b
  5814  011846  EF27  F08C         	goto	u2651
  5815  01184A  EF29  F08C         	goto	u2650
  5816  01184E                     u2651:
  5817  01184E  EF2D  F08C         	goto	l3549
  5818  011852                     u2650:
  5819  011852                     
  5820                           ; BSR set to: 0
  5821                           ;C:\Program Files\Microchip\xc8\v2.31\pic\sources\c99\common\doprnt.c: 657:         w -=
      +                           2;
  5822  011852  0EFE               	movlw	254
  5823  011854  2637               	addwf	xtoa@w^0,f,c
  5824  011856  0EFF               	movlw	255
  5825  011858  2238               	addwfc	(xtoa@w+1)^0,f,c
  5826  01185A                     l3549:
  5827                           
  5828                           ; BSR set to: 0
  5829                           ;C:\Program Files\Microchip\xc8\v2.31\pic\sources\c99\common\doprnt.c: 661:     n = d;
  5830  01185A  C020  F039         	movff	xtoa@d,xtoa@n
  5831  01185E  C021  F03A         	movff	xtoa@d+1,xtoa@n+1
  5832  011862  C022  F03B         	movff	xtoa@d+2,xtoa@n+2
  5833  011866  C023  F03C         	movff	xtoa@d+3,xtoa@n+3
  5834  01186A  C024  F03D         	movff	xtoa@d+4,xtoa@n+4
  5835  01186E  C025  F03E         	movff	xtoa@d+5,xtoa@n+5
  5836  011872  C026  F03F         	movff	xtoa@d+6,xtoa@n+6
  5837  011876  C027  F040         	movff	xtoa@d+7,xtoa@n+7
  5838  01187A                     
  5839                           ; BSR set to: 0
  5840                           ;C:\Program Files\Microchip\xc8\v2.31\pic\sources\c99\common\doprnt.c: 662:     i = size
      +                          of(dbuf) - 1;
  5841  01187A  0E00               	movlw	0
  5842  01187C  6E42               	movwf	(xtoa@i+1)^0,c
  5843  01187E  0E1F               	movlw	31
  5844  011880  6E41               	movwf	xtoa@i^0,c
  5845  011882                     
  5846                           ; BSR set to: 0
  5847                           ;C:\Program Files\Microchip\xc8\v2.31\pic\sources\c99\common\doprnt.c: 663:     dbuf[i] 
      +                          = '\0';
  5848  011882  0E00               	movlw	0
  5849  011884  6F87               	movwf	(_dbuf+31)& (0+255),b
  5850                           
  5851                           ;C:\Program Files\Microchip\xc8\v2.31\pic\sources\c99\common\doprnt.c: 664:     while (!
      +                          (i < 2) && (n || (0 < p) || ((0 < w) && (flags & (1 << 1))))) {
  5852  011886  EFF8  F08C         	goto	l3585
  5853  01188A                     l3555:
  5854                           
  5855                           ;C:\Program Files\Microchip\xc8\v2.31\pic\sources\c99\common\doprnt.c: 665:         --i;
  5856  01188A  0641               	decf	xtoa@i^0,f,c
  5857  01188C  A0D8               	btfss	status,0,c
  5858  01188E  0642               	decf	(xtoa@i+1)^0,f,c
  5859  011890                     
  5860                           ;C:\Program Files\Microchip\xc8\v2.31\pic\sources\c99\common\doprnt.c: 666:         c = 
      +                          n & 0x0f;
  5861  011890  0E0F               	movlw	15
  5862  011892  1439               	andwf	xtoa@n^0,w,c
  5863  011894  6E43               	movwf	xtoa@c^0,c
  5864  011896  6A44               	clrf	(xtoa@c+1)^0,c
  5865  011898                     
  5866                           ;C:\Program Files\Microchip\xc8\v2.31\pic\sources\c99\common\doprnt.c: 667:         c = 
      +                          (c < 10) ? (int)'0' + c : (int)'a' + (c - 10);
  5867  011898  BE44               	btfsc	(xtoa@c+1)^0,7,c
  5868  01189A  EF58  F08C         	goto	u2661
  5869  01189E  5044               	movf	(xtoa@c+1)^0,w,c
  5870  0118A0  E109               	bnz	u2660
  5871  0118A2  0E0A               	movlw	10
  5872  0118A4  5C43               	subwf	xtoa@c^0,w,c
  5873  0118A6  A0D8               	btfss	status,0,c
  5874  0118A8  EF58  F08C         	goto	u2661
  5875  0118AC  EF5A  F08C         	goto	u2660
  5876  0118B0                     u2661:
  5877  0118B0  EF62  F08C         	goto	l3563
  5878  0118B4                     u2660:
  5879  0118B4  0E57               	movlw	87
  5880  0118B6  2443               	addwf	xtoa@c^0,w,c
  5881  0118B8  6E43               	movwf	xtoa@c^0,c
  5882  0118BA  0E00               	movlw	0
  5883  0118BC  2044               	addwfc	(xtoa@c+1)^0,w,c
  5884  0118BE  6E44               	movwf	(xtoa@c+1)^0,c
  5885  0118C0  EF68  F08C         	goto	l1091
  5886  0118C4                     l3563:
  5887  0118C4  0E30               	movlw	48
  5888  0118C6  2443               	addwf	xtoa@c^0,w,c
  5889  0118C8  6E43               	movwf	xtoa@c^0,c
  5890  0118CA  0E00               	movlw	0
  5891  0118CC  2044               	addwfc	(xtoa@c+1)^0,w,c
  5892  0118CE  6E44               	movwf	(xtoa@c+1)^0,c
  5893  0118D0                     l1091:
  5894  0118D0  0EBF               	movlw	191
  5895  0118D2  6E29               	movwf	??_xtoa^0,c
  5896  0118D4  0EFF               	movlw	255
  5897  0118D6  6E2A               	movwf	(??_xtoa+1)^0,c
  5898  0118D8  5028               	movf	xtoa@x^0,w,c
  5899  0118DA  6E2B               	movwf	(??_xtoa+2)^0,c
  5900  0118DC  6A2C               	clrf	(??_xtoa+3)^0,c
  5901  0118DE  5029               	movf	??_xtoa^0,w,c
  5902  0118E0  262B               	addwf	(??_xtoa+2)^0,f,c
  5903  0118E2  502A               	movf	(??_xtoa+1)^0,w,c
  5904  0118E4  222C               	addwfc	(??_xtoa+3)^0,f,c
  5905  0118E6  502C               	movf	(??_xtoa+3)^0,w,c
  5906  0118E8  E10A               	bnz	u2670
  5907  0118EA  0E1A               	movlw	26
  5908  0118EC  5C2B               	subwf	(??_xtoa+2)^0,w,c
  5909  0118EE  A0D8               	btfss	status,0,c
  5910  0118F0  EF7C  F08C         	goto	u2671
  5911  0118F4  EF7F  F08C         	goto	u2670
  5912  0118F8                     u2671:
  5913  0118F8  0E01               	movlw	1
  5914  0118FA  EF80  F08C         	goto	u2680
  5915  0118FE                     u2670:
  5916  0118FE  0E00               	movlw	0
  5917  011900                     u2680:
  5918  011900  6E31               	movwf	_xtoa$1645^0,c
  5919  011902  6A32               	clrf	(_xtoa$1645+1)^0,c
  5920  011904  5031               	movf	_xtoa$1645^0,w,c
  5921  011906  1032               	iorwf	(_xtoa$1645+1)^0,w,c
  5922  011908  B4D8               	btfsc	status,2,c
  5923  01190A  EF89  F08C         	goto	u2691
  5924  01190E  EF8B  F08C         	goto	u2690
  5925  011912                     u2691:
  5926  011912  EFBB  F08C         	goto	l3577
  5927  011916                     u2690:
  5928  011916  0E9F               	movlw	159
  5929  011918  6E29               	movwf	??_xtoa^0,c
  5930  01191A  0EFF               	movlw	255
  5931  01191C  6E2A               	movwf	(??_xtoa+1)^0,c
  5932  01191E  0E20               	movlw	32
  5933  011920  1043               	iorwf	xtoa@c^0,w,c
  5934  011922  6E2B               	movwf	(??_xtoa+2)^0,c
  5935  011924  0E00               	movlw	0
  5936  011926  1044               	iorwf	(xtoa@c+1)^0,w,c
  5937  011928  6E2C               	movwf	(??_xtoa+3)^0,c
  5938  01192A  5029               	movf	??_xtoa^0,w,c
  5939  01192C  262B               	addwf	(??_xtoa+2)^0,f,c
  5940  01192E  502A               	movf	(??_xtoa+1)^0,w,c
  5941  011930  222C               	addwfc	(??_xtoa+3)^0,f,c
  5942  011932  502C               	movf	(??_xtoa+3)^0,w,c
  5943  011934  E10A               	bnz	u2700
  5944  011936  0E1A               	movlw	26
  5945  011938  5C2B               	subwf	(??_xtoa+2)^0,w,c
  5946  01193A  A0D8               	btfss	status,0,c
  5947  01193C  EFA2  F08C         	goto	u2701
  5948  011940  EFA5  F08C         	goto	u2700
  5949  011944                     u2701:
  5950  011944  0E01               	movlw	1
  5951  011946  EFA6  F08C         	goto	u2710
  5952  01194A                     u2700:
  5953  01194A  0E00               	movlw	0
  5954  01194C                     u2710:
  5955  01194C  6E33               	movwf	_xtoa$1646^0,c
  5956  01194E  6A34               	clrf	(_xtoa$1646+1)^0,c
  5957  011950  5033               	movf	_xtoa$1646^0,w,c
  5958  011952  1034               	iorwf	(_xtoa$1646+1)^0,w,c
  5959  011954  B4D8               	btfsc	status,2,c
  5960  011956  EFAF  F08C         	goto	u2721
  5961  01195A  EFB1  F08C         	goto	u2720
  5962  01195E                     u2721:
  5963  01195E  EFBB  F08C         	goto	l3577
  5964  011962                     u2720:
  5965  011962                     
  5966                           ;C:\Program Files\Microchip\xc8\v2.31\pic\sources\c99\common\doprnt.c: 669:             
      +                          c = toupper(c);
  5967  011962  C043  F007         	movff	xtoa@c,toupper@c
  5968  011966  C044  F008         	movff	xtoa@c+1,toupper@c+1
  5969  01196A  ECBE  F096         	call	_toupper	;wreg free
  5970  01196E  C007  F043         	movff	?_toupper,xtoa@c
  5971  011972  C008  F044         	movff	?_toupper+1,xtoa@c+1
  5972  011976                     l3577:
  5973                           
  5974                           ;C:\Program Files\Microchip\xc8\v2.31\pic\sources\c99\common\doprnt.c: 671:         dbuf
      +                          [i] = (char)c;
  5975  011976  0E68               	movlw	low _dbuf
  5976  011978  2441               	addwf	xtoa@i^0,w,c
  5977  01197A  6ED9               	movwf	fsr2l,c
  5978  01197C  0E00               	movlw	high _dbuf
  5979  01197E  2042               	addwfc	(xtoa@i+1)^0,w,c
  5980  011980  6EDA               	movwf	fsr2h,c
  5981  011982  C043  FFDF         	movff	xtoa@c,indf2
  5982  011986                     
  5983                           ;C:\Program Files\Microchip\xc8\v2.31\pic\sources\c99\common\doprnt.c: 672:         --p;
  5984  011986  0635               	decf	xtoa@p^0,f,c
  5985  011988  A0D8               	btfss	status,0,c
  5986  01198A  0636               	decf	(xtoa@p+1)^0,f,c
  5987  01198C                     
  5988                           ;C:\Program Files\Microchip\xc8\v2.31\pic\sources\c99\common\doprnt.c: 673:         --w;
  5989  01198C  0637               	decf	xtoa@w^0,f,c
  5990  01198E  A0D8               	btfss	status,0,c
  5991  011990  0638               	decf	(xtoa@w+1)^0,f,c
  5992  011992                     
  5993                           ;C:\Program Files\Microchip\xc8\v2.31\pic\sources\c99\common\doprnt.c: 674:         n = 
      +                          n >> 4;
  5994  011992  C039  F029         	movff	xtoa@n,??_xtoa
  5995  011996  C03A  F02A         	movff	xtoa@n+1,??_xtoa+1
  5996  01199A  C03B  F02B         	movff	xtoa@n+2,??_xtoa+2
  5997  01199E  C03C  F02C         	movff	xtoa@n+3,??_xtoa+3
  5998  0119A2  C03D  F02D         	movff	xtoa@n+4,??_xtoa+4
  5999  0119A6  C03E  F02E         	movff	xtoa@n+5,??_xtoa+5
  6000  0119AA  C03F  F02F         	movff	xtoa@n+6,??_xtoa+6
  6001  0119AE  C040  F030         	movff	xtoa@n+7,??_xtoa+7
  6002  0119B2  0E05               	movlw	5
  6003  0119B4  EFE5  F08C         	goto	u2730
  6004  0119B8                     u2735:
  6005  0119B8  90D8               	bcf	status,0,c
  6006  0119BA  3230               	rrcf	(??_xtoa+7)^0,f,c
  6007  0119BC  322F               	rrcf	(??_xtoa+6)^0,f,c
  6008  0119BE  322E               	rrcf	(??_xtoa+5)^0,f,c
  6009  0119C0  322D               	rrcf	(??_xtoa+4)^0,f,c
  6010  0119C2  322C               	rrcf	(??_xtoa+3)^0,f,c
  6011  0119C4  322B               	rrcf	(??_xtoa+2)^0,f,c
  6012  0119C6  322A               	rrcf	(??_xtoa+1)^0,f,c
  6013  0119C8  3229               	rrcf	??_xtoa^0,f,c
  6014  0119CA                     u2730:
  6015  0119CA  2EE8               	decfsz	wreg,f,c
  6016  0119CC  EFDC  F08C         	goto	u2735
  6017  0119D0  C029  F039         	movff	??_xtoa,xtoa@n
  6018  0119D4  C02A  F03A         	movff	??_xtoa+1,xtoa@n+1
  6019  0119D8  C02B  F03B         	movff	??_xtoa+2,xtoa@n+2
  6020  0119DC  C02C  F03C         	movff	??_xtoa+3,xtoa@n+3
  6021  0119E0  C02D  F03D         	movff	??_xtoa+4,xtoa@n+4
  6022  0119E4  C02E  F03E         	movff	??_xtoa+5,xtoa@n+5
  6023  0119E8  C02F  F03F         	movff	??_xtoa+6,xtoa@n+6
  6024  0119EC  C030  F040         	movff	??_xtoa+7,xtoa@n+7
  6025  0119F0                     l3585:
  6026                           
  6027                           ;C:\Program Files\Microchip\xc8\v2.31\pic\sources\c99\common\doprnt.c: 664:     while (!
      +                          (i < 2) && (n || (0 < p) || ((0 < w) && (flags & (1 << 1))))) {
  6028  0119F0  BE42               	btfsc	(xtoa@i+1)^0,7,c
  6029  0119F2  EF04  F08D         	goto	u2741
  6030  0119F6  5042               	movf	(xtoa@i+1)^0,w,c
  6031  0119F8  E109               	bnz	u2740
  6032  0119FA  0E02               	movlw	2
  6033  0119FC  5C41               	subwf	xtoa@i^0,w,c
  6034  0119FE  A0D8               	btfss	status,0,c
  6035  011A00  EF04  F08D         	goto	u2741
  6036  011A04  EF06  F08D         	goto	u2740
  6037  011A08                     u2741:
  6038  011A08  EF37  F08D         	goto	l1105
  6039  011A0C                     u2740:
  6040  011A0C  5039               	movf	xtoa@n^0,w,c
  6041  011A0E  103A               	iorwf	(xtoa@n+1)^0,w,c
  6042  011A10  103B               	iorwf	(xtoa@n+2)^0,w,c
  6043  011A12  103C               	iorwf	(xtoa@n+3)^0,w,c
  6044  011A14  103D               	iorwf	(xtoa@n+4)^0,w,c
  6045  011A16  103E               	iorwf	(xtoa@n+5)^0,w,c
  6046  011A18  103F               	iorwf	(xtoa@n+6)^0,w,c
  6047  011A1A  1040               	iorwf	(xtoa@n+7)^0,w,c
  6048  011A1C  A4D8               	btfss	status,2,c
  6049  011A1E  EF13  F08D         	goto	u2751
  6050  011A22  EF15  F08D         	goto	u2750
  6051  011A26                     u2751:
  6052  011A26  EF45  F08C         	goto	l3555
  6053  011A2A                     u2750:
  6054  011A2A  BE36               	btfsc	(xtoa@p+1)^0,7,c
  6055  011A2C  EF22  F08D         	goto	u2760
  6056  011A30  5036               	movf	(xtoa@p+1)^0,w,c
  6057  011A32  E106               	bnz	u2761
  6058  011A34  0435               	decf	xtoa@p^0,w,c
  6059  011A36  B0D8               	btfsc	status,0,c
  6060  011A38  EF20  F08D         	goto	u2761
  6061  011A3C  EF22  F08D         	goto	u2760
  6062  011A40                     u2761:
  6063  011A40  EF45  F08C         	goto	l3555
  6064  011A44                     u2760:
  6065  011A44  BE38               	btfsc	(xtoa@w+1)^0,7,c
  6066  011A46  EF2D  F08D         	goto	u2771
  6067  011A4A  5038               	movf	(xtoa@w+1)^0,w,c
  6068  011A4C  E108               	bnz	u2770
  6069  011A4E  0437               	decf	xtoa@w^0,w,c
  6070  011A50  A0D8               	btfss	status,0,c
  6071  011A52  EF2D  F08D         	goto	u2771
  6072  011A56  EF2F  F08D         	goto	u2770
  6073  011A5A                     u2771:
  6074  011A5A  EF37  F08D         	goto	l1105
  6075  011A5E                     u2770:
  6076  011A5E  0100               	movlb	0	; () banked
  6077  011A60  B366               	btfsc	_flags& (0+255),1,b
  6078  011A62  EF35  F08D         	goto	u2781
  6079  011A66  EF37  F08D         	goto	u2780
  6080  011A6A                     u2781:
  6081  011A6A  EF45  F08C         	goto	l3555
  6082  011A6E                     u2780:
  6083  011A6E                     l1105:
  6084                           
  6085                           ;C:\Program Files\Microchip\xc8\v2.31\pic\sources\c99\common\doprnt.c: 678:     if (flag
      +                          s & (1 << 4)) {
  6086  011A6E  0100               	movlb	0	; () banked
  6087  011A70  A966               	btfss	_flags& (0+255),4,b
  6088  011A72  EF3D  F08D         	goto	u2791
  6089  011A76  EF3F  F08D         	goto	u2790
  6090  011A7A                     u2791:
  6091  011A7A  EF55  F08D         	goto	l3601
  6092  011A7E                     u2790:
  6093  011A7E                     
  6094                           ; BSR set to: 0
  6095                           ;C:\Program Files\Microchip\xc8\v2.31\pic\sources\c99\common\doprnt.c: 679:         --i;
  6096  011A7E  0641               	decf	xtoa@i^0,f,c
  6097  011A80  A0D8               	btfss	status,0,c
  6098  011A82  0642               	decf	(xtoa@i+1)^0,f,c
  6099  011A84                     
  6100                           ; BSR set to: 0
  6101                           ;C:\Program Files\Microchip\xc8\v2.31\pic\sources\c99\common\doprnt.c: 680:         dbuf
      +                          [i] = x;
  6102  011A84  0E68               	movlw	low _dbuf
  6103  011A86  2441               	addwf	xtoa@i^0,w,c
  6104  011A88  6ED9               	movwf	fsr2l,c
  6105  011A8A  0E00               	movlw	high _dbuf
  6106  011A8C  2042               	addwfc	(xtoa@i+1)^0,w,c
  6107  011A8E  6EDA               	movwf	fsr2h,c
  6108  011A90  C028  FFDF         	movff	xtoa@x,indf2
  6109  011A94                     
  6110                           ; BSR set to: 0
  6111                           ;C:\Program Files\Microchip\xc8\v2.31\pic\sources\c99\common\doprnt.c: 681:         --i;
  6112  011A94  0641               	decf	xtoa@i^0,f,c
  6113  011A96  A0D8               	btfss	status,0,c
  6114  011A98  0642               	decf	(xtoa@i+1)^0,f,c
  6115                           
  6116                           ;C:\Program Files\Microchip\xc8\v2.31\pic\sources\c99\common\doprnt.c: 682:         dbuf
      +                          [i] = '0';
  6117  011A9A  0E68               	movlw	low _dbuf
  6118  011A9C  2441               	addwf	xtoa@i^0,w,c
  6119  011A9E  6ED9               	movwf	fsr2l,c
  6120  011AA0  0E00               	movlw	high _dbuf
  6121  011AA2  2042               	addwfc	(xtoa@i+1)^0,w,c
  6122  011AA4  6EDA               	movwf	fsr2h,c
  6123  011AA6  0E30               	movlw	48
  6124  011AA8  6EDF               	movwf	indf2,c
  6125  011AAA                     l3601:
  6126                           
  6127                           ; BSR set to: 0
  6128                           ;C:\Program Files\Microchip\xc8\v2.31\pic\sources\c99\common\doprnt.c: 686:     return p
      +                          ad(fp, &dbuf[i], w);
  6129  011AAA  C01E  F013         	movff	xtoa@fp,pad@fp
  6130  011AAE  C01F  F014         	movff	xtoa@fp+1,pad@fp+1
  6131  011AB2  0E68               	movlw	low _dbuf
  6132  011AB4  2441               	addwf	xtoa@i^0,w,c
  6133  011AB6  6E15               	movwf	pad@buf^0,c
  6134  011AB8  0E00               	movlw	high _dbuf
  6135  011ABA  2042               	addwfc	(xtoa@i+1)^0,w,c
  6136  011ABC  6E16               	movwf	(pad@buf+1)^0,c
  6137  011ABE  C037  F017         	movff	xtoa@w,pad@p
  6138  011AC2  C038  F018         	movff	xtoa@w+1,pad@p+1
  6139  011AC6  EC0F  F095         	call	_pad	;wreg free
  6140  011ACA  C013  F01E         	movff	?_pad,?_xtoa
  6141  011ACE  C014  F01F         	movff	?_pad+1,?_xtoa+1
  6142  011AD2  0012               	return		;funcret
  6143  011AD4                     __end_of_xtoa:
  6144                           	callstack 0
  6145                           
  6146 ;; *************** function _toupper *****************
  6147 ;; Defined at:
  6148 ;;		line 4 in file "C:\Program Files\Microchip\xc8\v2.31\pic\sources\c99\common\toupper.c"
  6149 ;; Parameters:    Size  Location     Type
  6150 ;;  c               2    6[COMRAM] int 
  6151 ;; Auto vars:     Size  Location     Type
  6152 ;;		None
  6153 ;; Return value:  Size  Location     Type
  6154 ;;                  2    6[COMRAM] int 
  6155 ;; Registers used:
  6156 ;;		wreg, status,2, status,0
  6157 ;; Tracked objects:
  6158 ;;		On entry : 0/0
  6159 ;;		On exit  : 0/0
  6160 ;;		Unchanged: 0/0
  6161 ;; Data sizes:     COMRAM   BANK0   BANK1   BANK2   BANK3   BANK4   BANK5   BANK6   BANK7   BANK8   BANK9  BANK10  BANK1
      +1  BANK12  BANK13
  6162 ;;      Params:         2       0       0       0       0       0       0       0       0       0       0       0       
      +0       0       0
  6163 ;;      Locals:         2       0       0       0       0       0       0       0       0       0       0       0       
      +0       0       0
  6164 ;;      Temps:          4       0       0       0       0       0       0       0       0       0       0       0       
      +0       0       0
  6165 ;;      Totals:         8       0       0       0       0       0       0       0       0       0       0       0       
      +0       0       0
  6166 ;;Total ram usage:        8 bytes
  6167 ;; Hardware stack levels used:    1
  6168 ;; Hardware stack levels required when called:    1
  6169 ;; This function calls:
  6170 ;;		_islower
  6171 ;; This function is called by:
  6172 ;;		_xtoa
  6173 ;; This function uses a non-reentrant model
  6174 ;;
  6175                           
  6176                           	psect	text24
  6177  012D7C                     __ptext24:
  6178                           	callstack 0
  6179  012D7C                     _toupper:
  6180                           	callstack 23
  6181  012D7C  0E9F               	movlw	159
  6182  012D7E  6E09               	movwf	??_toupper^0,c
  6183  012D80  0EFF               	movlw	255
  6184  012D82  6E0A               	movwf	(??_toupper+1)^0,c
  6185  012D84  C007  F00B         	movff	toupper@c,??_toupper+2
  6186  012D88  C008  F00C         	movff	toupper@c+1,??_toupper+3
  6187  012D8C  5009               	movf	??_toupper^0,w,c
  6188  012D8E  260B               	addwf	(??_toupper+2)^0,f,c
  6189  012D90  500A               	movf	(??_toupper+1)^0,w,c
  6190  012D92  220C               	addwfc	(??_toupper+3)^0,f,c
  6191  012D94  500C               	movf	(??_toupper+3)^0,w,c
  6192  012D96  E10A               	bnz	u2410
  6193  012D98  0E1A               	movlw	26
  6194  012D9A  5C0B               	subwf	(??_toupper+2)^0,w,c
  6195  012D9C  A0D8               	btfss	status,0,c
  6196  012D9E  EFD3  F096         	goto	u2411
  6197  012DA2  EFD6  F096         	goto	u2410
  6198  012DA6                     u2411:
  6199  012DA6  0E01               	movlw	1
  6200  012DA8  EFD7  F096         	goto	u2420
  6201  012DAC                     u2410:
  6202  012DAC  0E00               	movlw	0
  6203  012DAE                     u2420:
  6204  012DAE  6E0D               	movwf	_toupper$1757^0,c
  6205  012DB0  6A0E               	clrf	(_toupper$1757+1)^0,c
  6206  012DB2  500D               	movf	_toupper$1757^0,w,c
  6207  012DB4  100E               	iorwf	(_toupper$1757+1)^0,w,c
  6208  012DB6  B4D8               	btfsc	status,2,c
  6209  012DB8  EFE0  F096         	goto	u2431
  6210  012DBC  EFE2  F096         	goto	u2430
  6211  012DC0                     u2431:
  6212  012DC0  EFE8  F096         	goto	l1241
  6213  012DC4                     u2430:
  6214  012DC4  0E5F               	movlw	95
  6215  012DC6  1407               	andwf	toupper@c^0,w,c
  6216  012DC8  6E07               	movwf	?_toupper^0,c
  6217  012DCA  6A08               	clrf	(?_toupper+1)^0,c
  6218  012DCC  EFEC  F096         	goto	l1246
  6219  012DD0                     l1241:
  6220  012DD0  C007  F007         	movff	toupper@c,?_toupper
  6221  012DD4  C008  F008         	movff	toupper@c+1,?_toupper+1
  6222  012DD8                     l1246:
  6223  012DD8  0012               	return		;funcret
  6224  012DDA                     __end_of_toupper:
  6225                           	callstack 0
  6226                           
  6227 ;; *************** function _islower *****************
  6228 ;; Defined at:
  6229 ;;		line 5 in file "C:\Program Files\Microchip\xc8\v2.31\pic\sources\c99\common\islower.c"
  6230 ;; Parameters:    Size  Location     Type
  6231 ;;  c               2    0[COMRAM] int 
  6232 ;; Auto vars:     Size  Location     Type
  6233 ;;		None
  6234 ;; Return value:  Size  Location     Type
  6235 ;;                  2    0[COMRAM] int 
  6236 ;; Registers used:
  6237 ;;		wreg, status,2, status,0
  6238 ;; Tracked objects:
  6239 ;;		On entry : 0/0
  6240 ;;		On exit  : 0/0
  6241 ;;		Unchanged: 0/0
  6242 ;; Data sizes:     COMRAM   BANK0   BANK1   BANK2   BANK3   BANK4   BANK5   BANK6   BANK7   BANK8   BANK9  BANK10  BANK1
      +1  BANK12  BANK13
  6243 ;;      Params:         2       0       0       0       0       0       0       0       0       0       0       0       
      +0       0       0
  6244 ;;      Locals:         0       0       0       0       0       0       0       0       0       0       0       0       
      +0       0       0
  6245 ;;      Temps:          4       0       0       0       0       0       0       0       0       0       0       0       
      +0       0       0
  6246 ;;      Totals:         6       0       0       0       0       0       0       0       0       0       0       0       
      +0       0       0
  6247 ;;Total ram usage:        6 bytes
  6248 ;; Hardware stack levels used:    1
  6249 ;; This function calls:
  6250 ;;		Nothing
  6251 ;; This function is called by:
  6252 ;;		_toupper
  6253 ;; This function uses a non-reentrant model
  6254 ;;
  6255                           
  6256                           	psect	text25
  6257  013014                     __ptext25:
  6258                           	callstack 0
  6259  013014                     _islower:
  6260                           	callstack 23
  6261  013014  0E9F               	movlw	159
  6262  013016  6E03               	movwf	??_islower^0,c
  6263  013018  0EFF               	movlw	255
  6264  01301A  6E04               	movwf	(??_islower+1)^0,c
  6265  01301C  C001  F005         	movff	islower@c,??_islower+2
  6266  013020  C002  F006         	movff	islower@c+1,??_islower+3
  6267  013024  5003               	movf	??_islower^0,w,c
  6268  013026  2605               	addwf	(??_islower+2)^0,f,c
  6269  013028  5004               	movf	(??_islower+1)^0,w,c
  6270  01302A  2206               	addwfc	(??_islower+3)^0,f,c
  6271  01302C  5006               	movf	(??_islower+3)^0,w,c
  6272  01302E  E10A               	bnz	u2170
  6273  013030  0E1A               	movlw	26
  6274  013032  5C05               	subwf	(??_islower+2)^0,w,c
  6275  013034  A0D8               	btfss	status,0,c
  6276  013036  EF1F  F098         	goto	u2171
  6277  01303A  EF22  F098         	goto	u2170
  6278  01303E                     u2171:
  6279  01303E  0E01               	movlw	1
  6280  013040  EF23  F098         	goto	u2180
  6281  013044                     u2170:
  6282  013044  0E00               	movlw	0
  6283  013046                     u2180:
  6284  013046  6E01               	movwf	?_islower^0,c
  6285  013048  6A02               	clrf	(?_islower+1)^0,c
  6286  01304A  0012               	return		;funcret
  6287  01304C                     __end_of_islower:
  6288                           	callstack 0
  6289                           
  6290 ;; *************** function _isupper *****************
  6291 ;; Defined at:
  6292 ;;		line 5 in file "C:\Program Files\Microchip\xc8\v2.31\pic\sources\c99\common\isupper.c"
  6293 ;; Parameters:    Size  Location     Type
  6294 ;;  c               2    0[COMRAM] int 
  6295 ;; Auto vars:     Size  Location     Type
  6296 ;;		None
  6297 ;; Return value:  Size  Location     Type
  6298 ;;                  2    0[COMRAM] int 
  6299 ;; Registers used:
  6300 ;;		wreg, status,2, status,0
  6301 ;; Tracked objects:
  6302 ;;		On entry : 0/0
  6303 ;;		On exit  : 0/0
  6304 ;;		Unchanged: 0/0
  6305 ;; Data sizes:     COMRAM   BANK0   BANK1   BANK2   BANK3   BANK4   BANK5   BANK6   BANK7   BANK8   BANK9  BANK10  BANK1
      +1  BANK12  BANK13
  6306 ;;      Params:         2       0       0       0       0       0       0       0       0       0       0       0       
      +0       0       0
  6307 ;;      Locals:         0       0       0       0       0       0       0       0       0       0       0       0       
      +0       0       0
  6308 ;;      Temps:          4       0       0       0       0       0       0       0       0       0       0       0       
      +0       0       0
  6309 ;;      Totals:         6       0       0       0       0       0       0       0       0       0       0       0       
      +0       0       0
  6310 ;;Total ram usage:        6 bytes
  6311 ;; Hardware stack levels used:    1
  6312 ;; This function calls:
  6313 ;;		Nothing
  6314 ;; This function is called by:
  6315 ;;		_xtoa
  6316 ;; This function uses a non-reentrant model
  6317 ;;
  6318                           
  6319                           	psect	text26
  6320  01304C                     __ptext26:
  6321                           	callstack 0
  6322  01304C                     _isupper:
  6323                           	callstack 24
  6324  01304C  0EBF               	movlw	191
  6325  01304E  6E03               	movwf	??_isupper^0,c
  6326  013050  0EFF               	movlw	255
  6327  013052  6E04               	movwf	(??_isupper+1)^0,c
  6328  013054  C001  F005         	movff	isupper@c,??_isupper+2
  6329  013058  C002  F006         	movff	isupper@c+1,??_isupper+3
  6330  01305C  5003               	movf	??_isupper^0,w,c
  6331  01305E  2605               	addwf	(??_isupper+2)^0,f,c
  6332  013060  5004               	movf	(??_isupper+1)^0,w,c
  6333  013062  2206               	addwfc	(??_isupper+3)^0,f,c
  6334  013064  5006               	movf	(??_isupper+3)^0,w,c
  6335  013066  E10A               	bnz	u2370
  6336  013068  0E1A               	movlw	26
  6337  01306A  5C05               	subwf	(??_isupper+2)^0,w,c
  6338  01306C  A0D8               	btfss	status,0,c
  6339  01306E  EF3B  F098         	goto	u2371
  6340  013072  EF3E  F098         	goto	u2370
  6341  013076                     u2371:
  6342  013076  0E01               	movlw	1
  6343  013078  EF3F  F098         	goto	u2380
  6344  01307C                     u2370:
  6345  01307C  0E00               	movlw	0
  6346  01307E                     u2380:
  6347  01307E  6E01               	movwf	?_isupper^0,c
  6348  013080  6A02               	clrf	(?_isupper+1)^0,c
  6349  013082  0012               	return		;funcret
  6350  013084                     __end_of_isupper:
  6351                           	callstack 0
  6352                           
  6353 ;; *************** function _isalpha *****************
  6354 ;; Defined at:
  6355 ;;		line 5 in file "C:\Program Files\Microchip\xc8\v2.31\pic\sources\c99\common\isalpha.c"
  6356 ;; Parameters:    Size  Location     Type
  6357 ;;  c               2    0[COMRAM] int 
  6358 ;; Auto vars:     Size  Location     Type
  6359 ;;		None
  6360 ;; Return value:  Size  Location     Type
  6361 ;;                  2    0[COMRAM] int 
  6362 ;; Registers used:
  6363 ;;		wreg, status,2, status,0
  6364 ;; Tracked objects:
  6365 ;;		On entry : 0/0
  6366 ;;		On exit  : 0/0
  6367 ;;		Unchanged: 0/0
  6368 ;; Data sizes:     COMRAM   BANK0   BANK1   BANK2   BANK3   BANK4   BANK5   BANK6   BANK7   BANK8   BANK9  BANK10  BANK1
      +1  BANK12  BANK13
  6369 ;;      Params:         2       0       0       0       0       0       0       0       0       0       0       0       
      +0       0       0
  6370 ;;      Locals:         0       0       0       0       0       0       0       0       0       0       0       0       
      +0       0       0
  6371 ;;      Temps:          4       0       0       0       0       0       0       0       0       0       0       0       
      +0       0       0
  6372 ;;      Totals:         6       0       0       0       0       0       0       0       0       0       0       0       
      +0       0       0
  6373 ;;Total ram usage:        6 bytes
  6374 ;; Hardware stack levels used:    1
  6375 ;; This function calls:
  6376 ;;		Nothing
  6377 ;; This function is called by:
  6378 ;;		_xtoa
  6379 ;; This function uses a non-reentrant model
  6380 ;;
  6381                           
  6382                           	psect	text27
  6383  012FD8                     __ptext27:
  6384                           	callstack 0
  6385  012FD8                     _isalpha:
  6386                           	callstack 24
  6387  012FD8  0E9F               	movlw	159
  6388  012FDA  6E03               	movwf	??_isalpha^0,c
  6389  012FDC  0EFF               	movlw	255
  6390  012FDE  6E04               	movwf	(??_isalpha+1)^0,c
  6391  012FE0  0E20               	movlw	32
  6392  012FE2  1001               	iorwf	isalpha@c^0,w,c
  6393  012FE4  6E05               	movwf	(??_isalpha+2)^0,c
  6394  012FE6  0E00               	movlw	0
  6395  012FE8  1002               	iorwf	(isalpha@c+1)^0,w,c
  6396  012FEA  6E06               	movwf	(??_isalpha+3)^0,c
  6397  012FEC  5003               	movf	??_isalpha^0,w,c
  6398  012FEE  2605               	addwf	(??_isalpha+2)^0,f,c
  6399  012FF0  5004               	movf	(??_isalpha+1)^0,w,c
  6400  012FF2  2206               	addwfc	(??_isalpha+3)^0,f,c
  6401  012FF4  5006               	movf	(??_isalpha+3)^0,w,c
  6402  012FF6  E10A               	bnz	u2390
  6403  012FF8  0E1A               	movlw	26
  6404  012FFA  5C05               	subwf	(??_isalpha+2)^0,w,c
  6405  012FFC  A0D8               	btfss	status,0,c
  6406  012FFE  EF03  F098         	goto	u2391
  6407  013002  EF06  F098         	goto	u2390
  6408  013006                     u2391:
  6409  013006  0E01               	movlw	1
  6410  013008  EF07  F098         	goto	u2400
  6411  01300C                     u2390:
  6412  01300C  0E00               	movlw	0
  6413  01300E                     u2400:
  6414  01300E  6E01               	movwf	?_isalpha^0,c
  6415  013010  6A02               	clrf	(?_isalpha+1)^0,c
  6416  013012  0012               	return		;funcret
  6417  013014                     __end_of_isalpha:
  6418                           	callstack 0
  6419                           
  6420 ;; *************** function _dtoa *****************
  6421 ;; Defined at:
  6422 ;;		line 287 in file "C:\Program Files\Microchip\xc8\v2.31\pic\sources\c99\common\doprnt.c"
  6423 ;; Parameters:    Size  Location     Type
  6424 ;;  fp              2   29[COMRAM] PTR struct _IO_FILE
  6425 ;;		 -> NULL(0), 
  6426 ;;  d               8   31[COMRAM] long long 
  6427 ;; Auto vars:     Size  Location     Type
  6428 ;;  n               8   55[COMRAM] long long 
  6429 ;;  i               2   63[COMRAM] int 
  6430 ;;  s               2   53[COMRAM] int 
  6431 ;;  w               2   51[COMRAM] int 
  6432 ;;  p               2   49[COMRAM] int 
  6433 ;; Return value:  Size  Location     Type
  6434 ;;                  2   29[COMRAM] int 
  6435 ;; Registers used:
  6436 ;;		wreg, fsr1l, fsr1h, fsr2l, fsr2h, status,2, status,0, cstack
  6437 ;; Tracked objects:
  6438 ;;		On entry : 0/0
  6439 ;;		On exit  : 0/0
  6440 ;;		Unchanged: 0/0
  6441 ;; Data sizes:     COMRAM   BANK0   BANK1   BANK2   BANK3   BANK4   BANK5   BANK6   BANK7   BANK8   BANK9  BANK10  BANK1
      +1  BANK12  BANK13
  6442 ;;      Params:        10       0       0       0       0       0       0       0       0       0       0       0       
      +0       0       0
  6443 ;;      Locals:        18       0       0       0       0       0       0       0       0       0       0       0       
      +0       0       0
  6444 ;;      Temps:          8       0       0       0       0       0       0       0       0       0       0       0       
      +0       0       0
  6445 ;;      Totals:        36       0       0       0       0       0       0       0       0       0       0       0       
      +0       0       0
  6446 ;;Total ram usage:       36 bytes
  6447 ;; Hardware stack levels used:    1
  6448 ;; Hardware stack levels required when called:    5
  6449 ;; This function calls:
  6450 ;;		___aodiv
  6451 ;;		___aomod
  6452 ;;		_abs
  6453 ;;		_pad
  6454 ;; This function is called by:
  6455 ;;		_vfpfcnvrt
  6456 ;; This function uses a non-reentrant model
  6457 ;;
  6458                           
  6459                           	psect	text28
  6460  01151A                     __ptext28:
  6461                           	callstack 0
  6462  01151A                     _dtoa:
  6463                           	callstack 20
  6464  01151A                     
  6465                           ;C:\Program Files\Microchip\xc8\v2.31\pic\sources\c99\common\doprnt.c: 287: static int d
      +                          toa(FILE *fp, long long d);C:\Program Files\Microchip\xc8\v2.31\pic\sources\c99\common\d
      +                          oprnt.c: 288: {;C:\Program Files\Microchip\xc8\v2.31\pic\sources\c99\common\doprnt.c: 28
      +                          9:     int i, p, s, w;;C:\Program Files\Microchip\xc8\v2.31\pic\sources\c99\common\doprn
      +                          t.c: 290:     long long n;;C:\Program Files\Microchip\xc8\v2.31\pic\sources\c99\common\d
      +                          oprnt.c: 293:     n = d;
  6466  01151A  C020  F038         	movff	dtoa@d,dtoa@n
  6467  01151E  C021  F039         	movff	dtoa@d+1,dtoa@n+1
  6468  011522  C022  F03A         	movff	dtoa@d+2,dtoa@n+2
  6469  011526  C023  F03B         	movff	dtoa@d+3,dtoa@n+3
  6470  01152A  C024  F03C         	movff	dtoa@d+4,dtoa@n+4
  6471  01152E  C025  F03D         	movff	dtoa@d+5,dtoa@n+5
  6472  011532  C026  F03E         	movff	dtoa@d+6,dtoa@n+6
  6473  011536  C027  F03F         	movff	dtoa@d+7,dtoa@n+7
  6474  01153A                     
  6475                           ;C:\Program Files\Microchip\xc8\v2.31\pic\sources\c99\common\doprnt.c: 294:     s = n < 
      +                          0 ? 1 : 0;
  6476  01153A  BE3F               	btfsc	(dtoa@n+7)^0,7,c
  6477  01153C  EFA2  F08A         	goto	u2481
  6478  011540  EFA5  F08A         	goto	u2480
  6479  011544                     u2481:
  6480  011544  0E01               	movlw	1
  6481  011546  EFA6  F08A         	goto	u2490
  6482  01154A                     u2480:
  6483  01154A  0E00               	movlw	0
  6484  01154C                     u2490:
  6485  01154C  6E36               	movwf	dtoa@s^0,c
  6486  01154E  6A37               	clrf	(dtoa@s+1)^0,c
  6487                           
  6488                           ;C:\Program Files\Microchip\xc8\v2.31\pic\sources\c99\common\doprnt.c: 295:     if (s) {
  6489  011550  5036               	movf	dtoa@s^0,w,c
  6490  011552  1037               	iorwf	(dtoa@s+1)^0,w,c
  6491  011554  B4D8               	btfsc	status,2,c
  6492  011556  EFAF  F08A         	goto	u2501
  6493  01155A  EFB1  F08A         	goto	u2500
  6494  01155E                     u2501:
  6495  01155E  EFC1  F08A         	goto	l3483
  6496  011562                     u2500:
  6497  011562                     
  6498                           ;C:\Program Files\Microchip\xc8\v2.31\pic\sources\c99\common\doprnt.c: 296:         n = 
      +                          -n;
  6499  011562  1E3F               	comf	(dtoa@n+7)^0,f,c
  6500  011564  1E3E               	comf	(dtoa@n+6)^0,f,c
  6501  011566  1E3D               	comf	(dtoa@n+5)^0,f,c
  6502  011568  1E3C               	comf	(dtoa@n+4)^0,f,c
  6503  01156A  1E3B               	comf	(dtoa@n+3)^0,f,c
  6504  01156C  1E3A               	comf	(dtoa@n+2)^0,f,c
  6505  01156E  1E39               	comf	(dtoa@n+1)^0,f,c
  6506  011570  6C38               	negf	dtoa@n^0,c
  6507  011572  0E00               	movlw	0
  6508  011574  2239               	addwfc	(dtoa@n+1)^0,f,c
  6509  011576  223A               	addwfc	(dtoa@n+2)^0,f,c
  6510  011578  223B               	addwfc	(dtoa@n+3)^0,f,c
  6511  01157A  223C               	addwfc	(dtoa@n+4)^0,f,c
  6512  01157C  223D               	addwfc	(dtoa@n+5)^0,f,c
  6513  01157E  223E               	addwfc	(dtoa@n+6)^0,f,c
  6514  011580  223F               	addwfc	(dtoa@n+7)^0,f,c
  6515  011582                     l3483:
  6516                           
  6517                           ;C:\Program Files\Microchip\xc8\v2.31\pic\sources\c99\common\doprnt.c: 300:     if (!(pr
      +                          ec < 0)) {
  6518  011582  0100               	movlb	0	; () banked
  6519  011584  BF65               	btfsc	(_prec+1)& (0+255),7,b
  6520  011586  EFC7  F08A         	goto	u2511
  6521  01158A  EFC9  F08A         	goto	u2510
  6522  01158E                     u2511:
  6523  01158E  EFCA  F08A         	goto	l3487
  6524  011592                     u2510:
  6525  011592                     
  6526                           ; BSR set to: 0
  6527                           ;C:\Program Files\Microchip\xc8\v2.31\pic\sources\c99\common\doprnt.c: 301:         flag
      +                          s &= ~(1 << 1);
  6528  011592  9366               	bcf	_flags& (0+255),1,b
  6529  011594                     l3487:
  6530                           
  6531                           ; BSR set to: 0
  6532                           ;C:\Program Files\Microchip\xc8\v2.31\pic\sources\c99\common\doprnt.c: 303:     p = (0 <
      +                           prec) ? prec : 1;
  6533  011594  BF65               	btfsc	(_prec+1)& (0+255),7,b
  6534  011596  EFD7  F08A         	goto	u2520
  6535  01159A  5165               	movf	(_prec+1)& (0+255),w,b
  6536  01159C  E106               	bnz	u2521
  6537  01159E  0564               	decf	_prec& (0+255),w,b
  6538  0115A0  B0D8               	btfsc	status,0,c
  6539  0115A2  EFD5  F08A         	goto	u2521
  6540  0115A6  EFD7  F08A         	goto	u2520
  6541  0115AA                     u2521:
  6542  0115AA  EFDD  F08A         	goto	l1057
  6543  0115AE                     u2520:
  6544  0115AE                     
  6545                           ; BSR set to: 0
  6546  0115AE  0E00               	movlw	0
  6547  0115B0  6E33               	movwf	(dtoa@p+1)^0,c
  6548  0115B2  0E01               	movlw	1
  6549  0115B4  6E32               	movwf	dtoa@p^0,c
  6550  0115B6  EFE1  F08A         	goto	l1059
  6551  0115BA                     l1057:
  6552                           
  6553                           ; BSR set to: 0
  6554  0115BA  C064  F032         	movff	_prec,dtoa@p
  6555  0115BE  C065  F033         	movff	_prec+1,dtoa@p+1
  6556  0115C2                     l1059:
  6557                           
  6558                           ; BSR set to: 0
  6559                           ;C:\Program Files\Microchip\xc8\v2.31\pic\sources\c99\common\doprnt.c: 304:     w = widt
      +                          h;
  6560  0115C2  C062  F034         	movff	_width,dtoa@w
  6561  0115C6  C063  F035         	movff	_width+1,dtoa@w+1
  6562  0115CA                     
  6563                           ; BSR set to: 0
  6564                           ;C:\Program Files\Microchip\xc8\v2.31\pic\sources\c99\common\doprnt.c: 305:     if (s ||
      +                           (flags & (1 << 2))) {
  6565  0115CA  5036               	movf	dtoa@s^0,w,c
  6566  0115CC  1037               	iorwf	(dtoa@s+1)^0,w,c
  6567  0115CE  A4D8               	btfss	status,2,c
  6568  0115D0  EFEC  F08A         	goto	u2531
  6569  0115D4  EFEE  F08A         	goto	u2530
  6570  0115D8                     u2531:
  6571  0115D8  EFF5  F08A         	goto	l3495
  6572  0115DC                     u2530:
  6573  0115DC                     
  6574                           ; BSR set to: 0
  6575  0115DC  A566               	btfss	_flags& (0+255),2,b
  6576  0115DE  EFF3  F08A         	goto	u2541
  6577  0115E2  EFF5  F08A         	goto	u2540
  6578  0115E6                     u2541:
  6579  0115E6  EFF8  F08A         	goto	l3497
  6580  0115EA                     u2540:
  6581  0115EA                     l3495:
  6582                           
  6583                           ; BSR set to: 0
  6584                           ;C:\Program Files\Microchip\xc8\v2.31\pic\sources\c99\common\doprnt.c: 306:         --w;
  6585  0115EA  0634               	decf	dtoa@w^0,f,c
  6586  0115EC  A0D8               	btfss	status,0,c
  6587  0115EE  0635               	decf	(dtoa@w+1)^0,f,c
  6588  0115F0                     l3497:
  6589                           
  6590                           ; BSR set to: 0
  6591                           ;C:\Program Files\Microchip\xc8\v2.31\pic\sources\c99\common\doprnt.c: 310:     i = size
      +                          of(dbuf) - 1;
  6592  0115F0  0E00               	movlw	0
  6593  0115F2  6E41               	movwf	(dtoa@i+1)^0,c
  6594  0115F4  0E1F               	movlw	31
  6595  0115F6  6E40               	movwf	dtoa@i^0,c
  6596  0115F8                     
  6597                           ; BSR set to: 0
  6598                           ;C:\Program Files\Microchip\xc8\v2.31\pic\sources\c99\common\doprnt.c: 311:     dbuf[i] 
      +                          = '\0';
  6599  0115F8  0E00               	movlw	0
  6600  0115FA  6F87               	movwf	(_dbuf+31)& (0+255),b
  6601                           
  6602                           ;C:\Program Files\Microchip\xc8\v2.31\pic\sources\c99\common\doprnt.c: 312:     while (!
      +                          (i < 1) && (n || (0 < p) || ((0 < w) && (flags & (1 << 1))))) {
  6603  0115FC  EF7C  F08B         	goto	l3511
  6604  011600                     l3501:
  6605                           
  6606                           ;C:\Program Files\Microchip\xc8\v2.31\pic\sources\c99\common\doprnt.c: 313:         --i;
  6607  011600  0640               	decf	dtoa@i^0,f,c
  6608  011602  A0D8               	btfss	status,0,c
  6609  011604  0641               	decf	(dtoa@i+1)^0,f,c
  6610  011606                     
  6611                           ;C:\Program Files\Microchip\xc8\v2.31\pic\sources\c99\common\doprnt.c: 314:         dbuf
      +                          [i] = (char)((int)'0' + abs(n % 10));
  6612  011606  0E68               	movlw	low _dbuf
  6613  011608  2440               	addwf	dtoa@i^0,w,c
  6614  01160A  6ED9               	movwf	fsr2l,c
  6615  01160C  0E00               	movlw	high _dbuf
  6616  01160E  2041               	addwfc	(dtoa@i+1)^0,w,c
  6617  011610  6EDA               	movwf	fsr2h,c
  6618  011612  C038  F001         	movff	dtoa@n,___aomod@dividend
  6619  011616  C039  F002         	movff	dtoa@n+1,___aomod@dividend+1
  6620  01161A  C03A  F003         	movff	dtoa@n+2,___aomod@dividend+2
  6621  01161E  C03B  F004         	movff	dtoa@n+3,___aomod@dividend+3
  6622  011622  C03C  F005         	movff	dtoa@n+4,___aomod@dividend+4
  6623  011626  C03D  F006         	movff	dtoa@n+5,___aomod@dividend+5
  6624  01162A  C03E  F007         	movff	dtoa@n+6,___aomod@dividend+6
  6625  01162E  C03F  F008         	movff	dtoa@n+7,___aomod@dividend+7
  6626  011632  0E0A               	movlw	10
  6627  011634  6E09               	movwf	___aomod@divisor^0,c
  6628  011636  0E00               	movlw	0
  6629  011638  6E0A               	movwf	(___aomod@divisor+1)^0,c
  6630  01163A  0E00               	movlw	0
  6631  01163C  6E0B               	movwf	(___aomod@divisor+2)^0,c
  6632  01163E  0E00               	movlw	0
  6633  011640  6E0C               	movwf	(___aomod@divisor+3)^0,c
  6634  011642  0E00               	movlw	0
  6635  011644  6E0D               	movwf	(___aomod@divisor+4)^0,c
  6636  011646  0E00               	movlw	0
  6637  011648  6E0E               	movwf	(___aomod@divisor+5)^0,c
  6638  01164A  0E00               	movlw	0
  6639  01164C  6E0F               	movwf	(___aomod@divisor+6)^0,c
  6640  01164E  0E00               	movlw	0
  6641  011650  6E10               	movwf	(___aomod@divisor+7)^0,c
  6642  011652  ECBB  F092         	call	___aomod	;wreg free
  6643  011656  C001  F028         	movff	?___aomod,??_dtoa
  6644  01165A  C002  F029         	movff	?___aomod+1,??_dtoa+1
  6645  01165E  C003  F02A         	movff	?___aomod+2,??_dtoa+2
  6646  011662  C004  F02B         	movff	?___aomod+3,??_dtoa+3
  6647  011666  C005  F02C         	movff	?___aomod+4,??_dtoa+4
  6648  01166A  C006  F02D         	movff	?___aomod+5,??_dtoa+5
  6649  01166E  C007  F02E         	movff	?___aomod+6,??_dtoa+6
  6650  011672  C008  F02F         	movff	?___aomod+7,??_dtoa+7
  6651  011676  C028  F013         	movff	??_dtoa,abs@a
  6652  01167A  C02A  F014         	movff	??_dtoa+2,abs@a+1
  6653  01167E  ECCC  F097         	call	_abs	;wreg free
  6654  011682  5013               	movf	?_abs^0,w,c
  6655  011684  0F30               	addlw	48
  6656  011686  6EDF               	movwf	indf2,c
  6657  011688                     
  6658                           ;C:\Program Files\Microchip\xc8\v2.31\pic\sources\c99\common\doprnt.c: 315:         --p;
  6659  011688  0632               	decf	dtoa@p^0,f,c
  6660  01168A  A0D8               	btfss	status,0,c
  6661  01168C  0633               	decf	(dtoa@p+1)^0,f,c
  6662  01168E                     
  6663                           ;C:\Program Files\Microchip\xc8\v2.31\pic\sources\c99\common\doprnt.c: 316:         --w;
  6664  01168E  0634               	decf	dtoa@w^0,f,c
  6665  011690  A0D8               	btfss	status,0,c
  6666  011692  0635               	decf	(dtoa@w+1)^0,f,c
  6667  011694                     
  6668                           ;C:\Program Files\Microchip\xc8\v2.31\pic\sources\c99\common\doprnt.c: 317:         n = 
      +                          n / 10;
  6669  011694  C038  F001         	movff	dtoa@n,___aodiv@dividend
  6670  011698  C039  F002         	movff	dtoa@n+1,___aodiv@dividend+1
  6671  01169C  C03A  F003         	movff	dtoa@n+2,___aodiv@dividend+2
  6672  0116A0  C03B  F004         	movff	dtoa@n+3,___aodiv@dividend+3
  6673  0116A4  C03C  F005         	movff	dtoa@n+4,___aodiv@dividend+4
  6674  0116A8  C03D  F006         	movff	dtoa@n+5,___aodiv@dividend+5
  6675  0116AC  C03E  F007         	movff	dtoa@n+6,___aodiv@dividend+6
  6676  0116B0  C03F  F008         	movff	dtoa@n+7,___aodiv@dividend+7
  6677  0116B4  0E0A               	movlw	10
  6678  0116B6  6E09               	movwf	___aodiv@divisor^0,c
  6679  0116B8  0E00               	movlw	0
  6680  0116BA  6E0A               	movwf	(___aodiv@divisor+1)^0,c
  6681  0116BC  0E00               	movlw	0
  6682  0116BE  6E0B               	movwf	(___aodiv@divisor+2)^0,c
  6683  0116C0  0E00               	movlw	0
  6684  0116C2  6E0C               	movwf	(___aodiv@divisor+3)^0,c
  6685  0116C4  0E00               	movlw	0
  6686  0116C6  6E0D               	movwf	(___aodiv@divisor+4)^0,c
  6687  0116C8  0E00               	movlw	0
  6688  0116CA  6E0E               	movwf	(___aodiv@divisor+5)^0,c
  6689  0116CC  0E00               	movlw	0
  6690  0116CE  6E0F               	movwf	(___aodiv@divisor+6)^0,c
  6691  0116D0  0E00               	movlw	0
  6692  0116D2  6E10               	movwf	(___aodiv@divisor+7)^0,c
  6693  0116D4  ECF7  F091         	call	___aodiv	;wreg free
  6694  0116D8  C001  F038         	movff	?___aodiv,dtoa@n
  6695  0116DC  C002  F039         	movff	?___aodiv+1,dtoa@n+1
  6696  0116E0  C003  F03A         	movff	?___aodiv+2,dtoa@n+2
  6697  0116E4  C004  F03B         	movff	?___aodiv+3,dtoa@n+3
  6698  0116E8  C005  F03C         	movff	?___aodiv+4,dtoa@n+4
  6699  0116EC  C006  F03D         	movff	?___aodiv+5,dtoa@n+5
  6700  0116F0  C007  F03E         	movff	?___aodiv+6,dtoa@n+6
  6701  0116F4  C008  F03F         	movff	?___aodiv+7,dtoa@n+7
  6702  0116F8                     l3511:
  6703                           
  6704                           ;C:\Program Files\Microchip\xc8\v2.31\pic\sources\c99\common\doprnt.c: 312:     while (!
      +                          (i < 1) && (n || (0 < p) || ((0 < w) && (flags & (1 << 1))))) {
  6705  0116F8  BE41               	btfsc	(dtoa@i+1)^0,7,c
  6706  0116FA  EF87  F08B         	goto	u2551
  6707  0116FE  5041               	movf	(dtoa@i+1)^0,w,c
  6708  011700  E108               	bnz	u2550
  6709  011702  0440               	decf	dtoa@i^0,w,c
  6710  011704  A0D8               	btfss	status,0,c
  6711  011706  EF87  F08B         	goto	u2551
  6712  01170A  EF89  F08B         	goto	u2550
  6713  01170E                     u2551:
  6714  01170E  EFBA  F08B         	goto	l3521
  6715  011712                     u2550:
  6716  011712  5038               	movf	dtoa@n^0,w,c
  6717  011714  1039               	iorwf	(dtoa@n+1)^0,w,c
  6718  011716  103A               	iorwf	(dtoa@n+2)^0,w,c
  6719  011718  103B               	iorwf	(dtoa@n+3)^0,w,c
  6720  01171A  103C               	iorwf	(dtoa@n+4)^0,w,c
  6721  01171C  103D               	iorwf	(dtoa@n+5)^0,w,c
  6722  01171E  103E               	iorwf	(dtoa@n+6)^0,w,c
  6723  011720  103F               	iorwf	(dtoa@n+7)^0,w,c
  6724  011722  A4D8               	btfss	status,2,c
  6725  011724  EF96  F08B         	goto	u2561
  6726  011728  EF98  F08B         	goto	u2560
  6727  01172C                     u2561:
  6728  01172C  EF00  F08B         	goto	l3501
  6729  011730                     u2560:
  6730  011730  BE33               	btfsc	(dtoa@p+1)^0,7,c
  6731  011732  EFA5  F08B         	goto	u2570
  6732  011736  5033               	movf	(dtoa@p+1)^0,w,c
  6733  011738  E106               	bnz	u2571
  6734  01173A  0432               	decf	dtoa@p^0,w,c
  6735  01173C  B0D8               	btfsc	status,0,c
  6736  01173E  EFA3  F08B         	goto	u2571
  6737  011742  EFA5  F08B         	goto	u2570
  6738  011746                     u2571:
  6739  011746  EF00  F08B         	goto	l3501
  6740  01174A                     u2570:
  6741  01174A  BE35               	btfsc	(dtoa@w+1)^0,7,c
  6742  01174C  EFB0  F08B         	goto	u2581
  6743  011750  5035               	movf	(dtoa@w+1)^0,w,c
  6744  011752  E108               	bnz	u2580
  6745  011754  0434               	decf	dtoa@w^0,w,c
  6746  011756  A0D8               	btfss	status,0,c
  6747  011758  EFB0  F08B         	goto	u2581
  6748  01175C  EFB2  F08B         	goto	u2580
  6749  011760                     u2581:
  6750  011760  EFBA  F08B         	goto	l3521
  6751  011764                     u2580:
  6752  011764  0100               	movlb	0	; () banked
  6753  011766  B366               	btfsc	_flags& (0+255),1,b
  6754  011768  EFB8  F08B         	goto	u2591
  6755  01176C  EFBA  F08B         	goto	u2590
  6756  011770                     u2591:
  6757  011770  EF00  F08B         	goto	l3501
  6758  011774                     u2590:
  6759  011774                     l3521:
  6760                           
  6761                           ;C:\Program Files\Microchip\xc8\v2.31\pic\sources\c99\common\doprnt.c: 321:     if (s ||
      +                           (flags & (1 << 2))) {
  6762  011774  5036               	movf	dtoa@s^0,w,c
  6763  011776  1037               	iorwf	(dtoa@s+1)^0,w,c
  6764  011778  A4D8               	btfss	status,2,c
  6765  01177A  EFC1  F08B         	goto	u2601
  6766  01177E  EFC3  F08B         	goto	u2600
  6767  011782                     u2601:
  6768  011782  EFCB  F08B         	goto	l3525
  6769  011786                     u2600:
  6770  011786  0100               	movlb	0	; () banked
  6771  011788  A566               	btfss	_flags& (0+255),2,b
  6772  01178A  EFC9  F08B         	goto	u2611
  6773  01178E  EFCB  F08B         	goto	u2610
  6774  011792                     u2611:
  6775  011792  EFE9  F08B         	goto	l3535
  6776  011796                     u2610:
  6777  011796                     l3525:
  6778                           
  6779                           ;C:\Program Files\Microchip\xc8\v2.31\pic\sources\c99\common\doprnt.c: 322:         --i;
  6780  011796  0640               	decf	dtoa@i^0,f,c
  6781  011798  A0D8               	btfss	status,0,c
  6782  01179A  0641               	decf	(dtoa@i+1)^0,f,c
  6783  01179C                     
  6784                           ;C:\Program Files\Microchip\xc8\v2.31\pic\sources\c99\common\doprnt.c: 323:         dbuf
      +                          [i] = s ? '-' : '+';
  6785  01179C  5036               	movf	dtoa@s^0,w,c
  6786  01179E  1037               	iorwf	(dtoa@s+1)^0,w,c
  6787  0117A0  A4D8               	btfss	status,2,c
  6788  0117A2  EFD5  F08B         	goto	u2621
  6789  0117A6  EFD7  F08B         	goto	u2620
  6790  0117AA                     u2621:
  6791  0117AA  EFDD  F08B         	goto	l3531
  6792  0117AE                     u2620:
  6793  0117AE  0E00               	movlw	0
  6794  0117B0  6E31               	movwf	(_dtoa$1634+1)^0,c
  6795  0117B2  0E2B               	movlw	43
  6796  0117B4  6E30               	movwf	_dtoa$1634^0,c
  6797  0117B6  EFE1  F08B         	goto	l3533
  6798  0117BA                     l3531:
  6799  0117BA  0E00               	movlw	0
  6800  0117BC  6E31               	movwf	(_dtoa$1634+1)^0,c
  6801  0117BE  0E2D               	movlw	45
  6802  0117C0  6E30               	movwf	_dtoa$1634^0,c
  6803  0117C2                     l3533:
  6804  0117C2  0E68               	movlw	low _dbuf
  6805  0117C4  2440               	addwf	dtoa@i^0,w,c
  6806  0117C6  6ED9               	movwf	fsr2l,c
  6807  0117C8  0E00               	movlw	high _dbuf
  6808  0117CA  2041               	addwfc	(dtoa@i+1)^0,w,c
  6809  0117CC  6EDA               	movwf	fsr2h,c
  6810  0117CE  C030  FFDF         	movff	_dtoa$1634,indf2
  6811  0117D2                     l3535:
  6812                           
  6813                           ;C:\Program Files\Microchip\xc8\v2.31\pic\sources\c99\common\doprnt.c: 327:     return p
      +                          ad(fp, &dbuf[i], w);
  6814  0117D2  C01E  F013         	movff	dtoa@fp,pad@fp
  6815  0117D6  C01F  F014         	movff	dtoa@fp+1,pad@fp+1
  6816  0117DA  0E68               	movlw	low _dbuf
  6817  0117DC  2440               	addwf	dtoa@i^0,w,c
  6818  0117DE  6E15               	movwf	pad@buf^0,c
  6819  0117E0  0E00               	movlw	high _dbuf
  6820  0117E2  2041               	addwfc	(dtoa@i+1)^0,w,c
  6821  0117E4  6E16               	movwf	(pad@buf+1)^0,c
  6822  0117E6  C034  F017         	movff	dtoa@w,pad@p
  6823  0117EA  C035  F018         	movff	dtoa@w+1,pad@p+1
  6824  0117EE  EC0F  F095         	call	_pad	;wreg free
  6825  0117F2  C013  F01E         	movff	?_pad,?_dtoa
  6826  0117F6  C014  F01F         	movff	?_pad+1,?_dtoa+1
  6827  0117FA  0012               	return		;funcret
  6828  0117FC                     __end_of_dtoa:
  6829                           	callstack 0
  6830                           
  6831 ;; *************** function _pad *****************
  6832 ;; Defined at:
  6833 ;;		line 72 in file "C:\Program Files\Microchip\xc8\v2.31\pic\sources\c99\common\doprnt.c"
  6834 ;; Parameters:    Size  Location     Type
  6835 ;;  fp              2   18[COMRAM] PTR struct _IO_FILE
  6836 ;;		 -> NULL(0), 
  6837 ;;  buf             2   20[COMRAM] PTR unsigned char 
  6838 ;;		 -> dbuf(32), 
  6839 ;;  p               2   22[COMRAM] int 
  6840 ;; Auto vars:     Size  Location     Type
  6841 ;;  w               2   27[COMRAM] int 
  6842 ;;  i               2   25[COMRAM] int 
  6843 ;; Return value:  Size  Location     Type
  6844 ;;                  2   18[COMRAM] int 
  6845 ;; Registers used:
  6846 ;;		wreg, fsr1l, fsr1h, fsr2l, fsr2h, status,2, status,0, cstack
  6847 ;; Tracked objects:
  6848 ;;		On entry : 0/0
  6849 ;;		On exit  : 0/0
  6850 ;;		Unchanged: 0/0
  6851 ;; Data sizes:     COMRAM   BANK0   BANK1   BANK2   BANK3   BANK4   BANK5   BANK6   BANK7   BANK8   BANK9  BANK10  BANK1
      +1  BANK12  BANK13
  6852 ;;      Params:         6       0       0       0       0       0       0       0       0       0       0       0       
      +0       0       0
  6853 ;;      Locals:         4       0       0       0       0       0       0       0       0       0       0       0       
      +0       0       0
  6854 ;;      Temps:          1       0       0       0       0       0       0       0       0       0       0       0       
      +0       0       0
  6855 ;;      Totals:        11       0       0       0       0       0       0       0       0       0       0       0       
      +0       0       0
  6856 ;;Total ram usage:       11 bytes
  6857 ;; Hardware stack levels used:    1
  6858 ;; Hardware stack levels required when called:    4
  6859 ;; This function calls:
  6860 ;;		_fputc
  6861 ;;		_fputs
  6862 ;;		_strlen
  6863 ;; This function is called by:
  6864 ;;		_dtoa
  6865 ;;		_xtoa
  6866 ;; This function uses a non-reentrant model
  6867 ;;
  6868                           
  6869                           	psect	text29
  6870  012A1E                     __ptext29:
  6871                           	callstack 0
  6872  012A1E                     _pad:
  6873                           	callstack 20
  6874  012A1E                     
  6875                           ;C:\Program Files\Microchip\xc8\v2.31\pic\sources\c99\common\doprnt.c: 72: static int pa
      +                          d(FILE *fp, char *buf, int p);C:\Program Files\Microchip\xc8\v2.31\pic\sources\c99\commo
      +                          n\doprnt.c: 73: {;C:\Program Files\Microchip\xc8\v2.31\pic\sources\c99\common\doprnt.c: 
      +                          74:     int i, w;;C:\Program Files\Microchip\xc8\v2.31\pic\sources\c99\common\doprnt.c: 
      +                          77:     if (flags & (1 << 0)) {
  6876  012A1E  0100               	movlb	0	; () banked
  6877  012A20  A166               	btfss	_flags& (0+255),0,b
  6878  012A22  EF15  F095         	goto	u2321
  6879  012A26  EF17  F095         	goto	u2320
  6880  012A2A                     u2321:
  6881  012A2A  EF21  F095         	goto	l3421
  6882  012A2E                     u2320:
  6883  012A2E                     
  6884                           ; BSR set to: 0
  6885                           ;C:\Program Files\Microchip\xc8\v2.31\pic\sources\c99\common\doprnt.c: 78:         fputs
      +                          ((const char *)buf, fp);
  6886  012A2E  C015  F00C         	movff	pad@buf,fputs@s
  6887  012A32  C016  F00D         	movff	pad@buf+1,fputs@s+1
  6888  012A36  C013  F00E         	movff	pad@fp,fputs@fp
  6889  012A3A  C014  F00F         	movff	pad@fp+1,fputs@fp+1
  6890  012A3E  EC68  F097         	call	_fputs	;wreg free
  6891  012A42                     l3421:
  6892                           
  6893                           ;C:\Program Files\Microchip\xc8\v2.31\pic\sources\c99\common\doprnt.c: 82:     w = (p < 
      +                          0) ? 0 : p;
  6894  012A42  BE18               	btfsc	(pad@p+1)^0,7,c
  6895  012A44  EF26  F095         	goto	u2331
  6896  012A48  EF28  F095         	goto	u2330
  6897  012A4C                     u2331:
  6898  012A4C  EF2E  F095         	goto	l3425
  6899  012A50                     u2330:
  6900  012A50  C017  F01C         	movff	pad@p,pad@w
  6901  012A54  C018  F01D         	movff	pad@p+1,pad@w+1
  6902  012A58  EF32  F095         	goto	l1046
  6903  012A5C                     l3425:
  6904  012A5C  0E00               	movlw	0
  6905  012A5E  6E1D               	movwf	(pad@w+1)^0,c
  6906  012A60  0E00               	movlw	0
  6907  012A62  6E1C               	movwf	pad@w^0,c
  6908  012A64                     l1046:
  6909                           
  6910                           ;C:\Program Files\Microchip\xc8\v2.31\pic\sources\c99\common\doprnt.c: 83:     i = 0;
  6911  012A64  0E00               	movlw	0
  6912  012A66  6E1B               	movwf	(pad@i+1)^0,c
  6913  012A68  0E00               	movlw	0
  6914  012A6A  6E1A               	movwf	pad@i^0,c
  6915                           
  6916                           ;C:\Program Files\Microchip\xc8\v2.31\pic\sources\c99\common\doprnt.c: 84:     while (i 
      +                          < w) {
  6917  012A6C  EF44  F095         	goto	l3431
  6918  012A70                     l3427:
  6919                           
  6920                           ;C:\Program Files\Microchip\xc8\v2.31\pic\sources\c99\common\doprnt.c: 85:         fputc
      +                          (' ', fp);
  6921  012A70  0E00               	movlw	0
  6922  012A72  6E04               	movwf	(fputc@c+1)^0,c
  6923  012A74  0E20               	movlw	32
  6924  012A76  6E03               	movwf	fputc@c^0,c
  6925  012A78  C013  F005         	movff	pad@fp,fputc@fp
  6926  012A7C  C014  F006         	movff	pad@fp+1,fputc@fp+1
  6927  012A80  ECD0  F095         	call	_fputc	;wreg free
  6928  012A84                     
  6929                           ;C:\Program Files\Microchip\xc8\v2.31\pic\sources\c99\common\doprnt.c: 86:         ++i;
  6930  012A84  4A1A               	infsnz	pad@i^0,f,c
  6931  012A86  2A1B               	incf	(pad@i+1)^0,f,c
  6932  012A88                     l3431:
  6933                           
  6934                           ;C:\Program Files\Microchip\xc8\v2.31\pic\sources\c99\common\doprnt.c: 84:     while (i 
      +                          < w) {
  6935  012A88  501C               	movf	pad@w^0,w,c
  6936  012A8A  5C1A               	subwf	pad@i^0,w,c
  6937  012A8C  501B               	movf	(pad@i+1)^0,w,c
  6938  012A8E  0A80               	xorlw	128
  6939  012A90  6E19               	movwf	??_pad^0,c
  6940  012A92  501D               	movf	(pad@w+1)^0,w,c
  6941  012A94  0A80               	xorlw	128
  6942  012A96  5819               	subwfb	??_pad^0,w,c
  6943  012A98  A0D8               	btfss	status,0,c
  6944  012A9A  EF51  F095         	goto	u2341
  6945  012A9E  EF53  F095         	goto	u2340
  6946  012AA2                     u2341:
  6947  012AA2  EF38  F095         	goto	l3427
  6948  012AA6                     u2340:
  6949  012AA6                     
  6950                           ;C:\Program Files\Microchip\xc8\v2.31\pic\sources\c99\common\doprnt.c: 90:     if (!(fla
      +                          gs & (1 << 0))) {
  6951  012AA6  0100               	movlb	0	; () banked
  6952  012AA8  B166               	btfsc	_flags& (0+255),0,b
  6953  012AAA  EF59  F095         	goto	u2351
  6954  012AAE  EF5B  F095         	goto	u2350
  6955  012AB2                     u2351:
  6956  012AB2  EF65  F095         	goto	l3435
  6957  012AB6                     u2350:
  6958  012AB6                     
  6959                           ; BSR set to: 0
  6960                           ;C:\Program Files\Microchip\xc8\v2.31\pic\sources\c99\common\doprnt.c: 91:         fputs
      +                          ((const char *)buf, fp);
  6961  012AB6  C015  F00C         	movff	pad@buf,fputs@s
  6962  012ABA  C016  F00D         	movff	pad@buf+1,fputs@s+1
  6963  012ABE  C013  F00E         	movff	pad@fp,fputs@fp
  6964  012AC2  C014  F00F         	movff	pad@fp+1,fputs@fp+1
  6965  012AC6  EC68  F097         	call	_fputs	;wreg free
  6966  012ACA                     l3435:
  6967                           
  6968                           ;C:\Program Files\Microchip\xc8\v2.31\pic\sources\c99\common\doprnt.c: 94:     return (i
      +                          nt)(strlen(buf) + (size_t)w);
  6969  012ACA  C015  F001         	movff	pad@buf,strlen@s
  6970  012ACE  C016  F002         	movff	pad@buf+1,strlen@s+1
  6971  012AD2  EC5E  F098         	call	_strlen	;wreg free
  6972  012AD6  501C               	movf	pad@w^0,w,c
  6973  012AD8  2401               	addwf	?_strlen^0,w,c
  6974  012ADA  6E13               	movwf	?_pad^0,c
  6975  012ADC  501D               	movf	(pad@w+1)^0,w,c
  6976  012ADE  2002               	addwfc	(?_strlen+1)^0,w,c
  6977  012AE0  6E14               	movwf	(?_pad+1)^0,c
  6978  012AE2  0012               	return		;funcret
  6979  012AE4                     __end_of_pad:
  6980                           	callstack 0
  6981                           
  6982 ;; *************** function _strlen *****************
  6983 ;; Defined at:
  6984 ;;		line 5 in file "C:\Program Files\Microchip\xc8\v2.31\pic\sources\c99\common\strlen.c"
  6985 ;; Parameters:    Size  Location     Type
  6986 ;;  s               2    0[COMRAM] PTR const unsigned char 
  6987 ;;		 -> dbuf(32), 
  6988 ;; Auto vars:     Size  Location     Type
  6989 ;;  a               2    2[COMRAM] PTR const unsigned char 
  6990 ;;		 -> dbuf(32), 
  6991 ;; Return value:  Size  Location     Type
  6992 ;;                  2    0[COMRAM] unsigned int 
  6993 ;; Registers used:
  6994 ;;		wreg, fsr2l, fsr2h, status,2, status,0
  6995 ;; Tracked objects:
  6996 ;;		On entry : 0/0
  6997 ;;		On exit  : 0/0
  6998 ;;		Unchanged: 0/0
  6999 ;; Data sizes:     COMRAM   BANK0   BANK1   BANK2   BANK3   BANK4   BANK5   BANK6   BANK7   BANK8   BANK9  BANK10  BANK1
      +1  BANK12  BANK13
  7000 ;;      Params:         2       0       0       0       0       0       0       0       0       0       0       0       
      +0       0       0
  7001 ;;      Locals:         2       0       0       0       0       0       0       0       0       0       0       0       
      +0       0       0
  7002 ;;      Temps:          0       0       0       0       0       0       0       0       0       0       0       0       
      +0       0       0
  7003 ;;      Totals:         4       0       0       0       0       0       0       0       0       0       0       0       
      +0       0       0
  7004 ;;Total ram usage:        4 bytes
  7005 ;; Hardware stack levels used:    1
  7006 ;; This function calls:
  7007 ;;		Nothing
  7008 ;; This function is called by:
  7009 ;;		_pad
  7010 ;; This function uses a non-reentrant model
  7011 ;;
  7012                           
  7013                           	psect	text30
  7014  0130BC                     __ptext30:
  7015                           	callstack 0
  7016  0130BC                     _strlen:
  7017                           	callstack 23
  7018  0130BC  C001  F003         	movff	strlen@s,strlen@a
  7019  0130C0  C002  F004         	movff	strlen@s+1,strlen@a+1
  7020  0130C4  EF66  F098         	goto	l3321
  7021  0130C8                     l3319:
  7022  0130C8  4A01               	infsnz	strlen@s^0,f,c
  7023  0130CA  2A02               	incf	(strlen@s+1)^0,f,c
  7024  0130CC                     l3321:
  7025  0130CC  C001  FFD9         	movff	strlen@s,fsr2l
  7026  0130D0  C002  FFDA         	movff	strlen@s+1,fsr2h
  7027  0130D4  50DF               	movf	indf2,w,c
  7028  0130D6  A4D8               	btfss	status,2,c
  7029  0130D8  EF70  F098         	goto	u2161
  7030  0130DC  EF72  F098         	goto	u2160
  7031  0130E0                     u2161:
  7032  0130E0  EF64  F098         	goto	l3319
  7033  0130E4                     u2160:
  7034  0130E4  5003               	movf	strlen@a^0,w,c
  7035  0130E6  5C01               	subwf	strlen@s^0,w,c
  7036  0130E8  6E01               	movwf	?_strlen^0,c
  7037  0130EA  5004               	movf	(strlen@a+1)^0,w,c
  7038  0130EC  5802               	subwfb	(strlen@s+1)^0,w,c
  7039  0130EE  6E02               	movwf	(?_strlen+1)^0,c
  7040  0130F0  0012               	return		;funcret
  7041  0130F2                     __end_of_strlen:
  7042                           	callstack 0
  7043                           
  7044 ;; *************** function _fputs *****************
  7045 ;; Defined at:
  7046 ;;		line 8 in file "C:\Program Files\Microchip\xc8\v2.31\pic\sources\c99\common\nf_fputs.c"
  7047 ;; Parameters:    Size  Location     Type
  7048 ;;  s               2   11[COMRAM] PTR const unsigned char 
  7049 ;;		 -> dbuf(32), 
  7050 ;;  fp              2   13[COMRAM] PTR struct _IO_FILE
  7051 ;;		 -> NULL(0), 
  7052 ;; Auto vars:     Size  Location     Type
  7053 ;;  i               2   16[COMRAM] int 
  7054 ;;  c               1   15[COMRAM] unsigned char 
  7055 ;; Return value:  Size  Location     Type
  7056 ;;                  2   11[COMRAM] int 
  7057 ;; Registers used:
  7058 ;;		wreg, fsr1l, fsr1h, fsr2l, fsr2h, status,2, status,0, cstack
  7059 ;; Tracked objects:
  7060 ;;		On entry : 0/0
  7061 ;;		On exit  : 0/0
  7062 ;;		Unchanged: 0/0
  7063 ;; Data sizes:     COMRAM   BANK0   BANK1   BANK2   BANK3   BANK4   BANK5   BANK6   BANK7   BANK8   BANK9  BANK10  BANK1
      +1  BANK12  BANK13
  7064 ;;      Params:         4       0       0       0       0       0       0       0       0       0       0       0       
      +0       0       0
  7065 ;;      Locals:         3       0       0       0       0       0       0       0       0       0       0       0       
      +0       0       0
  7066 ;;      Temps:          0       0       0       0       0       0       0       0       0       0       0       0       
      +0       0       0
  7067 ;;      Totals:         7       0       0       0       0       0       0       0       0       0       0       0       
      +0       0       0
  7068 ;;Total ram usage:        7 bytes
  7069 ;; Hardware stack levels used:    1
  7070 ;; Hardware stack levels required when called:    3
  7071 ;; This function calls:
  7072 ;;		_fputc
  7073 ;; This function is called by:
  7074 ;;		_pad
  7075 ;; This function uses a non-reentrant model
  7076 ;;
  7077                           
  7078                           	psect	text31
  7079  012ED0                     __ptext31:
  7080                           	callstack 0
  7081  012ED0                     _fputs:
  7082                           	callstack 20
  7083  012ED0  0E00               	movlw	0
  7084  012ED2  6E12               	movwf	(fputs@i+1)^0,c
  7085  012ED4  0E00               	movlw	0
  7086  012ED6  6E11               	movwf	fputs@i^0,c
  7087  012ED8  EF79  F097         	goto	l3315
  7088  012EDC                     l3311:
  7089  012EDC  C010  F003         	movff	fputs@c,fputc@c
  7090  012EE0  6A04               	clrf	(fputc@c+1)^0,c
  7091  012EE2  C00E  F005         	movff	fputs@fp,fputc@fp
  7092  012EE6  C00F  F006         	movff	fputs@fp+1,fputc@fp+1
  7093  012EEA  ECD0  F095         	call	_fputc	;wreg free
  7094  012EEE  4A11               	infsnz	fputs@i^0,f,c
  7095  012EF0  2A12               	incf	(fputs@i+1)^0,f,c
  7096  012EF2                     l3315:
  7097  012EF2  5011               	movf	fputs@i^0,w,c
  7098  012EF4  240C               	addwf	fputs@s^0,w,c
  7099  012EF6  6ED9               	movwf	fsr2l,c
  7100  012EF8  5012               	movf	(fputs@i+1)^0,w,c
  7101  012EFA  200D               	addwfc	(fputs@s+1)^0,w,c
  7102  012EFC  6EDA               	movwf	fsr2h,c
  7103  012EFE  50DF               	movf	indf2,w,c
  7104  012F00  6E10               	movwf	fputs@c^0,c
  7105  012F02  5010               	movf	fputs@c^0,w,c
  7106  012F04  A4D8               	btfss	status,2,c
  7107  012F06  EF87  F097         	goto	u2151
  7108  012F0A  EF89  F097         	goto	u2150
  7109  012F0E                     u2151:
  7110  012F0E  EF6E  F097         	goto	l3311
  7111  012F12                     u2150:
  7112  012F12  0012               	return		;funcret
  7113  012F14                     __end_of_fputs:
  7114                           	callstack 0
  7115                           
  7116 ;; *************** function _fputc *****************
  7117 ;; Defined at:
  7118 ;;		line 8 in file "C:\Program Files\Microchip\xc8\v2.31\pic\sources\c99\common\nf_fputc.c"
  7119 ;; Parameters:    Size  Location     Type
  7120 ;;  c               2    2[COMRAM] int 
  7121 ;;  fp              2    4[COMRAM] PTR struct _IO_FILE
  7122 ;;		 -> NULL(0), 
  7123 ;; Auto vars:     Size  Location     Type
  7124 ;;		None
  7125 ;; Return value:  Size  Location     Type
  7126 ;;                  2    2[COMRAM] int 
  7127 ;; Registers used:
  7128 ;;		wreg, fsr1l, fsr1h, fsr2l, fsr2h, status,2, status,0, cstack
  7129 ;; Tracked objects:
  7130 ;;		On entry : 0/0
  7131 ;;		On exit  : 0/0
  7132 ;;		Unchanged: 0/0
  7133 ;; Data sizes:     COMRAM   BANK0   BANK1   BANK2   BANK3   BANK4   BANK5   BANK6   BANK7   BANK8   BANK9  BANK10  BANK1
      +1  BANK12  BANK13
  7134 ;;      Params:         4       0       0       0       0       0       0       0       0       0       0       0       
      +0       0       0
  7135 ;;      Locals:         0       0       0       0       0       0       0       0       0       0       0       0       
      +0       0       0
  7136 ;;      Temps:          5       0       0       0       0       0       0       0       0       0       0       0       
      +0       0       0
  7137 ;;      Totals:         9       0       0       0       0       0       0       0       0       0       0       0       
      +0       0       0
  7138 ;;Total ram usage:        9 bytes
  7139 ;; Hardware stack levels used:    1
  7140 ;; Hardware stack levels required when called:    2
  7141 ;; This function calls:
  7142 ;;		_putch
  7143 ;; This function is called by:
  7144 ;;		_pad
  7145 ;;		_vfpfcnvrt
  7146 ;;		_fputs
  7147 ;; This function uses a non-reentrant model
  7148 ;;
  7149                           
  7150                           	psect	text32
  7151  012BA0                     __ptext32:
  7152                           	callstack 0
  7153  012BA0                     _fputc:
  7154                           	callstack 20
  7155  012BA0  5005               	movf	fputc@fp^0,w,c
  7156  012BA2  1006               	iorwf	(fputc@fp+1)^0,w,c
  7157  012BA4  B4D8               	btfsc	status,2,c
  7158  012BA6  EFD7  F095         	goto	u2111
  7159  012BAA  EFD9  F095         	goto	u2110
  7160  012BAE                     u2111:
  7161  012BAE  EFE2  F095         	goto	l3299
  7162  012BB2                     u2110:
  7163  012BB2  5005               	movf	fputc@fp^0,w,c
  7164  012BB4  1006               	iorwf	(fputc@fp+1)^0,w,c
  7165  012BB6  A4D8               	btfss	status,2,c
  7166  012BB8  EFE0  F095         	goto	u2121
  7167  012BBC  EFE2  F095         	goto	u2120
  7168  012BC0                     u2121:
  7169  012BC0  EFE7  F095         	goto	l3301
  7170  012BC4                     u2120:
  7171  012BC4                     l3299:
  7172  012BC4  5003               	movf	fputc@c^0,w,c
  7173  012BC6  EC60  F099         	call	_putch
  7174  012BCA  EF1A  F096         	goto	l1222
  7175  012BCE                     l3301:
  7176  012BCE  EE20 F004          	lfsr	2,4
  7177  012BD2  5005               	movf	fputc@fp^0,w,c
  7178  012BD4  26D9               	addwf	fsr2l,f,c
  7179  012BD6  5006               	movf	(fputc@fp+1)^0,w,c
  7180  012BD8  22DA               	addwfc	fsr2h,f,c
  7181  012BDA  50DE               	movf	postinc2,w,c
  7182  012BDC  10DE               	iorwf	postinc2,w,c
  7183  012BDE  B4D8               	btfsc	status,2,c
  7184  012BE0  EFF4  F095         	goto	u2131
  7185  012BE4  EFF6  F095         	goto	u2130
  7186  012BE8                     u2131:
  7187  012BE8  EF11  F096         	goto	l3305
  7188  012BEC                     u2130:
  7189  012BEC  EE20 F004          	lfsr	2,4
  7190  012BF0  5005               	movf	fputc@fp^0,w,c
  7191  012BF2  26D9               	addwf	fsr2l,f,c
  7192  012BF4  5006               	movf	(fputc@fp+1)^0,w,c
  7193  012BF6  22DA               	addwfc	fsr2h,f,c
  7194  012BF8  EE10 F002          	lfsr	1,2
  7195  012BFC  5005               	movf	fputc@fp^0,w,c
  7196  012BFE  26E1               	addwf	fsr1l,f,c
  7197  012C00  5006               	movf	(fputc@fp+1)^0,w,c
  7198  012C02  22E2               	addwfc	fsr1h,f,c
  7199  012C04  50DE               	movf	postinc2,w,c
  7200  012C06  5CE6               	subwf	postinc1,w,c
  7201  012C08  50E6               	movf	postinc1,w,c
  7202  012C0A  0A80               	xorlw	128
  7203  012C0C  6E0B               	movwf	(??_fputc+4)^0,c
  7204  012C0E  50DE               	movf	postinc2,w,c
  7205  012C10  0A80               	xorlw	128
  7206  012C12  580B               	subwfb	(??_fputc+4)^0,w,c
  7207  012C14  B0D8               	btfsc	status,0,c
  7208  012C16  EF0F  F096         	goto	u2141
  7209  012C1A  EF11  F096         	goto	u2140
  7210  012C1E                     u2141:
  7211  012C1E  EF1A  F096         	goto	l1222
  7212  012C22                     u2140:
  7213  012C22                     l3305:
  7214  012C22  EE20 F002          	lfsr	2,2
  7215  012C26  5005               	movf	fputc@fp^0,w,c
  7216  012C28  26D9               	addwf	fsr2l,f,c
  7217  012C2A  5006               	movf	(fputc@fp+1)^0,w,c
  7218  012C2C  22DA               	addwfc	fsr2h,f,c
  7219  012C2E  2ADE               	incf	postinc2,f,c
  7220  012C30  0E00               	movlw	0
  7221  012C32  22DD               	addwfc	postdec2,f,c
  7222  012C34                     l1222:
  7223  012C34  0012               	return		;funcret
  7224  012C36                     __end_of_fputc:
  7225                           	callstack 0
  7226                           
  7227 ;; *************** function _putch *****************
  7228 ;; Defined at:
  7229 ;;		line 40 in file "MAX17320.c"
  7230 ;; Parameters:    Size  Location     Type
  7231 ;;  data            1    wreg     unsigned char 
  7232 ;; Auto vars:     Size  Location     Type
  7233 ;;  data            1    1[COMRAM] unsigned char 
  7234 ;; Return value:  Size  Location     Type
  7235 ;;                  1    wreg      void 
  7236 ;; Registers used:
  7237 ;;		wreg, status,2, cstack
  7238 ;; Tracked objects:
  7239 ;;		On entry : 0/0
  7240 ;;		On exit  : 0/0
  7241 ;;		Unchanged: 0/0
  7242 ;; Data sizes:     COMRAM   BANK0   BANK1   BANK2   BANK3   BANK4   BANK5   BANK6   BANK7   BANK8   BANK9  BANK10  BANK1
      +1  BANK12  BANK13
  7243 ;;      Params:         0       0       0       0       0       0       0       0       0       0       0       0       
      +0       0       0
  7244 ;;      Locals:         1       0       0       0       0       0       0       0       0       0       0       0       
      +0       0       0
  7245 ;;      Temps:          0       0       0       0       0       0       0       0       0       0       0       0       
      +0       0       0
  7246 ;;      Totals:         1       0       0       0       0       0       0       0       0       0       0       0       
      +0       0       0
  7247 ;;Total ram usage:        1 bytes
  7248 ;; Hardware stack levels used:    1
  7249 ;; Hardware stack levels required when called:    1
  7250 ;; This function calls:
  7251 ;;		_SendCharUSB
  7252 ;; This function is called by:
  7253 ;;		_fputc
  7254 ;; This function uses a non-reentrant model
  7255 ;;
  7256                           
  7257                           	psect	text33
  7258  0132C0                     __ptext33:
  7259                           	callstack 0
  7260  0132C0                     _putch:
  7261                           	callstack 20
  7262                           
  7263                           ;incstack = 0
  7264                           ;putch@data stored from wreg
  7265  0132C0  6E02               	movwf	putch@data^0,c
  7266  0132C2                     
  7267                           ;MAX17320.c: 41:     SendCharUSB(data);
  7268  0132C2  5002               	movf	putch@data^0,w,c
  7269  0132C4  ECAB  F097         	call	_SendCharUSB
  7270  0132C8  0012               	return		;funcret
  7271  0132CA                     __end_of_putch:
  7272                           	callstack 0
  7273                           
  7274 ;; *************** function _SendCharUSB *****************
  7275 ;; Defined at:
  7276 ;;		line 157 in file "newmain.c"
  7277 ;; Parameters:    Size  Location     Type
  7278 ;;  d               1    wreg     unsigned char 
  7279 ;; Auto vars:     Size  Location     Type
  7280 ;;  d               1    0[COMRAM] unsigned char 
  7281 ;; Return value:  Size  Location     Type
  7282 ;;                  1    wreg      void 
  7283 ;; Registers used:
  7284 ;;		wreg
  7285 ;; Tracked objects:
  7286 ;;		On entry : 0/0
  7287 ;;		On exit  : 0/0
  7288 ;;		Unchanged: 0/0
  7289 ;; Data sizes:     COMRAM   BANK0   BANK1   BANK2   BANK3   BANK4   BANK5   BANK6   BANK7   BANK8   BANK9  BANK10  BANK1
      +1  BANK12  BANK13
  7290 ;;      Params:         0       0       0       0       0       0       0       0       0       0       0       0       
      +0       0       0
  7291 ;;      Locals:         1       0       0       0       0       0       0       0       0       0       0       0       
      +0       0       0
  7292 ;;      Temps:          0       0       0       0       0       0       0       0       0       0       0       0       
      +0       0       0
  7293 ;;      Totals:         1       0       0       0       0       0       0       0       0       0       0       0       
      +0       0       0
  7294 ;;Total ram usage:        1 bytes
  7295 ;; Hardware stack levels used:    1
  7296 ;; This function calls:
  7297 ;;		Nothing
  7298 ;; This function is called by:
  7299 ;;		_putch
  7300 ;;		_showText
  7301 ;; This function uses a non-reentrant model
  7302 ;;
  7303                           
  7304                           	psect	text34
  7305  012F56                     __ptext34:
  7306                           	callstack 0
  7307  012F56                     _SendCharUSB:
  7308                           	callstack 29
  7309                           
  7310                           ;incstack = 0
  7311                           ;SendCharUSB@d stored from wreg
  7312  012F56  6E01               	movwf	SendCharUSB@d^0,c
  7313  012F58                     l318:
  7314  012F58  010E               	movlb	14	; () banked
  7315  012F5A  A937               	btfss	55,4,b	;volatile
  7316  012F5C  EFB2  F097         	goto	u2071
  7317  012F60  EFB4  F097         	goto	u2070
  7318  012F64                     u2071:
  7319  012F64  EFAC  F097         	goto	l318
  7320  012F68                     u2070:
  7321  012F68                     
  7322                           ; BSR set to: 14
  7323                           ;newmain.c: 161:  if ((!RF6&&!!RF7&&!RF5))
  7324  012F68  BC8E               	btfsc	3982,6,c	;volatile
  7325  012F6A  EFB9  F097         	goto	u2081
  7326  012F6E  EFBB  F097         	goto	u2080
  7327  012F72                     u2081:
  7328  012F72  EFCB  F097         	goto	l322
  7329  012F76                     u2080:
  7330  012F76                     
  7331                           ; BSR set to: 14
  7332  012F76  AE8E               	btfss	3982,7,c	;volatile
  7333  012F78  EFC0  F097         	goto	u2091
  7334  012F7C  EFC2  F097         	goto	u2090
  7335  012F80                     u2091:
  7336  012F80  EFCB  F097         	goto	l322
  7337  012F84                     u2090:
  7338  012F84                     
  7339                           ; BSR set to: 14
  7340  012F84  BA8E               	btfsc	3982,5,c	;volatile
  7341  012F86  EFC7  F097         	goto	u2101
  7342  012F8A  EFC9  F097         	goto	u2100
  7343  012F8E                     u2101:
  7344  012F8E  EFCB  F097         	goto	l322
  7345  012F92                     u2100:
  7346  012F92                     
  7347                           ; BSR set to: 14
  7348                           ;newmain.c: 162:  {;newmain.c: 172:   TX5REG = d;
  7349  012F92  C001  FEDD         	movff	SendCharUSB@d,3805	;volatile
  7350  012F96                     l322:
  7351                           
  7352                           ; BSR set to: 14
  7353  012F96  0012               	return		;funcret
  7354  012F98                     __end_of_SendCharUSB:
  7355                           	callstack 0
  7356                           
  7357 ;; *************** function _abs *****************
  7358 ;; Defined at:
  7359 ;;		line 1 in file "C:\Program Files\Microchip\xc8\v2.31\pic\sources\c99\common\abs.c"
  7360 ;; Parameters:    Size  Location     Type
  7361 ;;  a               2   18[COMRAM] int 
  7362 ;; Auto vars:     Size  Location     Type
  7363 ;;		None
  7364 ;; Return value:  Size  Location     Type
  7365 ;;                  2   18[COMRAM] int 
  7366 ;; Registers used:
  7367 ;;		wreg, status,2, status,0
  7368 ;; Tracked objects:
  7369 ;;		On entry : 0/0
  7370 ;;		On exit  : 0/0
  7371 ;;		Unchanged: 0/0
  7372 ;; Data sizes:     COMRAM   BANK0   BANK1   BANK2   BANK3   BANK4   BANK5   BANK6   BANK7   BANK8   BANK9  BANK10  BANK1
      +1  BANK12  BANK13
  7373 ;;      Params:         2       0       0       0       0       0       0       0       0       0       0       0       
      +0       0       0
  7374 ;;      Locals:         0       0       0       0       0       0       0       0       0       0       0       0       
      +0       0       0
  7375 ;;      Temps:          2       0       0       0       0       0       0       0       0       0       0       0       
      +0       0       0
  7376 ;;      Totals:         4       0       0       0       0       0       0       0       0       0       0       0       
      +0       0       0
  7377 ;;Total ram usage:        4 bytes
  7378 ;; Hardware stack levels used:    1
  7379 ;; This function calls:
  7380 ;;		Nothing
  7381 ;; This function is called by:
  7382 ;;		_dtoa
  7383 ;; This function uses a non-reentrant model
  7384 ;;
  7385                           
  7386                           	psect	text35
  7387  012F98                     __ptext35:
  7388                           	callstack 0
  7389  012F98                     _abs:
  7390                           	callstack 24
  7391  012F98  BE14               	btfsc	(abs@a+1)^0,7,c
  7392  012F9A  EFD9  F097         	goto	u2360
  7393  012F9E  5014               	movf	(abs@a+1)^0,w,c
  7394  012FA0  E106               	bnz	u2361
  7395  012FA2  0413               	decf	abs@a^0,w,c
  7396  012FA4  B0D8               	btfsc	status,0,c
  7397  012FA6  EFD7  F097         	goto	u2361
  7398  012FAA  EFD9  F097         	goto	u2360
  7399  012FAE                     u2361:
  7400  012FAE  EFE7  F097         	goto	l1150
  7401  012FB2                     u2360:
  7402  012FB2  C013  F015         	movff	abs@a,??_abs
  7403  012FB6  C014  F016         	movff	abs@a+1,??_abs+1
  7404  012FBA  1E15               	comf	??_abs^0,f,c
  7405  012FBC  1E16               	comf	(??_abs+1)^0,f,c
  7406  012FBE  4A15               	infsnz	??_abs^0,f,c
  7407  012FC0  2A16               	incf	(??_abs+1)^0,f,c
  7408  012FC2  C015  F013         	movff	??_abs,?_abs
  7409  012FC6  C016  F014         	movff	??_abs+1,?_abs+1
  7410  012FCA  EFEB  F097         	goto	l1153
  7411  012FCE                     l1150:
  7412  012FCE  C013  F013         	movff	abs@a,?_abs
  7413  012FD2  C014  F014         	movff	abs@a+1,?_abs+1
  7414  012FD6                     l1153:
  7415  012FD6  0012               	return		;funcret
  7416  012FD8                     __end_of_abs:
  7417                           	callstack 0
  7418                           
  7419 ;; *************** function ___aomod *****************
  7420 ;; Defined at:
  7421 ;;		line 9 in file "C:\Program Files\Microchip\xc8\v2.31\pic\sources\c99\common\aomod.c"
  7422 ;; Parameters:    Size  Location     Type
  7423 ;;  dividend        8    0[COMRAM] long long 
  7424 ;;  divisor         8    8[COMRAM] long long 
  7425 ;; Auto vars:     Size  Location     Type
  7426 ;;  sign            1   17[COMRAM] unsigned char 
  7427 ;;  counter         1   16[COMRAM] unsigned char 
  7428 ;; Return value:  Size  Location     Type
  7429 ;;                  8    0[COMRAM] long long 
  7430 ;; Registers used:
  7431 ;;		wreg, status,2, status,0
  7432 ;; Tracked objects:
  7433 ;;		On entry : 0/0
  7434 ;;		On exit  : 0/0
  7435 ;;		Unchanged: 0/0
  7436 ;; Data sizes:     COMRAM   BANK0   BANK1   BANK2   BANK3   BANK4   BANK5   BANK6   BANK7   BANK8   BANK9  BANK10  BANK1
      +1  BANK12  BANK13
  7437 ;;      Params:        16       0       0       0       0       0       0       0       0       0       0       0       
      +0       0       0
  7438 ;;      Locals:         2       0       0       0       0       0       0       0       0       0       0       0       
      +0       0       0
  7439 ;;      Temps:          0       0       0       0       0       0       0       0       0       0       0       0       
      +0       0       0
  7440 ;;      Totals:        18       0       0       0       0       0       0       0       0       0       0       0       
      +0       0       0
  7441 ;;Total ram usage:       18 bytes
  7442 ;; Hardware stack levels used:    1
  7443 ;; This function calls:
  7444 ;;		Nothing
  7445 ;; This function is called by:
  7446 ;;		_dtoa
  7447 ;; This function uses a non-reentrant model
  7448 ;;
  7449                           
  7450                           	psect	text36
  7451  012576                     __ptext36:
  7452                           	callstack 0
  7453  012576                     ___aomod:
  7454                           	callstack 24
  7455  012576  0E00               	movlw	0
  7456  012578  6E12               	movwf	___aomod@sign^0,c
  7457  01257A  BE08               	btfsc	(___aomod@dividend+7)^0,7,c
  7458  01257C  EFC4  F092         	goto	u2260
  7459  012580  EFC2  F092         	goto	u2261
  7460  012584                     u2261:
  7461  012584  EFD6  F092         	goto	l3389
  7462  012588                     u2260:
  7463  012588  1E08               	comf	(___aomod@dividend+7)^0,f,c
  7464  01258A  1E07               	comf	(___aomod@dividend+6)^0,f,c
  7465  01258C  1E06               	comf	(___aomod@dividend+5)^0,f,c
  7466  01258E  1E05               	comf	(___aomod@dividend+4)^0,f,c
  7467  012590  1E04               	comf	(___aomod@dividend+3)^0,f,c
  7468  012592  1E03               	comf	(___aomod@dividend+2)^0,f,c
  7469  012594  1E02               	comf	(___aomod@dividend+1)^0,f,c
  7470  012596  6C01               	negf	___aomod@dividend^0,c
  7471  012598  0E00               	movlw	0
  7472  01259A  2202               	addwfc	(___aomod@dividend+1)^0,f,c
  7473  01259C  2203               	addwfc	(___aomod@dividend+2)^0,f,c
  7474  01259E  2204               	addwfc	(___aomod@dividend+3)^0,f,c
  7475  0125A0  2205               	addwfc	(___aomod@dividend+4)^0,f,c
  7476  0125A2  2206               	addwfc	(___aomod@dividend+5)^0,f,c
  7477  0125A4  2207               	addwfc	(___aomod@dividend+6)^0,f,c
  7478  0125A6  2208               	addwfc	(___aomod@dividend+7)^0,f,c
  7479  0125A8  0E01               	movlw	1
  7480  0125AA  6E12               	movwf	___aomod@sign^0,c
  7481  0125AC                     l3389:
  7482  0125AC  BE10               	btfsc	(___aomod@divisor+7)^0,7,c
  7483  0125AE  EFDD  F092         	goto	u2270
  7484  0125B2  EFDB  F092         	goto	u2271
  7485  0125B6                     u2271:
  7486  0125B6  EFED  F092         	goto	l3393
  7487  0125BA                     u2270:
  7488  0125BA  1E10               	comf	(___aomod@divisor+7)^0,f,c
  7489  0125BC  1E0F               	comf	(___aomod@divisor+6)^0,f,c
  7490  0125BE  1E0E               	comf	(___aomod@divisor+5)^0,f,c
  7491  0125C0  1E0D               	comf	(___aomod@divisor+4)^0,f,c
  7492  0125C2  1E0C               	comf	(___aomod@divisor+3)^0,f,c
  7493  0125C4  1E0B               	comf	(___aomod@divisor+2)^0,f,c
  7494  0125C6  1E0A               	comf	(___aomod@divisor+1)^0,f,c
  7495  0125C8  6C09               	negf	___aomod@divisor^0,c
  7496  0125CA  0E00               	movlw	0
  7497  0125CC  220A               	addwfc	(___aomod@divisor+1)^0,f,c
  7498  0125CE  220B               	addwfc	(___aomod@divisor+2)^0,f,c
  7499  0125D0  220C               	addwfc	(___aomod@divisor+3)^0,f,c
  7500  0125D2  220D               	addwfc	(___aomod@divisor+4)^0,f,c
  7501  0125D4  220E               	addwfc	(___aomod@divisor+5)^0,f,c
  7502  0125D6  220F               	addwfc	(___aomod@divisor+6)^0,f,c
  7503  0125D8  2210               	addwfc	(___aomod@divisor+7)^0,f,c
  7504  0125DA                     l3393:
  7505  0125DA  5009               	movf	___aomod@divisor^0,w,c
  7506  0125DC  100A               	iorwf	(___aomod@divisor+1)^0,w,c
  7507  0125DE  100B               	iorwf	(___aomod@divisor+2)^0,w,c
  7508  0125E0  100C               	iorwf	(___aomod@divisor+3)^0,w,c
  7509  0125E2  100D               	iorwf	(___aomod@divisor+4)^0,w,c
  7510  0125E4  100E               	iorwf	(___aomod@divisor+5)^0,w,c
  7511  0125E6  100F               	iorwf	(___aomod@divisor+6)^0,w,c
  7512  0125E8  1010               	iorwf	(___aomod@divisor+7)^0,w,c
  7513  0125EA  B4D8               	btfsc	status,2,c
  7514  0125EC  EFFA  F092         	goto	u2281
  7515  0125F0  EFFC  F092         	goto	u2280
  7516  0125F4                     u2281:
  7517  0125F4  EF44  F093         	goto	l3409
  7518  0125F8                     u2280:
  7519  0125F8  0E01               	movlw	1
  7520  0125FA  6E11               	movwf	___aomod@counter^0,c
  7521  0125FC  EF0A  F093         	goto	l3399
  7522  012600                     l3397:
  7523  012600  90D8               	bcf	status,0,c
  7524  012602  3609               	rlcf	___aomod@divisor^0,f,c
  7525  012604  360A               	rlcf	(___aomod@divisor+1)^0,f,c
  7526  012606  360B               	rlcf	(___aomod@divisor+2)^0,f,c
  7527  012608  360C               	rlcf	(___aomod@divisor+3)^0,f,c
  7528  01260A  360D               	rlcf	(___aomod@divisor+4)^0,f,c
  7529  01260C  360E               	rlcf	(___aomod@divisor+5)^0,f,c
  7530  01260E  360F               	rlcf	(___aomod@divisor+6)^0,f,c
  7531  012610  3610               	rlcf	(___aomod@divisor+7)^0,f,c
  7532  012612  2A11               	incf	___aomod@counter^0,f,c
  7533  012614                     l3399:
  7534  012614  AE10               	btfss	(___aomod@divisor+7)^0,7,c
  7535  012616  EF0F  F093         	goto	u2291
  7536  01261A  EF11  F093         	goto	u2290
  7537  01261E                     u2291:
  7538  01261E  EF00  F093         	goto	l3397
  7539  012622                     u2290:
  7540  012622                     l3401:
  7541  012622  5009               	movf	___aomod@divisor^0,w,c
  7542  012624  5C01               	subwf	___aomod@dividend^0,w,c
  7543  012626  500A               	movf	(___aomod@divisor+1)^0,w,c
  7544  012628  5802               	subwfb	(___aomod@dividend+1)^0,w,c
  7545  01262A  500B               	movf	(___aomod@divisor+2)^0,w,c
  7546  01262C  5803               	subwfb	(___aomod@dividend+2)^0,w,c
  7547  01262E  500C               	movf	(___aomod@divisor+3)^0,w,c
  7548  012630  5804               	subwfb	(___aomod@dividend+3)^0,w,c
  7549  012632  500D               	movf	(___aomod@divisor+4)^0,w,c
  7550  012634  5805               	subwfb	(___aomod@dividend+4)^0,w,c
  7551  012636  500E               	movf	(___aomod@divisor+5)^0,w,c
  7552  012638  5806               	subwfb	(___aomod@dividend+5)^0,w,c
  7553  01263A  500F               	movf	(___aomod@divisor+6)^0,w,c
  7554  01263C  5807               	subwfb	(___aomod@dividend+6)^0,w,c
  7555  01263E  5010               	movf	(___aomod@divisor+7)^0,w,c
  7556  012640  5808               	subwfb	(___aomod@dividend+7)^0,w,c
  7557  012642  A0D8               	btfss	status,0,c
  7558  012644  EF26  F093         	goto	u2301
  7559  012648  EF28  F093         	goto	u2300
  7560  01264C                     u2301:
  7561  01264C  EF38  F093         	goto	l3405
  7562  012650                     u2300:
  7563  012650  5009               	movf	___aomod@divisor^0,w,c
  7564  012652  5E01               	subwf	___aomod@dividend^0,f,c
  7565  012654  500A               	movf	(___aomod@divisor+1)^0,w,c
  7566  012656  5A02               	subwfb	(___aomod@dividend+1)^0,f,c
  7567  012658  500B               	movf	(___aomod@divisor+2)^0,w,c
  7568  01265A  5A03               	subwfb	(___aomod@dividend+2)^0,f,c
  7569  01265C  500C               	movf	(___aomod@divisor+3)^0,w,c
  7570  01265E  5A04               	subwfb	(___aomod@dividend+3)^0,f,c
  7571  012660  500D               	movf	(___aomod@divisor+4)^0,w,c
  7572  012662  5A05               	subwfb	(___aomod@dividend+4)^0,f,c
  7573  012664  500E               	movf	(___aomod@divisor+5)^0,w,c
  7574  012666  5A06               	subwfb	(___aomod@dividend+5)^0,f,c
  7575  012668  500F               	movf	(___aomod@divisor+6)^0,w,c
  7576  01266A  5A07               	subwfb	(___aomod@dividend+6)^0,f,c
  7577  01266C  5010               	movf	(___aomod@divisor+7)^0,w,c
  7578  01266E  5A08               	subwfb	(___aomod@dividend+7)^0,f,c
  7579  012670                     l3405:
  7580  012670  90D8               	bcf	status,0,c
  7581  012672  3210               	rrcf	(___aomod@divisor+7)^0,f,c
  7582  012674  320F               	rrcf	(___aomod@divisor+6)^0,f,c
  7583  012676  320E               	rrcf	(___aomod@divisor+5)^0,f,c
  7584  012678  320D               	rrcf	(___aomod@divisor+4)^0,f,c
  7585  01267A  320C               	rrcf	(___aomod@divisor+3)^0,f,c
  7586  01267C  320B               	rrcf	(___aomod@divisor+2)^0,f,c
  7587  01267E  320A               	rrcf	(___aomod@divisor+1)^0,f,c
  7588  012680  3209               	rrcf	___aomod@divisor^0,f,c
  7589  012682  2E11               	decfsz	___aomod@counter^0,f,c
  7590  012684  EF11  F093         	goto	l3401
  7591  012688                     l3409:
  7592  012688  5012               	movf	___aomod@sign^0,w,c
  7593  01268A  B4D8               	btfsc	status,2,c
  7594  01268C  EF4A  F093         	goto	u2311
  7595  012690  EF4C  F093         	goto	u2310
  7596  012694                     u2311:
  7597  012694  EF5C  F093         	goto	l3413
  7598  012698                     u2310:
  7599  012698  1E08               	comf	(___aomod@dividend+7)^0,f,c
  7600  01269A  1E07               	comf	(___aomod@dividend+6)^0,f,c
  7601  01269C  1E06               	comf	(___aomod@dividend+5)^0,f,c
  7602  01269E  1E05               	comf	(___aomod@dividend+4)^0,f,c
  7603  0126A0  1E04               	comf	(___aomod@dividend+3)^0,f,c
  7604  0126A2  1E03               	comf	(___aomod@dividend+2)^0,f,c
  7605  0126A4  1E02               	comf	(___aomod@dividend+1)^0,f,c
  7606  0126A6  6C01               	negf	___aomod@dividend^0,c
  7607  0126A8  0E00               	movlw	0
  7608  0126AA  2202               	addwfc	(___aomod@dividend+1)^0,f,c
  7609  0126AC  2203               	addwfc	(___aomod@dividend+2)^0,f,c
  7610  0126AE  2204               	addwfc	(___aomod@dividend+3)^0,f,c
  7611  0126B0  2205               	addwfc	(___aomod@dividend+4)^0,f,c
  7612  0126B2  2206               	addwfc	(___aomod@dividend+5)^0,f,c
  7613  0126B4  2207               	addwfc	(___aomod@dividend+6)^0,f,c
  7614  0126B6  2208               	addwfc	(___aomod@dividend+7)^0,f,c
  7615  0126B8                     l3413:
  7616  0126B8  C001  F001         	movff	___aomod@dividend,?___aomod
  7617  0126BC  C002  F002         	movff	___aomod@dividend+1,?___aomod+1
  7618  0126C0  C003  F003         	movff	___aomod@dividend+2,?___aomod+2
  7619  0126C4  C004  F004         	movff	___aomod@dividend+3,?___aomod+3
  7620  0126C8  C005  F005         	movff	___aomod@dividend+4,?___aomod+4
  7621  0126CC  C006  F006         	movff	___aomod@dividend+5,?___aomod+5
  7622  0126D0  C007  F007         	movff	___aomod@dividend+6,?___aomod+6
  7623  0126D4  C008  F008         	movff	___aomod@dividend+7,?___aomod+7
  7624  0126D8  0012               	return		;funcret
  7625  0126DA                     __end_of___aomod:
  7626                           	callstack 0
  7627                           
  7628 ;; *************** function ___aodiv *****************
  7629 ;; Defined at:
  7630 ;;		line 9 in file "C:\Program Files\Microchip\xc8\v2.31\pic\sources\c99\common\aodiv.c"
  7631 ;; Parameters:    Size  Location     Type
  7632 ;;  dividend        8    0[COMRAM] long long 
  7633 ;;  divisor         8    8[COMRAM] long long 
  7634 ;; Auto vars:     Size  Location     Type
  7635 ;;  quotient        8   18[COMRAM] long long 
  7636 ;;  sign            1   17[COMRAM] unsigned char 
  7637 ;;  counter         1   16[COMRAM] unsigned char 
  7638 ;; Return value:  Size  Location     Type
  7639 ;;                  8    0[COMRAM] long long 
  7640 ;; Registers used:
  7641 ;;		wreg, fsr2l, fsr2h, status,2, status,0
  7642 ;; Tracked objects:
  7643 ;;		On entry : 0/0
  7644 ;;		On exit  : 0/0
  7645 ;;		Unchanged: 0/0
  7646 ;; Data sizes:     COMRAM   BANK0   BANK1   BANK2   BANK3   BANK4   BANK5   BANK6   BANK7   BANK8   BANK9  BANK10  BANK1
      +1  BANK12  BANK13
  7647 ;;      Params:        16       0       0       0       0       0       0       0       0       0       0       0       
      +0       0       0
  7648 ;;      Locals:        10       0       0       0       0       0       0       0       0       0       0       0       
      +0       0       0
  7649 ;;      Temps:          0       0       0       0       0       0       0       0       0       0       0       0       
      +0       0       0
  7650 ;;      Totals:        26       0       0       0       0       0       0       0       0       0       0       0       
      +0       0       0
  7651 ;;Total ram usage:       26 bytes
  7652 ;; Hardware stack levels used:    1
  7653 ;; This function calls:
  7654 ;;		Nothing
  7655 ;; This function is called by:
  7656 ;;		_dtoa
  7657 ;; This function uses a non-reentrant model
  7658 ;;
  7659                           
  7660                           	psect	text37
  7661  0123EE                     __ptext37:
  7662                           	callstack 0
  7663  0123EE                     ___aodiv:
  7664                           	callstack 24
  7665  0123EE  0E00               	movlw	0
  7666  0123F0  6E12               	movwf	___aodiv@sign^0,c
  7667  0123F2  BE10               	btfsc	(___aodiv@divisor+7)^0,7,c
  7668  0123F4  EF00  F092         	goto	u2190
  7669  0123F8  EFFE  F091         	goto	u2191
  7670  0123FC                     u2191:
  7671  0123FC  EF12  F092         	goto	l3345
  7672  012400                     u2190:
  7673  012400  1E10               	comf	(___aodiv@divisor+7)^0,f,c
  7674  012402  1E0F               	comf	(___aodiv@divisor+6)^0,f,c
  7675  012404  1E0E               	comf	(___aodiv@divisor+5)^0,f,c
  7676  012406  1E0D               	comf	(___aodiv@divisor+4)^0,f,c
  7677  012408  1E0C               	comf	(___aodiv@divisor+3)^0,f,c
  7678  01240A  1E0B               	comf	(___aodiv@divisor+2)^0,f,c
  7679  01240C  1E0A               	comf	(___aodiv@divisor+1)^0,f,c
  7680  01240E  6C09               	negf	___aodiv@divisor^0,c
  7681  012410  0E00               	movlw	0
  7682  012412  220A               	addwfc	(___aodiv@divisor+1)^0,f,c
  7683  012414  220B               	addwfc	(___aodiv@divisor+2)^0,f,c
  7684  012416  220C               	addwfc	(___aodiv@divisor+3)^0,f,c
  7685  012418  220D               	addwfc	(___aodiv@divisor+4)^0,f,c
  7686  01241A  220E               	addwfc	(___aodiv@divisor+5)^0,f,c
  7687  01241C  220F               	addwfc	(___aodiv@divisor+6)^0,f,c
  7688  01241E  2210               	addwfc	(___aodiv@divisor+7)^0,f,c
  7689  012420  0E01               	movlw	1
  7690  012422  6E12               	movwf	___aodiv@sign^0,c
  7691  012424                     l3345:
  7692  012424  BE08               	btfsc	(___aodiv@dividend+7)^0,7,c
  7693  012426  EF19  F092         	goto	u2200
  7694  01242A  EF17  F092         	goto	u2201
  7695  01242E                     u2201:
  7696  01242E  EF2B  F092         	goto	l3351
  7697  012432                     u2200:
  7698  012432  1E08               	comf	(___aodiv@dividend+7)^0,f,c
  7699  012434  1E07               	comf	(___aodiv@dividend+6)^0,f,c
  7700  012436  1E06               	comf	(___aodiv@dividend+5)^0,f,c
  7701  012438  1E05               	comf	(___aodiv@dividend+4)^0,f,c
  7702  01243A  1E04               	comf	(___aodiv@dividend+3)^0,f,c
  7703  01243C  1E03               	comf	(___aodiv@dividend+2)^0,f,c
  7704  01243E  1E02               	comf	(___aodiv@dividend+1)^0,f,c
  7705  012440  6C01               	negf	___aodiv@dividend^0,c
  7706  012442  0E00               	movlw	0
  7707  012444  2202               	addwfc	(___aodiv@dividend+1)^0,f,c
  7708  012446  2203               	addwfc	(___aodiv@dividend+2)^0,f,c
  7709  012448  2204               	addwfc	(___aodiv@dividend+3)^0,f,c
  7710  01244A  2205               	addwfc	(___aodiv@dividend+4)^0,f,c
  7711  01244C  2206               	addwfc	(___aodiv@dividend+5)^0,f,c
  7712  01244E  2207               	addwfc	(___aodiv@dividend+6)^0,f,c
  7713  012450  2208               	addwfc	(___aodiv@dividend+7)^0,f,c
  7714  012452  0E01               	movlw	1
  7715  012454  1A12               	xorwf	___aodiv@sign^0,f,c
  7716  012456                     l3351:
  7717  012456  EE20  F013         	lfsr	2,___aodiv@quotient
  7718  01245A  0E07               	movlw	7
  7719  01245C                     u2211:
  7720  01245C  6ADE               	clrf	postinc2,c
  7721  01245E  06E8               	decf	wreg,f,c
  7722  012460  E2FD               	bc	u2211
  7723  012462  5009               	movf	___aodiv@divisor^0,w,c
  7724  012464  100A               	iorwf	(___aodiv@divisor+1)^0,w,c
  7725  012466  100B               	iorwf	(___aodiv@divisor+2)^0,w,c
  7726  012468  100C               	iorwf	(___aodiv@divisor+3)^0,w,c
  7727  01246A  100D               	iorwf	(___aodiv@divisor+4)^0,w,c
  7728  01246C  100E               	iorwf	(___aodiv@divisor+5)^0,w,c
  7729  01246E  100F               	iorwf	(___aodiv@divisor+6)^0,w,c
  7730  012470  1010               	iorwf	(___aodiv@divisor+7)^0,w,c
  7731  012472  B4D8               	btfsc	status,2,c
  7732  012474  EF3E  F092         	goto	u2221
  7733  012478  EF40  F092         	goto	u2220
  7734  01247C                     u2221:
  7735  01247C  EF92  F092         	goto	l3373
  7736  012480                     u2220:
  7737  012480  0E01               	movlw	1
  7738  012482  6E11               	movwf	___aodiv@counter^0,c
  7739  012484  EF4E  F092         	goto	l3359
  7740  012488                     l3357:
  7741  012488  90D8               	bcf	status,0,c
  7742  01248A  3609               	rlcf	___aodiv@divisor^0,f,c
  7743  01248C  360A               	rlcf	(___aodiv@divisor+1)^0,f,c
  7744  01248E  360B               	rlcf	(___aodiv@divisor+2)^0,f,c
  7745  012490  360C               	rlcf	(___aodiv@divisor+3)^0,f,c
  7746  012492  360D               	rlcf	(___aodiv@divisor+4)^0,f,c
  7747  012494  360E               	rlcf	(___aodiv@divisor+5)^0,f,c
  7748  012496  360F               	rlcf	(___aodiv@divisor+6)^0,f,c
  7749  012498  3610               	rlcf	(___aodiv@divisor+7)^0,f,c
  7750  01249A  2A11               	incf	___aodiv@counter^0,f,c
  7751  01249C                     l3359:
  7752  01249C  AE10               	btfss	(___aodiv@divisor+7)^0,7,c
  7753  01249E  EF53  F092         	goto	u2231
  7754  0124A2  EF55  F092         	goto	u2230
  7755  0124A6                     u2231:
  7756  0124A6  EF44  F092         	goto	l3357
  7757  0124AA                     u2230:
  7758  0124AA                     l3361:
  7759  0124AA  90D8               	bcf	status,0,c
  7760  0124AC  3613               	rlcf	___aodiv@quotient^0,f,c
  7761  0124AE  3614               	rlcf	(___aodiv@quotient+1)^0,f,c
  7762  0124B0  3615               	rlcf	(___aodiv@quotient+2)^0,f,c
  7763  0124B2  3616               	rlcf	(___aodiv@quotient+3)^0,f,c
  7764  0124B4  3617               	rlcf	(___aodiv@quotient+4)^0,f,c
  7765  0124B6  3618               	rlcf	(___aodiv@quotient+5)^0,f,c
  7766  0124B8  3619               	rlcf	(___aodiv@quotient+6)^0,f,c
  7767  0124BA  361A               	rlcf	(___aodiv@quotient+7)^0,f,c
  7768  0124BC  5009               	movf	___aodiv@divisor^0,w,c
  7769  0124BE  5C01               	subwf	___aodiv@dividend^0,w,c
  7770  0124C0  500A               	movf	(___aodiv@divisor+1)^0,w,c
  7771  0124C2  5802               	subwfb	(___aodiv@dividend+1)^0,w,c
  7772  0124C4  500B               	movf	(___aodiv@divisor+2)^0,w,c
  7773  0124C6  5803               	subwfb	(___aodiv@dividend+2)^0,w,c
  7774  0124C8  500C               	movf	(___aodiv@divisor+3)^0,w,c
  7775  0124CA  5804               	subwfb	(___aodiv@dividend+3)^0,w,c
  7776  0124CC  500D               	movf	(___aodiv@divisor+4)^0,w,c
  7777  0124CE  5805               	subwfb	(___aodiv@dividend+4)^0,w,c
  7778  0124D0  500E               	movf	(___aodiv@divisor+5)^0,w,c
  7779  0124D2  5806               	subwfb	(___aodiv@dividend+5)^0,w,c
  7780  0124D4  500F               	movf	(___aodiv@divisor+6)^0,w,c
  7781  0124D6  5807               	subwfb	(___aodiv@dividend+6)^0,w,c
  7782  0124D8  5010               	movf	(___aodiv@divisor+7)^0,w,c
  7783  0124DA  5808               	subwfb	(___aodiv@dividend+7)^0,w,c
  7784  0124DC  A0D8               	btfss	status,0,c
  7785  0124DE  EF73  F092         	goto	u2241
  7786  0124E2  EF75  F092         	goto	u2240
  7787  0124E6                     u2241:
  7788  0124E6  EF86  F092         	goto	l3369
  7789  0124EA                     u2240:
  7790  0124EA  5009               	movf	___aodiv@divisor^0,w,c
  7791  0124EC  5E01               	subwf	___aodiv@dividend^0,f,c
  7792  0124EE  500A               	movf	(___aodiv@divisor+1)^0,w,c
  7793  0124F0  5A02               	subwfb	(___aodiv@dividend+1)^0,f,c
  7794  0124F2  500B               	movf	(___aodiv@divisor+2)^0,w,c
  7795  0124F4  5A03               	subwfb	(___aodiv@dividend+2)^0,f,c
  7796  0124F6  500C               	movf	(___aodiv@divisor+3)^0,w,c
  7797  0124F8  5A04               	subwfb	(___aodiv@dividend+3)^0,f,c
  7798  0124FA  500D               	movf	(___aodiv@divisor+4)^0,w,c
  7799  0124FC  5A05               	subwfb	(___aodiv@dividend+4)^0,f,c
  7800  0124FE  500E               	movf	(___aodiv@divisor+5)^0,w,c
  7801  012500  5A06               	subwfb	(___aodiv@dividend+5)^0,f,c
  7802  012502  500F               	movf	(___aodiv@divisor+6)^0,w,c
  7803  012504  5A07               	subwfb	(___aodiv@dividend+6)^0,f,c
  7804  012506  5010               	movf	(___aodiv@divisor+7)^0,w,c
  7805  012508  5A08               	subwfb	(___aodiv@dividend+7)^0,f,c
  7806  01250A  8013               	bsf	___aodiv@quotient^0,0,c
  7807  01250C                     l3369:
  7808  01250C  90D8               	bcf	status,0,c
  7809  01250E  3210               	rrcf	(___aodiv@divisor+7)^0,f,c
  7810  012510  320F               	rrcf	(___aodiv@divisor+6)^0,f,c
  7811  012512  320E               	rrcf	(___aodiv@divisor+5)^0,f,c
  7812  012514  320D               	rrcf	(___aodiv@divisor+4)^0,f,c
  7813  012516  320C               	rrcf	(___aodiv@divisor+3)^0,f,c
  7814  012518  320B               	rrcf	(___aodiv@divisor+2)^0,f,c
  7815  01251A  320A               	rrcf	(___aodiv@divisor+1)^0,f,c
  7816  01251C  3209               	rrcf	___aodiv@divisor^0,f,c
  7817  01251E  2E11               	decfsz	___aodiv@counter^0,f,c
  7818  012520  EF55  F092         	goto	l3361
  7819  012524                     l3373:
  7820  012524  5012               	movf	___aodiv@sign^0,w,c
  7821  012526  B4D8               	btfsc	status,2,c
  7822  012528  EF98  F092         	goto	u2251
  7823  01252C  EF9A  F092         	goto	u2250
  7824  012530                     u2251:
  7825  012530  EFAA  F092         	goto	l3377
  7826  012534                     u2250:
  7827  012534  1E1A               	comf	(___aodiv@quotient+7)^0,f,c
  7828  012536  1E19               	comf	(___aodiv@quotient+6)^0,f,c
  7829  012538  1E18               	comf	(___aodiv@quotient+5)^0,f,c
  7830  01253A  1E17               	comf	(___aodiv@quotient+4)^0,f,c
  7831  01253C  1E16               	comf	(___aodiv@quotient+3)^0,f,c
  7832  01253E  1E15               	comf	(___aodiv@quotient+2)^0,f,c
  7833  012540  1E14               	comf	(___aodiv@quotient+1)^0,f,c
  7834  012542  6C13               	negf	___aodiv@quotient^0,c
  7835  012544  0E00               	movlw	0
  7836  012546  2214               	addwfc	(___aodiv@quotient+1)^0,f,c
  7837  012548  2215               	addwfc	(___aodiv@quotient+2)^0,f,c
  7838  01254A  2216               	addwfc	(___aodiv@quotient+3)^0,f,c
  7839  01254C  2217               	addwfc	(___aodiv@quotient+4)^0,f,c
  7840  01254E  2218               	addwfc	(___aodiv@quotient+5)^0,f,c
  7841  012550  2219               	addwfc	(___aodiv@quotient+6)^0,f,c
  7842  012552  221A               	addwfc	(___aodiv@quotient+7)^0,f,c
  7843  012554                     l3377:
  7844  012554  C013  F001         	movff	___aodiv@quotient,?___aodiv
  7845  012558  C014  F002         	movff	___aodiv@quotient+1,?___aodiv+1
  7846  01255C  C015  F003         	movff	___aodiv@quotient+2,?___aodiv+2
  7847  012560  C016  F004         	movff	___aodiv@quotient+3,?___aodiv+3
  7848  012564  C017  F005         	movff	___aodiv@quotient+4,?___aodiv+4
  7849  012568  C018  F006         	movff	___aodiv@quotient+5,?___aodiv+5
  7850  01256C  C019  F007         	movff	___aodiv@quotient+6,?___aodiv+6
  7851  012570  C01A  F008         	movff	___aodiv@quotient+7,?___aodiv+7
  7852  012574  0012               	return		;funcret
  7853  012576                     __end_of___aodiv:
  7854                           	callstack 0
  7855                           
  7856 ;; *************** function _atoi *****************
  7857 ;; Defined at:
  7858 ;;		line 4 in file "C:\Program Files\Microchip\xc8\v2.31\pic\sources\c99\common\atoi.c"
  7859 ;; Parameters:    Size  Location     Type
  7860 ;;  s               2    7[COMRAM] PTR const unsigned char 
  7861 ;;		 -> STR_51(30), STR_50(30), STR_49(22), STR_48(22), 
  7862 ;;		 -> STR_47(22), STR_46(11), STR_45(18), STR_44(18), 
  7863 ;;		 -> STR_43(18), STR_42(18), STR_41(18), STR_40(18), 
  7864 ;;		 -> STR_39(18), STR_38(18), STR_37(18), STR_36(18), 
  7865 ;;		 -> STR_35(18), STR_34(18), STR_33(18), STR_32(18), 
  7866 ;;		 -> STR_31(18), STR_30(28), STR_29(28), STR_28(28), 
  7867 ;;		 -> STR_27(18), STR_26(6), STR_25(17), STR_24(17), 
  7868 ;;		 -> STR_23(26), STR_22(26), STR_21(26), STR_20(28), 
  7869 ;;		 -> STR_19(26), STR_18(26), STR_17(26), STR_16(26), 
  7870 ;;		 -> STR_15(26), STR_14(26), STR_13(26), STR_12(26), 
  7871 ;;		 -> STR_11(27), STR_10(27), STR_9(17), STR_8(17), 
  7872 ;;		 -> STR_7(17), STR_6(17), STR_5(17), STR_4(17), 
  7873 ;;		 -> STR_3(17), STR_2(6), STR_1(6), 
  7874 ;; Auto vars:     Size  Location     Type
  7875 ;;  n               2   20[COMRAM] int 
  7876 ;;  neg             2   13[COMRAM] int 
  7877 ;; Return value:  Size  Location     Type
  7878 ;;                  2    7[COMRAM] int 
  7879 ;; Registers used:
  7880 ;;		wreg, status,2, status,0, tblptrl, tblptrh, tblptru, prodl, prodh, cstack
  7881 ;; Tracked objects:
  7882 ;;		On entry : 0/0
  7883 ;;		On exit  : 0/0
  7884 ;;		Unchanged: 0/0
  7885 ;; Data sizes:     COMRAM   BANK0   BANK1   BANK2   BANK3   BANK4   BANK5   BANK6   BANK7   BANK8   BANK9  BANK10  BANK1
      +1  BANK12  BANK13
  7886 ;;      Params:         2       0       0       0       0       0       0       0       0       0       0       0       
      +0       0       0
  7887 ;;      Locals:         9       0       0       0       0       0       0       0       0       0       0       0       
      +0       0       0
  7888 ;;      Temps:          4       0       0       0       0       0       0       0       0       0       0       0       
      +0       0       0
  7889 ;;      Totals:        15       0       0       0       0       0       0       0       0       0       0       0       
      +0       0       0
  7890 ;;Total ram usage:       15 bytes
  7891 ;; Hardware stack levels used:    1
  7892 ;; Hardware stack levels required when called:    1
  7893 ;; This function calls:
  7894 ;;		___wmul
  7895 ;;		_isdigit
  7896 ;;		_isspace
  7897 ;; This function is called by:
  7898 ;;		_vfpfcnvrt
  7899 ;; This function uses a non-reentrant model
  7900 ;;
  7901                           
  7902                           	psect	text38
  7903  01224A                     __ptext38:
  7904                           	callstack 0
  7905  01224A                     _atoi:
  7906                           	callstack 24
  7907  01224A  0E00               	movlw	0
  7908  01224C  6E16               	movwf	(atoi@n+1)^0,c
  7909  01224E  0E00               	movlw	0
  7910  012250  6E15               	movwf	atoi@n^0,c
  7911  012252  0E00               	movlw	0
  7912  012254  6E0F               	movwf	(atoi@neg+1)^0,c
  7913  012256  0E00               	movlw	0
  7914  012258  6E0E               	movwf	atoi@neg^0,c
  7915  01225A  EF31  F091         	goto	l3609
  7916  01225E                     l3607:
  7917  01225E  4A08               	infsnz	atoi@s^0,f,c
  7918  012260  2A09               	incf	(atoi@s+1)^0,f,c
  7919  012262                     l3609:
  7920  012262  0E01               	movlw	1
  7921  012264  6E14               	movwf	_atoi$1682^0,c
  7922  012266  C008  FFF6         	movff	atoi@s,tblptrl
  7923  01226A  C009  FFF7         	movff	atoi@s+1,tblptrh
  7924  01226E                     	if	0	;tblptru may be non-zero
  7925  01226E                     	endif
  7926  01226E                     	if	1	;Program memory is > 0xFFFF, there are 3 active tblptr bytes
  7927  01226E  0E00               	movlw	low (__mediumconst shr (0+16))
  7928  012270  6EF8               	movwf	tblptru,c
  7929  012272                     	endif
  7930  012272  0008               	tblrd		*
  7931  012274  50F5               	movf	tablat,w,c
  7932  012276  0A20               	xorlw	32
  7933  012278  B4D8               	btfsc	status,2,c
  7934  01227A  EF41  F091         	goto	u2801
  7935  01227E  EF43  F091         	goto	u2800
  7936  012282                     u2801:
  7937  012282  EF62  F091         	goto	l3617
  7938  012286                     u2800:
  7939  012286  0EF7               	movlw	247
  7940  012288  6E0A               	movwf	??_atoi^0,c
  7941  01228A  0EFF               	movlw	255
  7942  01228C  6E0B               	movwf	(??_atoi+1)^0,c
  7943  01228E  C008  FFF6         	movff	atoi@s,tblptrl
  7944  012292  C009  FFF7         	movff	atoi@s+1,tblptrh
  7945  012296                     	if	0	;tblptru may be non-zero
  7946  012296                     	endif
  7947  012296                     	if	1	;Program memory is > 0xFFFF, there are 3 active tblptr bytes
  7948  012296  0E00               	movlw	low (__mediumconst shr (0+16))
  7949  012298  6EF8               	movwf	tblptru,c
  7950  01229A                     	endif
  7951  01229A  0008               	tblrd		*
  7952  01229C  50F5               	movf	tablat,w,c
  7953  01229E  6E0C               	movwf	(??_atoi+2)^0,c
  7954  0122A0  6A0D               	clrf	(??_atoi+3)^0,c
  7955  0122A2  500A               	movf	??_atoi^0,w,c
  7956  0122A4  260C               	addwf	(??_atoi+2)^0,f,c
  7957  0122A6  500B               	movf	(??_atoi+1)^0,w,c
  7958  0122A8  220D               	addwfc	(??_atoi+3)^0,f,c
  7959  0122AA  500D               	movf	(??_atoi+3)^0,w,c
  7960  0122AC  E109               	bnz	u2810
  7961  0122AE  0E05               	movlw	5
  7962  0122B0  5C0C               	subwf	(??_atoi+2)^0,w,c
  7963  0122B2  A0D8               	btfss	status,0,c
  7964  0122B4  EF5E  F091         	goto	u2811
  7965  0122B8  EF60  F091         	goto	u2810
  7966  0122BC                     u2811:
  7967  0122BC  EF62  F091         	goto	l3617
  7968  0122C0                     u2810:
  7969  0122C0  0E00               	movlw	0
  7970  0122C2  6E14               	movwf	_atoi$1682^0,c
  7971  0122C4                     l3617:
  7972  0122C4  C014  F010         	movff	_atoi$1682,_atoi$1681
  7973  0122C8  6A11               	clrf	(_atoi$1681+1)^0,c
  7974  0122CA  5010               	movf	_atoi$1681^0,w,c
  7975  0122CC  1011               	iorwf	(_atoi$1681+1)^0,w,c
  7976  0122CE  A4D8               	btfss	status,2,c
  7977  0122D0  EF6C  F091         	goto	u2821
  7978  0122D4  EF6E  F091         	goto	u2820
  7979  0122D8                     u2821:
  7980  0122D8  EF2F  F091         	goto	l3607
  7981  0122DC                     u2820:
  7982  0122DC  EF78  F091         	goto	l3627
  7983  0122E0                     l3623:
  7984  0122E0  0E00               	movlw	0
  7985  0122E2  6E0F               	movwf	(atoi@neg+1)^0,c
  7986  0122E4  0E01               	movlw	1
  7987  0122E6  6E0E               	movwf	atoi@neg^0,c
  7988  0122E8                     l3625:
  7989  0122E8  4A08               	infsnz	atoi@s^0,f,c
  7990  0122EA  2A09               	incf	(atoi@s+1)^0,f,c
  7991  0122EC  EFB1  F091         	goto	l3633
  7992  0122F0                     l3627:
  7993  0122F0  C008  FFF6         	movff	atoi@s,tblptrl
  7994  0122F4  C009  FFF7         	movff	atoi@s+1,tblptrh
  7995  0122F8                     	if	0	;tblptru may be non-zero
  7996  0122F8                     	endif
  7997  0122F8                     	if	1	;Program memory is > 0xFFFF, there are 3 active tblptr bytes
  7998  0122F8  0E00               	movlw	low (__mediumconst shr (0+16))
  7999  0122FA  6EF8               	movwf	tblptru,c
  8000  0122FC                     	endif
  8001  0122FC  0008               	tblrd		*
  8002  0122FE  50F5               	movf	tablat,w,c
  8003  012300  6E0A               	movwf	??_atoi^0,c
  8004  012302  6A0B               	clrf	(??_atoi+1)^0,c
  8005                           
  8006                           ; Switch on 2 bytes has been partitioned into a top level switch of size 1, and 1 sub-sw
      +                          itches
  8007                           ; Switch size 1, requested type "simple"
  8008                           ; Number of cases is 1, Range of values is 0 to 0
  8009                           ; switch strategies available:
  8010                           ; Name         Instructions Cycles
  8011                           ; simple_byte            4     3 (average)
  8012                           ;	Chosen strategy is simple_byte
  8013  012304  500B               	movf	(??_atoi+1)^0,w,c
  8014  012306  0A00               	xorlw	0	; case 0
  8015  012308  B4D8               	btfsc	status,2,c
  8016  01230A  EF89  F091         	goto	l5327
  8017  01230E  EFB1  F091         	goto	l3633
  8018  012312                     l5327:
  8019                           
  8020                           ; Switch size 1, requested type "simple"
  8021                           ; Number of cases is 2, Range of values is 43 to 45
  8022                           ; switch strategies available:
  8023                           ; Name         Instructions Cycles
  8024                           ; simple_byte            7     4 (average)
  8025                           ;	Chosen strategy is simple_byte
  8026  012312  500A               	movf	??_atoi^0,w,c
  8027  012314  0A2B               	xorlw	43	; case 43
  8028  012316  B4D8               	btfsc	status,2,c
  8029  012318  EF74  F091         	goto	l3625
  8030  01231C  0A06               	xorlw	6	; case 45
  8031  01231E  B4D8               	btfsc	status,2,c
  8032  012320  EF70  F091         	goto	l3623
  8033  012324  EFB1  F091         	goto	l3633
  8034  012328                     l3629:
  8035  012328  C015  F001         	movff	atoi@n,___wmul@multiplier
  8036  01232C  C016  F002         	movff	atoi@n+1,___wmul@multiplier+1
  8037  012330  0E00               	movlw	0
  8038  012332  6E04               	movwf	(___wmul@multiplicand+1)^0,c
  8039  012334  0E0A               	movlw	10
  8040  012336  6E03               	movwf	___wmul@multiplicand^0,c
  8041  012338  ECD4  F098         	call	___wmul	;wreg free
  8042  01233C  C008  FFF6         	movff	atoi@s,tblptrl
  8043  012340  C009  FFF7         	movff	atoi@s+1,tblptrh
  8044  012344                     	if	0	;tblptru may be non-zero
  8045  012344                     	endif
  8046  012344                     	if	1	;Program memory is > 0xFFFF, there are 3 active tblptr bytes
  8047  012344  0E00               	movlw	low (__mediumconst shr (0+16))
  8048  012346  6EF8               	movwf	tblptru,c
  8049  012348                     	endif
  8050  012348  0008               	tblrd		*
  8051  01234A  50F5               	movf	tablat,w,c
  8052  01234C  5E01               	subwf	?___wmul^0,f,c
  8053  01234E  0E00               	movlw	0
  8054  012350  5A02               	subwfb	(?___wmul+1)^0,f,c
  8055  012352  0E30               	movlw	48
  8056  012354  2401               	addwf	?___wmul^0,w,c
  8057  012356  6E15               	movwf	atoi@n^0,c
  8058  012358  0E00               	movlw	0
  8059  01235A  2002               	addwfc	(?___wmul+1)^0,w,c
  8060  01235C  6E16               	movwf	(atoi@n+1)^0,c
  8061  01235E  EF74  F091         	goto	l3625
  8062  012362                     l3633:
  8063  012362  0ED0               	movlw	208
  8064  012364  6E0A               	movwf	??_atoi^0,c
  8065  012366  0EFF               	movlw	255
  8066  012368  6E0B               	movwf	(??_atoi+1)^0,c
  8067  01236A  C008  FFF6         	movff	atoi@s,tblptrl
  8068  01236E  C009  FFF7         	movff	atoi@s+1,tblptrh
  8069  012372                     	if	0	;tblptru may be non-zero
  8070  012372                     	endif
  8071  012372                     	if	1	;Program memory is > 0xFFFF, there are 3 active tblptr bytes
  8072  012372  0E00               	movlw	low (__mediumconst shr (0+16))
  8073  012374  6EF8               	movwf	tblptru,c
  8074  012376                     	endif
  8075  012376  0008               	tblrd		*
  8076  012378  50F5               	movf	tablat,w,c
  8077  01237A  6E0C               	movwf	(??_atoi+2)^0,c
  8078  01237C  6A0D               	clrf	(??_atoi+3)^0,c
  8079  01237E  500A               	movf	??_atoi^0,w,c
  8080  012380  260C               	addwf	(??_atoi+2)^0,f,c
  8081  012382  500B               	movf	(??_atoi+1)^0,w,c
  8082  012384  220D               	addwfc	(??_atoi+3)^0,f,c
  8083  012386  500D               	movf	(??_atoi+3)^0,w,c
  8084  012388  E10A               	bnz	u2830
  8085  01238A  0E0A               	movlw	10
  8086  01238C  5C0C               	subwf	(??_atoi+2)^0,w,c
  8087  01238E  A0D8               	btfss	status,0,c
  8088  012390  EFCC  F091         	goto	u2831
  8089  012394  EFCF  F091         	goto	u2830
  8090  012398                     u2831:
  8091  012398  0E01               	movlw	1
  8092  01239A  EFD0  F091         	goto	u2840
  8093  01239E                     u2830:
  8094  01239E  0E00               	movlw	0
  8095  0123A0                     u2840:
  8096  0123A0  6E12               	movwf	_atoi$1683^0,c
  8097  0123A2  6A13               	clrf	(_atoi$1683+1)^0,c
  8098  0123A4  5012               	movf	_atoi$1683^0,w,c
  8099  0123A6  1013               	iorwf	(_atoi$1683+1)^0,w,c
  8100  0123A8  A4D8               	btfss	status,2,c
  8101  0123AA  EFD9  F091         	goto	u2851
  8102  0123AE  EFDB  F091         	goto	u2850
  8103  0123B2                     u2851:
  8104  0123B2  EF94  F091         	goto	l3629
  8105  0123B6                     u2850:
  8106  0123B6  500E               	movf	atoi@neg^0,w,c
  8107  0123B8  100F               	iorwf	(atoi@neg+1)^0,w,c
  8108  0123BA  A4D8               	btfss	status,2,c
  8109  0123BC  EFE2  F091         	goto	u2861
  8110  0123C0  EFE4  F091         	goto	u2860
  8111  0123C4                     u2861:
  8112  0123C4  EFF2  F091         	goto	l1181
  8113  0123C8                     u2860:
  8114  0123C8  C015  F00A         	movff	atoi@n,??_atoi
  8115  0123CC  C016  F00B         	movff	atoi@n+1,??_atoi+1
  8116  0123D0  1E0A               	comf	??_atoi^0,f,c
  8117  0123D2  1E0B               	comf	(??_atoi+1)^0,f,c
  8118  0123D4  4A0A               	infsnz	??_atoi^0,f,c
  8119  0123D6  2A0B               	incf	(??_atoi+1)^0,f,c
  8120  0123D8  C00A  F008         	movff	??_atoi,?_atoi
  8121  0123DC  C00B  F009         	movff	??_atoi+1,?_atoi+1
  8122  0123E0  EFF6  F091         	goto	l1184
  8123  0123E4                     l1181:
  8124  0123E4  C015  F008         	movff	atoi@n,?_atoi
  8125  0123E8  C016  F009         	movff	atoi@n+1,?_atoi+1
  8126  0123EC                     l1184:
  8127  0123EC  0012               	return		;funcret
  8128  0123EE                     __end_of_atoi:
  8129                           	callstack 0
  8130                           
  8131 ;; *************** function _isspace *****************
  8132 ;; Defined at:
  8133 ;;		line 5 in file "C:\Program Files\Microchip\xc8\v2.31\pic\sources\c99\common\isspace.c"
  8134 ;; Parameters:    Size  Location     Type
  8135 ;;  c               2    0[COMRAM] int 
  8136 ;; Auto vars:     Size  Location     Type
  8137 ;;		None
  8138 ;; Return value:  Size  Location     Type
  8139 ;;                  2    0[COMRAM] int 
  8140 ;; Registers used:
  8141 ;;		wreg, status,2, status,0
  8142 ;; Tracked objects:
  8143 ;;		On entry : 0/0
  8144 ;;		On exit  : 0/0
  8145 ;;		Unchanged: 0/0
  8146 ;; Data sizes:     COMRAM   BANK0   BANK1   BANK2   BANK3   BANK4   BANK5   BANK6   BANK7   BANK8   BANK9  BANK10  BANK1
      +1  BANK12  BANK13
  8147 ;;      Params:         2       0       0       0       0       0       0       0       0       0       0       0       
      +0       0       0
  8148 ;;      Locals:         1       0       0       0       0       0       0       0       0       0       0       0       
      +0       0       0
  8149 ;;      Temps:          4       0       0       0       0       0       0       0       0       0       0       0       
      +0       0       0
  8150 ;;      Totals:         7       0       0       0       0       0       0       0       0       0       0       0       
      +0       0       0
  8151 ;;Total ram usage:        7 bytes
  8152 ;; Hardware stack levels used:    1
  8153 ;; This function calls:
  8154 ;;		Nothing
  8155 ;; This function is called by:
  8156 ;;		_atoi
  8157 ;; This function uses a non-reentrant model
  8158 ;;
  8159                           
  8160                           	psect	text39
  8161  012E34                     __ptext39:
  8162                           	callstack 0
  8163  012E34                     _isspace:
  8164                           	callstack 24
  8165  012E34  0E01               	movlw	1
  8166  012E36  6E07               	movwf	_isspace$1708^0,c
  8167  012E38  0E20               	movlw	32
  8168  012E3A  1801               	xorwf	isspace@c^0,w,c
  8169  012E3C  1002               	iorwf	(isspace@c+1)^0,w,c
  8170  012E3E  B4D8               	btfsc	status,2,c
  8171  012E40  EF24  F097         	goto	u2461
  8172  012E44  EF26  F097         	goto	u2460
  8173  012E48                     u2461:
  8174  012E48  EF3F  F097         	goto	l3473
  8175  012E4C                     u2460:
  8176  012E4C  0EF7               	movlw	247
  8177  012E4E  6E03               	movwf	??_isspace^0,c
  8178  012E50  0EFF               	movlw	255
  8179  012E52  6E04               	movwf	(??_isspace+1)^0,c
  8180  012E54  C001  F005         	movff	isspace@c,??_isspace+2
  8181  012E58  C002  F006         	movff	isspace@c+1,??_isspace+3
  8182  012E5C  5003               	movf	??_isspace^0,w,c
  8183  012E5E  2605               	addwf	(??_isspace+2)^0,f,c
  8184  012E60  5004               	movf	(??_isspace+1)^0,w,c
  8185  012E62  2206               	addwfc	(??_isspace+3)^0,f,c
  8186  012E64  5006               	movf	(??_isspace+3)^0,w,c
  8187  012E66  E109               	bnz	u2470
  8188  012E68  0E05               	movlw	5
  8189  012E6A  5C05               	subwf	(??_isspace+2)^0,w,c
  8190  012E6C  A0D8               	btfss	status,0,c
  8191  012E6E  EF3B  F097         	goto	u2471
  8192  012E72  EF3D  F097         	goto	u2470
  8193  012E76                     u2471:
  8194  012E76  EF3F  F097         	goto	l3473
  8195  012E7A                     u2470:
  8196  012E7A  0E00               	movlw	0
  8197  012E7C  6E07               	movwf	_isspace$1708^0,c
  8198  012E7E                     l3473:
  8199  012E7E  C007  F001         	movff	_isspace$1708,?_isspace
  8200  012E82  6A02               	clrf	(?_isspace+1)^0,c
  8201  012E84  0012               	return		;funcret
  8202  012E86                     __end_of_isspace:
  8203                           	callstack 0
  8204                           
  8205 ;; *************** function _isdigit *****************
  8206 ;; Defined at:
  8207 ;;		line 5 in file "C:\Program Files\Microchip\xc8\v2.31\pic\sources\c99\common\isdigit.c"
  8208 ;; Parameters:    Size  Location     Type
  8209 ;;  c               2    0[COMRAM] int 
  8210 ;; Auto vars:     Size  Location     Type
  8211 ;;		None
  8212 ;; Return value:  Size  Location     Type
  8213 ;;                  2    0[COMRAM] int 
  8214 ;; Registers used:
  8215 ;;		wreg, status,2, status,0
  8216 ;; Tracked objects:
  8217 ;;		On entry : 0/0
  8218 ;;		On exit  : 0/0
  8219 ;;		Unchanged: 0/0
  8220 ;; Data sizes:     COMRAM   BANK0   BANK1   BANK2   BANK3   BANK4   BANK5   BANK6   BANK7   BANK8   BANK9  BANK10  BANK1
      +1  BANK12  BANK13
  8221 ;;      Params:         2       0       0       0       0       0       0       0       0       0       0       0       
      +0       0       0
  8222 ;;      Locals:         0       0       0       0       0       0       0       0       0       0       0       0       
      +0       0       0
  8223 ;;      Temps:          4       0       0       0       0       0       0       0       0       0       0       0       
      +0       0       0
  8224 ;;      Totals:         6       0       0       0       0       0       0       0       0       0       0       0       
      +0       0       0
  8225 ;;Total ram usage:        6 bytes
  8226 ;; Hardware stack levels used:    1
  8227 ;; This function calls:
  8228 ;;		Nothing
  8229 ;; This function is called by:
  8230 ;;		_vfpfcnvrt
  8231 ;;		_atoi
  8232 ;; This function uses a non-reentrant model
  8233 ;;
  8234                           
  8235                           	psect	text40
  8236  013084                     __ptext40:
  8237                           	callstack 0
  8238  013084                     _isdigit:
  8239                           	callstack 25
  8240  013084  0ED0               	movlw	208
  8241  013086  6E03               	movwf	??_isdigit^0,c
  8242  013088  0EFF               	movlw	255
  8243  01308A  6E04               	movwf	(??_isdigit+1)^0,c
  8244  01308C  C001  F005         	movff	isdigit@c,??_isdigit+2
  8245  013090  C002  F006         	movff	isdigit@c+1,??_isdigit+3
  8246  013094  5003               	movf	??_isdigit^0,w,c
  8247  013096  2605               	addwf	(??_isdigit+2)^0,f,c
  8248  013098  5004               	movf	(??_isdigit+1)^0,w,c
  8249  01309A  2206               	addwfc	(??_isdigit+3)^0,f,c
  8250  01309C  5006               	movf	(??_isdigit+3)^0,w,c
  8251  01309E  E10A               	bnz	u2440
  8252  0130A0  0E0A               	movlw	10
  8253  0130A2  5C05               	subwf	(??_isdigit+2)^0,w,c
  8254  0130A4  A0D8               	btfss	status,0,c
  8255  0130A6  EF57  F098         	goto	u2441
  8256  0130AA  EF5A  F098         	goto	u2440
  8257  0130AE                     u2441:
  8258  0130AE  0E01               	movlw	1
  8259  0130B0  EF5B  F098         	goto	u2450
  8260  0130B4                     u2440:
  8261  0130B4  0E00               	movlw	0
  8262  0130B6                     u2450:
  8263  0130B6  6E01               	movwf	?_isdigit^0,c
  8264  0130B8  6A02               	clrf	(?_isdigit+1)^0,c
  8265  0130BA  0012               	return		;funcret
  8266  0130BC                     __end_of_isdigit:
  8267                           	callstack 0
  8268                           
  8269 ;; *************** function ___wmul *****************
  8270 ;; Defined at:
  8271 ;;		line 15 in file "C:\Program Files\Microchip\xc8\v2.31\pic\sources\c99\common\Umul16.c"
  8272 ;; Parameters:    Size  Location     Type
  8273 ;;  multiplier      2    0[COMRAM] unsigned int 
  8274 ;;  multiplicand    2    2[COMRAM] unsigned int 
  8275 ;; Auto vars:     Size  Location     Type
  8276 ;;  product         2    4[COMRAM] unsigned int 
  8277 ;; Return value:  Size  Location     Type
  8278 ;;                  2    0[COMRAM] unsigned int 
  8279 ;; Registers used:
  8280 ;;		wreg, status,2, status,0, prodl, prodh
  8281 ;; Tracked objects:
  8282 ;;		On entry : 0/0
  8283 ;;		On exit  : 0/0
  8284 ;;		Unchanged: 0/0
  8285 ;; Data sizes:     COMRAM   BANK0   BANK1   BANK2   BANK3   BANK4   BANK5   BANK6   BANK7   BANK8   BANK9  BANK10  BANK1
      +1  BANK12  BANK13
  8286 ;;      Params:         4       0       0       0       0       0       0       0       0       0       0       0       
      +0       0       0
  8287 ;;      Locals:         2       0       0       0       0       0       0       0       0       0       0       0       
      +0       0       0
  8288 ;;      Temps:          0       0       0       0       0       0       0       0       0       0       0       0       
      +0       0       0
  8289 ;;      Totals:         6       0       0       0       0       0       0       0       0       0       0       0       
      +0       0       0
  8290 ;;Total ram usage:        6 bytes
  8291 ;; Hardware stack levels used:    1
  8292 ;; This function calls:
  8293 ;;		Nothing
  8294 ;; This function is called by:
  8295 ;;		_MAX17345_dump
  8296 ;;		_atoi
  8297 ;; This function uses a non-reentrant model
  8298 ;;
  8299                           
  8300                           	psect	text41
  8301  0131A8                     __ptext41:
  8302                           	callstack 0
  8303  0131A8                     ___wmul:
  8304                           	callstack 24
  8305  0131A8  5001               	movf	___wmul@multiplier^0,w,c
  8306  0131AA  0203               	mulwf	___wmul@multiplicand^0,c
  8307  0131AC  CFF3 F005          	movff	prodl,___wmul@product
  8308  0131B0  CFF4 F006          	movff	prodh,___wmul@product+1
  8309  0131B4  5001               	movf	___wmul@multiplier^0,w,c
  8310  0131B6  0204               	mulwf	(___wmul@multiplicand+1)^0,c
  8311  0131B8  50F3               	movf	243,w,c
  8312  0131BA  2606               	addwf	(___wmul@product+1)^0,f,c
  8313  0131BC  5002               	movf	(___wmul@multiplier+1)^0,w,c
  8314  0131BE  0203               	mulwf	___wmul@multiplicand^0,c
  8315  0131C0  50F3               	movf	243,w,c
  8316  0131C2  2606               	addwf	(___wmul@product+1)^0,f,c
  8317  0131C4  C005  F001         	movff	___wmul@product,?___wmul
  8318  0131C8  C006  F002         	movff	___wmul@product+1,?___wmul+1
  8319  0131CC  0012               	return		;funcret
  8320  0131CE                     __end_of___wmul:
  8321                           	callstack 0
  8322                           
  8323 ;; *************** function ___xxtofl *****************
  8324 ;; Defined at:
  8325 ;;		line 10 in file "C:\Program Files\Microchip\xc8\v2.31\pic\sources\c99\common\xxtofl.c"
  8326 ;; Parameters:    Size  Location     Type
  8327 ;;  sign            1    wreg     unsigned char 
  8328 ;;  val             4    0[COMRAM] long 
  8329 ;; Auto vars:     Size  Location     Type
  8330 ;;  sign            1    8[COMRAM] unsigned char 
  8331 ;;  arg             4   10[COMRAM] unsigned long 
  8332 ;;  exp             1    9[COMRAM] unsigned char 
  8333 ;; Return value:  Size  Location     Type
  8334 ;;                  4    0[COMRAM] unsigned char 
  8335 ;; Registers used:
  8336 ;;		wreg, status,2, status,0
  8337 ;; Tracked objects:
  8338 ;;		On entry : 0/0
  8339 ;;		On exit  : 0/0
  8340 ;;		Unchanged: 0/0
  8341 ;; Data sizes:     COMRAM   BANK0   BANK1   BANK2   BANK3   BANK4   BANK5   BANK6   BANK7   BANK8   BANK9  BANK10  BANK1
      +1  BANK12  BANK13
  8342 ;;      Params:         4       0       0       0       0       0       0       0       0       0       0       0       
      +0       0       0
  8343 ;;      Locals:         6       0       0       0       0       0       0       0       0       0       0       0       
      +0       0       0
  8344 ;;      Temps:          4       0       0       0       0       0       0       0       0       0       0       0       
      +0       0       0
  8345 ;;      Totals:        14       0       0       0       0       0       0       0       0       0       0       0       
      +0       0       0
  8346 ;;Total ram usage:       14 bytes
  8347 ;; Hardware stack levels used:    1
  8348 ;; This function calls:
  8349 ;;		Nothing
  8350 ;; This function is called by:
  8351 ;;		_MAX17320_dump
  8352 ;; This function uses a non-reentrant model
  8353 ;;
  8354                           
  8355                           	psect	text42
  8356  012096                     __ptext42:
  8357                           	callstack 0
  8358  012096                     ___xxtofl:
  8359                           	callstack 28
  8360                           
  8361                           ;incstack = 0
  8362                           ;___xxtofl@sign stored from wreg
  8363  012096  6E09               	movwf	___xxtofl@sign^0,c
  8364  012098  5009               	movf	___xxtofl@sign^0,w,c
  8365  01209A  B4D8               	btfsc	status,2,c
  8366  01209C  EF52  F090         	goto	u3471
  8367  0120A0  EF54  F090         	goto	u3470
  8368  0120A4                     u3471:
  8369  0120A4  EF76  F090         	goto	l986
  8370  0120A8                     u3470:
  8371  0120A8  BE04               	btfsc	(___xxtofl@val+3)^0,7,c
  8372  0120AA  EF5B  F090         	goto	u3480
  8373  0120AE  EF59  F090         	goto	u3481
  8374  0120B2                     u3481:
  8375  0120B2  EF76  F090         	goto	l986
  8376  0120B6                     u3480:
  8377  0120B6  C001  F005         	movff	___xxtofl@val,??___xxtofl
  8378  0120BA  C002  F006         	movff	___xxtofl@val+1,??___xxtofl+1
  8379  0120BE  C003  F007         	movff	___xxtofl@val+2,??___xxtofl+2
  8380  0120C2  C004  F008         	movff	___xxtofl@val+3,??___xxtofl+3
  8381  0120C6  1E05               	comf	??___xxtofl^0,f,c
  8382  0120C8  1E06               	comf	(??___xxtofl+1)^0,f,c
  8383  0120CA  1E07               	comf	(??___xxtofl+2)^0,f,c
  8384  0120CC  1E08               	comf	(??___xxtofl+3)^0,f,c
  8385  0120CE  2A05               	incf	??___xxtofl^0,f,c
  8386  0120D0  0E00               	movlw	0
  8387  0120D2  2206               	addwfc	(??___xxtofl+1)^0,f,c
  8388  0120D4  2207               	addwfc	(??___xxtofl+2)^0,f,c
  8389  0120D6  2208               	addwfc	(??___xxtofl+3)^0,f,c
  8390  0120D8  C005  F00B         	movff	??___xxtofl,___xxtofl@arg
  8391  0120DC  C006  F00C         	movff	??___xxtofl+1,___xxtofl@arg+1
  8392  0120E0  C007  F00D         	movff	??___xxtofl+2,___xxtofl@arg+2
  8393  0120E4  C008  F00E         	movff	??___xxtofl+3,___xxtofl@arg+3
  8394  0120E8  EF7E  F090         	goto	l4789
  8395  0120EC                     l986:
  8396  0120EC  C001  F00B         	movff	___xxtofl@val,___xxtofl@arg
  8397  0120F0  C002  F00C         	movff	___xxtofl@val+1,___xxtofl@arg+1
  8398  0120F4  C003  F00D         	movff	___xxtofl@val+2,___xxtofl@arg+2
  8399  0120F8  C004  F00E         	movff	___xxtofl@val+3,___xxtofl@arg+3
  8400  0120FC                     l4789:
  8401  0120FC  5001               	movf	___xxtofl@val^0,w,c
  8402  0120FE  1002               	iorwf	(___xxtofl@val+1)^0,w,c
  8403  012100  1003               	iorwf	(___xxtofl@val+2)^0,w,c
  8404  012102  1004               	iorwf	(___xxtofl@val+3)^0,w,c
  8405  012104  A4D8               	btfss	status,2,c
  8406  012106  EF87  F090         	goto	u3491
  8407  01210A  EF89  F090         	goto	u3490
  8408  01210E                     u3491:
  8409  01210E  EF93  F090         	goto	l4795
  8410  012112                     u3490:
  8411  012112  0E00               	movlw	0
  8412  012114  6E01               	movwf	?___xxtofl^0,c
  8413  012116  0E00               	movlw	0
  8414  012118  6E02               	movwf	(?___xxtofl+1)^0,c
  8415  01211A  0E00               	movlw	0
  8416  01211C  6E03               	movwf	(?___xxtofl+2)^0,c
  8417  01211E  0E00               	movlw	0
  8418  012120  6E04               	movwf	(?___xxtofl+3)^0,c
  8419  012122  EF24  F091         	goto	l989
  8420  012126                     l4795:
  8421  012126  0E96               	movlw	150
  8422  012128  6E0A               	movwf	___xxtofl@exp^0,c
  8423  01212A  EF9D  F090         	goto	l4799
  8424  01212E                     l4797:
  8425  01212E  2A0A               	incf	___xxtofl@exp^0,f,c
  8426  012130  90D8               	bcf	status,0,c
  8427  012132  320E               	rrcf	(___xxtofl@arg+3)^0,f,c
  8428  012134  320D               	rrcf	(___xxtofl@arg+2)^0,f,c
  8429  012136  320C               	rrcf	(___xxtofl@arg+1)^0,f,c
  8430  012138  320B               	rrcf	___xxtofl@arg^0,f,c
  8431  01213A                     l4799:
  8432  01213A  0E00               	movlw	0
  8433  01213C  140B               	andwf	___xxtofl@arg^0,w,c
  8434  01213E  6E05               	movwf	??___xxtofl^0,c
  8435  012140  0E00               	movlw	0
  8436  012142  140C               	andwf	(___xxtofl@arg+1)^0,w,c
  8437  012144  6E06               	movwf	(??___xxtofl+1)^0,c
  8438  012146  0E00               	movlw	0
  8439  012148  140D               	andwf	(___xxtofl@arg+2)^0,w,c
  8440  01214A  6E07               	movwf	(??___xxtofl+2)^0,c
  8441  01214C  0EFE               	movlw	254
  8442  01214E  140E               	andwf	(___xxtofl@arg+3)^0,w,c
  8443  012150  6E08               	movwf	(??___xxtofl+3)^0,c
  8444  012152  5005               	movf	??___xxtofl^0,w,c
  8445  012154  1006               	iorwf	(??___xxtofl+1)^0,w,c
  8446  012156  1007               	iorwf	(??___xxtofl+2)^0,w,c
  8447  012158  1008               	iorwf	(??___xxtofl+3)^0,w,c
  8448  01215A  A4D8               	btfss	status,2,c
  8449  01215C  EFB2  F090         	goto	u3501
  8450  012160  EFB4  F090         	goto	u3500
  8451  012164                     u3501:
  8452  012164  EF97  F090         	goto	l4797
  8453  012168                     u3500:
  8454  012168  EFC2  F090         	goto	l993
  8455  01216C                     l4801:
  8456  01216C  2A0A               	incf	___xxtofl@exp^0,f,c
  8457  01216E  0E01               	movlw	1
  8458  012170  260B               	addwf	___xxtofl@arg^0,f,c
  8459  012172  0E00               	movlw	0
  8460  012174  220C               	addwfc	(___xxtofl@arg+1)^0,f,c
  8461  012176  220D               	addwfc	(___xxtofl@arg+2)^0,f,c
  8462  012178  220E               	addwfc	(___xxtofl@arg+3)^0,f,c
  8463  01217A  90D8               	bcf	status,0,c
  8464  01217C  320E               	rrcf	(___xxtofl@arg+3)^0,f,c
  8465  01217E  320D               	rrcf	(___xxtofl@arg+2)^0,f,c
  8466  012180  320C               	rrcf	(___xxtofl@arg+1)^0,f,c
  8467  012182  320B               	rrcf	___xxtofl@arg^0,f,c
  8468  012184                     l993:
  8469  012184  0E00               	movlw	0
  8470  012186  140B               	andwf	___xxtofl@arg^0,w,c
  8471  012188  6E05               	movwf	??___xxtofl^0,c
  8472  01218A  0E00               	movlw	0
  8473  01218C  140C               	andwf	(___xxtofl@arg+1)^0,w,c
  8474  01218E  6E06               	movwf	(??___xxtofl+1)^0,c
  8475  012190  0E00               	movlw	0
  8476  012192  140D               	andwf	(___xxtofl@arg+2)^0,w,c
  8477  012194  6E07               	movwf	(??___xxtofl+2)^0,c
  8478  012196  0EFF               	movlw	255
  8479  012198  140E               	andwf	(___xxtofl@arg+3)^0,w,c
  8480  01219A  6E08               	movwf	(??___xxtofl+3)^0,c
  8481  01219C  5005               	movf	??___xxtofl^0,w,c
  8482  01219E  1006               	iorwf	(??___xxtofl+1)^0,w,c
  8483  0121A0  1007               	iorwf	(??___xxtofl+2)^0,w,c
  8484  0121A2  1008               	iorwf	(??___xxtofl+3)^0,w,c
  8485  0121A4  A4D8               	btfss	status,2,c
  8486  0121A6  EFD7  F090         	goto	u3511
  8487  0121AA  EFD9  F090         	goto	u3510
  8488  0121AE                     u3511:
  8489  0121AE  EFB6  F090         	goto	l4801
  8490  0121B2                     u3510:
  8491  0121B2  EFE1  F090         	goto	l4809
  8492  0121B6                     l4807:
  8493  0121B6  060A               	decf	___xxtofl@exp^0,f,c
  8494  0121B8  90D8               	bcf	status,0,c
  8495  0121BA  360B               	rlcf	___xxtofl@arg^0,f,c
  8496  0121BC  360C               	rlcf	(___xxtofl@arg+1)^0,f,c
  8497  0121BE  360D               	rlcf	(___xxtofl@arg+2)^0,f,c
  8498  0121C0  360E               	rlcf	(___xxtofl@arg+3)^0,f,c
  8499  0121C2                     l4809:
  8500  0121C2  BE0D               	btfsc	(___xxtofl@arg+2)^0,7,c
  8501  0121C4  EFE6  F090         	goto	u3521
  8502  0121C8  EFE8  F090         	goto	u3520
  8503  0121CC                     u3521:
  8504  0121CC  EFF0  F090         	goto	l1000
  8505  0121D0                     u3520:
  8506  0121D0  0E02               	movlw	2
  8507  0121D2  600A               	cpfslt	___xxtofl@exp^0,c
  8508  0121D4  EFEE  F090         	goto	u3531
  8509  0121D8  EFF0  F090         	goto	u3530
  8510  0121DC                     u3531:
  8511  0121DC  EFDB  F090         	goto	l4807
  8512  0121E0                     u3530:
  8513  0121E0                     l1000:
  8514  0121E0  B00A               	btfsc	___xxtofl@exp^0,0,c
  8515  0121E2  EFF5  F090         	goto	u3541
  8516  0121E6  EFF7  F090         	goto	u3540
  8517  0121EA                     u3541:
  8518  0121EA  EFF8  F090         	goto	l4815
  8519  0121EE                     u3540:
  8520  0121EE  9E0D               	bcf	(___xxtofl@arg+2)^0,7,c
  8521  0121F0                     l4815:
  8522  0121F0  90D8               	bcf	status,0,c
  8523  0121F2  320A               	rrcf	___xxtofl@exp^0,f,c
  8524  0121F4  C00A  F005         	movff	___xxtofl@exp,??___xxtofl
  8525  0121F8  6A06               	clrf	(??___xxtofl+1)^0,c
  8526  0121FA  6A07               	clrf	(??___xxtofl+2)^0,c
  8527  0121FC  6A08               	clrf	(??___xxtofl+3)^0,c
  8528  0121FE  C005  F008         	movff	??___xxtofl,??___xxtofl+3
  8529  012202  6A07               	clrf	(??___xxtofl+2)^0,c
  8530  012204  6A06               	clrf	(??___xxtofl+1)^0,c
  8531  012206  6A05               	clrf	??___xxtofl^0,c
  8532  012208  5005               	movf	??___xxtofl^0,w,c
  8533  01220A  120B               	iorwf	___xxtofl@arg^0,f,c
  8534  01220C  5006               	movf	(??___xxtofl+1)^0,w,c
  8535  01220E  120C               	iorwf	(___xxtofl@arg+1)^0,f,c
  8536  012210  5007               	movf	(??___xxtofl+2)^0,w,c
  8537  012212  120D               	iorwf	(___xxtofl@arg+2)^0,f,c
  8538  012214  5008               	movf	(??___xxtofl+3)^0,w,c
  8539  012216  120E               	iorwf	(___xxtofl@arg+3)^0,f,c
  8540  012218  5009               	movf	___xxtofl@sign^0,w,c
  8541  01221A  B4D8               	btfsc	status,2,c
  8542  01221C  EF12  F091         	goto	u3551
  8543  012220  EF14  F091         	goto	u3550
  8544  012224                     u3551:
  8545  012224  EF1C  F091         	goto	l4825
  8546  012228                     u3550:
  8547  012228  BE04               	btfsc	(___xxtofl@val+3)^0,7,c
  8548  01222A  EF1B  F091         	goto	u3560
  8549  01222E  EF19  F091         	goto	u3561
  8550  012232                     u3561:
  8551  012232  EF1C  F091         	goto	l4825
  8552  012236                     u3560:
  8553  012236  8E0E               	bsf	(___xxtofl@arg+3)^0,7,c
  8554  012238                     l4825:
  8555  012238  C00B  F001         	movff	___xxtofl@arg,?___xxtofl
  8556  01223C  C00C  F002         	movff	___xxtofl@arg+1,?___xxtofl+1
  8557  012240  C00D  F003         	movff	___xxtofl@arg+2,?___xxtofl+2
  8558  012244  C00E  F004         	movff	___xxtofl@arg+3,?___xxtofl+3
  8559  012248                     l989:
  8560  012248  0012               	return		;funcret
  8561  01224A                     __end_of___xxtofl:
  8562                           	callstack 0
  8563                           
  8564 ;; *************** function ___fltol *****************
  8565 ;; Defined at:
  8566 ;;		line 43 in file "C:\Program Files\Microchip\xc8\v2.31\pic\sources\c99\common\fltol.c"
  8567 ;; Parameters:    Size  Location     Type
  8568 ;;  f1              4   39[COMRAM] unsigned char 
  8569 ;; Auto vars:     Size  Location     Type
  8570 ;;  exp1            1   48[COMRAM] unsigned char 
  8571 ;;  sign1           1   47[COMRAM] unsigned char 
  8572 ;; Return value:  Size  Location     Type
  8573 ;;                  4   39[COMRAM] long 
  8574 ;; Registers used:
  8575 ;;		wreg, status,2, status,0
  8576 ;; Tracked objects:
  8577 ;;		On entry : 0/0
  8578 ;;		On exit  : 0/0
  8579 ;;		Unchanged: 0/0
  8580 ;; Data sizes:     COMRAM   BANK0   BANK1   BANK2   BANK3   BANK4   BANK5   BANK6   BANK7   BANK8   BANK9  BANK10  BANK1
      +1  BANK12  BANK13
  8581 ;;      Params:         4       0       0       0       0       0       0       0       0       0       0       0       
      +0       0       0
  8582 ;;      Locals:         2       0       0       0       0       0       0       0       0       0       0       0       
      +0       0       0
  8583 ;;      Temps:          4       0       0       0       0       0       0       0       0       0       0       0       
      +0       0       0
  8584 ;;      Totals:        10       0       0       0       0       0       0       0       0       0       0       0       
      +0       0       0
  8585 ;;Total ram usage:       10 bytes
  8586 ;; Hardware stack levels used:    1
  8587 ;; This function calls:
  8588 ;;		Nothing
  8589 ;; This function is called by:
  8590 ;;		_MAX17320_dump
  8591 ;; This function uses a non-reentrant model
  8592 ;;
  8593                           
  8594                           	psect	text43
  8595  01283A                     __ptext43:
  8596                           	callstack 0
  8597  01283A                     ___fltol:
  8598                           	callstack 28
  8599  01283A  342A               	rlcf	(___fltol@f1+2)^0,w,c
  8600  01283C  342B               	rlcf	(___fltol@f1+3)^0,w,c
  8601  01283E  6E31               	movwf	___fltol@exp1^0,c
  8602  012840  5031               	movf	___fltol@exp1^0,w,c
  8603  012842  A4D8               	btfss	status,2,c
  8604  012844  EF26  F094         	goto	u3401
  8605  012848  EF28  F094         	goto	u3400
  8606  01284C                     u3401:
  8607  01284C  EF32  F094         	goto	l4745
  8608  012850                     u3400:
  8609  012850                     l4741:
  8610  012850  0E00               	movlw	0
  8611  012852  6E28               	movwf	?___fltol^0,c
  8612  012854  0E00               	movlw	0
  8613  012856  6E29               	movwf	(?___fltol+1)^0,c
  8614  012858  0E00               	movlw	0
  8615  01285A  6E2A               	movwf	(?___fltol+2)^0,c
  8616  01285C  0E00               	movlw	0
  8617  01285E  6E2B               	movwf	(?___fltol+3)^0,c
  8618  012860  EF9F  F094         	goto	l628
  8619  012864                     l4745:
  8620  012864  C028  F02C         	movff	___fltol@f1,??___fltol
  8621  012868  C029  F02D         	movff	___fltol@f1+1,??___fltol+1
  8622  01286C  C02A  F02E         	movff	___fltol@f1+2,??___fltol+2
  8623  012870  C02B  F02F         	movff	___fltol@f1+3,??___fltol+3
  8624  012874  0E20               	movlw	32
  8625  012876  EF42  F094         	goto	u3410
  8626  01287A                     u3415:
  8627  01287A  90D8               	bcf	status,0,c
  8628  01287C  322F               	rrcf	(??___fltol+3)^0,f,c
  8629  01287E  322E               	rrcf	(??___fltol+2)^0,f,c
  8630  012880  322D               	rrcf	(??___fltol+1)^0,f,c
  8631  012882  322C               	rrcf	??___fltol^0,f,c
  8632  012884                     u3410:
  8633  012884  2EE8               	decfsz	wreg,f,c
  8634  012886  EF3D  F094         	goto	u3415
  8635  01288A  502C               	movf	??___fltol^0,w,c
  8636  01288C  6E30               	movwf	___fltol@sign1^0,c
  8637  01288E  8E2A               	bsf	(___fltol@f1+2)^0,7,c
  8638  012890  0EFF               	movlw	255
  8639  012892  1628               	andwf	___fltol@f1^0,f,c
  8640  012894  0EFF               	movlw	255
  8641  012896  1629               	andwf	(___fltol@f1+1)^0,f,c
  8642  012898  0EFF               	movlw	255
  8643  01289A  162A               	andwf	(___fltol@f1+2)^0,f,c
  8644  01289C  0E00               	movlw	0
  8645  01289E  162B               	andwf	(___fltol@f1+3)^0,f,c
  8646  0128A0  0E96               	movlw	150
  8647  0128A2  5E31               	subwf	___fltol@exp1^0,f,c
  8648  0128A4  BE31               	btfsc	___fltol@exp1^0,7,c
  8649  0128A6  EF59  F094         	goto	u3420
  8650  0128AA  EF57  F094         	goto	u3421
  8651  0128AE                     u3421:
  8652  0128AE  EF6F  F094         	goto	l4765
  8653  0128B2                     u3420:
  8654  0128B2  5031               	movf	___fltol@exp1^0,w,c
  8655  0128B4  0A80               	xorlw	128
  8656  0128B6  0F97               	addlw	151
  8657  0128B8  B0D8               	btfsc	status,0,c
  8658  0128BA  EF61  F094         	goto	u3431
  8659  0128BE  EF63  F094         	goto	u3430
  8660  0128C2                     u3431:
  8661  0128C2  EF65  F094         	goto	l4761
  8662  0128C6                     u3430:
  8663  0128C6  EF28  F094         	goto	l4741
  8664  0128CA                     l4761:
  8665  0128CA  90D8               	bcf	status,0,c
  8666  0128CC  322B               	rrcf	(___fltol@f1+3)^0,f,c
  8667  0128CE  322A               	rrcf	(___fltol@f1+2)^0,f,c
  8668  0128D0  3229               	rrcf	(___fltol@f1+1)^0,f,c
  8669  0128D2  3228               	rrcf	___fltol@f1^0,f,c
  8670  0128D4  3E31               	incfsz	___fltol@exp1^0,f,c
  8671  0128D6  EF65  F094         	goto	l4761
  8672  0128DA  EF87  F094         	goto	l4775
  8673  0128DE                     l4765:
  8674  0128DE  0E1F               	movlw	31
  8675  0128E0  6431               	cpfsgt	___fltol@exp1^0,c
  8676  0128E2  EF75  F094         	goto	u3441
  8677  0128E6  EF77  F094         	goto	u3440
  8678  0128EA                     u3441:
  8679  0128EA  EF7F  F094         	goto	l4773
  8680  0128EE                     u3440:
  8681  0128EE  EF28  F094         	goto	l4741
  8682  0128F2                     l4771:
  8683  0128F2  90D8               	bcf	status,0,c
  8684  0128F4  3628               	rlcf	___fltol@f1^0,f,c
  8685  0128F6  3629               	rlcf	(___fltol@f1+1)^0,f,c
  8686  0128F8  362A               	rlcf	(___fltol@f1+2)^0,f,c
  8687  0128FA  362B               	rlcf	(___fltol@f1+3)^0,f,c
  8688  0128FC  0631               	decf	___fltol@exp1^0,f,c
  8689  0128FE                     l4773:
  8690  0128FE  5031               	movf	___fltol@exp1^0,w,c
  8691  012900  A4D8               	btfss	status,2,c
  8692  012902  EF85  F094         	goto	u3451
  8693  012906  EF87  F094         	goto	u3450
  8694  01290A                     u3451:
  8695  01290A  EF79  F094         	goto	l4771
  8696  01290E                     u3450:
  8697  01290E                     l4775:
  8698  01290E  5030               	movf	___fltol@sign1^0,w,c
  8699  012910  B4D8               	btfsc	status,2,c
  8700  012912  EF8D  F094         	goto	u3461
  8701  012916  EF8F  F094         	goto	u3460
  8702  01291A                     u3461:
  8703  01291A  EF97  F094         	goto	l4779
  8704  01291E                     u3460:
  8705  01291E  1E2B               	comf	(___fltol@f1+3)^0,f,c
  8706  012920  1E2A               	comf	(___fltol@f1+2)^0,f,c
  8707  012922  1E29               	comf	(___fltol@f1+1)^0,f,c
  8708  012924  6C28               	negf	___fltol@f1^0,c
  8709  012926  0E00               	movlw	0
  8710  012928  2229               	addwfc	(___fltol@f1+1)^0,f,c
  8711  01292A  222A               	addwfc	(___fltol@f1+2)^0,f,c
  8712  01292C  222B               	addwfc	(___fltol@f1+3)^0,f,c
  8713  01292E                     l4779:
  8714  01292E  C028  F028         	movff	___fltol@f1,?___fltol
  8715  012932  C029  F029         	movff	___fltol@f1+1,?___fltol+1
  8716  012936  C02A  F02A         	movff	___fltol@f1+2,?___fltol+2
  8717  01293A  C02B  F02B         	movff	___fltol@f1+3,?___fltol+3
  8718  01293E                     l628:
  8719  01293E  0012               	return		;funcret
  8720  012940                     __end_of___fltol:
  8721                           	callstack 0
  8722                           
  8723 ;; *************** function ___flmul *****************
  8724 ;; Defined at:
  8725 ;;		line 8 in file "C:\Program Files\Microchip\xc8\v2.31\pic\sources\c99\common\sprcmul.c"
  8726 ;; Parameters:    Size  Location     Type
  8727 ;;  b               4   14[COMRAM] long 
  8728 ;;  a               4   18[COMRAM] long 
  8729 ;; Auto vars:     Size  Location     Type
  8730 ;;  prod            4   33[COMRAM] struct .
  8731 ;;  grs             4   27[COMRAM] unsigned long 
  8732 ;;  temp            2   37[COMRAM] struct .
  8733 ;;  bexp            1   32[COMRAM] unsigned char 
  8734 ;;  aexp            1   31[COMRAM] unsigned char 
  8735 ;;  sign            1   26[COMRAM] unsigned char 
  8736 ;; Return value:  Size  Location     Type
  8737 ;;                  4   14[COMRAM] unsigned char 
  8738 ;; Registers used:
  8739 ;;		wreg, status,2, status,0, prodl, prodh
  8740 ;; Tracked objects:
  8741 ;;		On entry : 0/0
  8742 ;;		On exit  : 0/0
  8743 ;;		Unchanged: 0/0
  8744 ;; Data sizes:     COMRAM   BANK0   BANK1   BANK2   BANK3   BANK4   BANK5   BANK6   BANK7   BANK8   BANK9  BANK10  BANK1
      +1  BANK12  BANK13
  8745 ;;      Params:         8       0       0       0       0       0       0       0       0       0       0       0       
      +0       0       0
  8746 ;;      Locals:        13       0       0       0       0       0       0       0       0       0       0       0       
      +0       0       0
  8747 ;;      Temps:          4       0       0       0       0       0       0       0       0       0       0       0       
      +0       0       0
  8748 ;;      Totals:        25       0       0       0       0       0       0       0       0       0       0       0       
      +0       0       0
  8749 ;;Total ram usage:       25 bytes
  8750 ;; Hardware stack levels used:    1
  8751 ;; This function calls:
  8752 ;;		Nothing
  8753 ;; This function is called by:
  8754 ;;		_MAX17320_dump
  8755 ;; This function uses a non-reentrant model
  8756 ;;
  8757                           
  8758                           	psect	text44
  8759  0110F0                     __ptext44:
  8760                           	callstack 0
  8761  0110F0                     ___flmul:
  8762                           	callstack 28
  8763  0110F0  5012               	movf	(___flmul@b+3)^0,w,c
  8764  0110F2  0B80               	andlw	128
  8765  0110F4  6E1B               	movwf	___flmul@sign^0,c
  8766  0110F6  5012               	movf	(___flmul@b+3)^0,w,c
  8767  0110F8  2412               	addwf	(___flmul@b+3)^0,w,c
  8768  0110FA  6E21               	movwf	___flmul@bexp^0,c
  8769  0110FC  AE11               	btfss	(___flmul@b+2)^0,7,c
  8770  0110FE  EF83  F088         	goto	u3211
  8771  011102  EF85  F088         	goto	u3210
  8772  011106                     u3211:
  8773  011106  EF86  F088         	goto	l4615
  8774  01110A                     u3210:
  8775  01110A  8021               	bsf	___flmul@bexp^0,0,c
  8776  01110C                     l4615:
  8777  01110C  5021               	movf	___flmul@bexp^0,w,c
  8778  01110E  B4D8               	btfsc	status,2,c
  8779  011110  EF8C  F088         	goto	u3221
  8780  011114  EF8E  F088         	goto	u3220
  8781  011118                     u3221:
  8782  011118  EFA1  F088         	goto	l4623
  8783  01111C                     u3220:
  8784  01111C  2821               	incf	___flmul@bexp^0,w,c
  8785  01111E  A4D8               	btfss	status,2,c
  8786  011120  EF94  F088         	goto	u3231
  8787  011124  EF96  F088         	goto	u3230
  8788  011128                     u3231:
  8789  011128  EF9E  F088         	goto	l4621
  8790  01112C                     u3230:
  8791  01112C  0E00               	movlw	0
  8792  01112E  6E0F               	movwf	___flmul@b^0,c
  8793  011130  0E00               	movlw	0
  8794  011132  6E10               	movwf	(___flmul@b+1)^0,c
  8795  011134  0E00               	movlw	0
  8796  011136  6E11               	movwf	(___flmul@b+2)^0,c
  8797  011138  0E00               	movlw	0
  8798  01113A  6E12               	movwf	(___flmul@b+3)^0,c
  8799  01113C                     l4621:
  8800  01113C  8E11               	bsf	(___flmul@b+2)^0,7,c
  8801  01113E  EFA9  F088         	goto	l4625
  8802  011142                     l4623:
  8803  011142  0E00               	movlw	0
  8804  011144  6E0F               	movwf	___flmul@b^0,c
  8805  011146  0E00               	movlw	0
  8806  011148  6E10               	movwf	(___flmul@b+1)^0,c
  8807  01114A  0E00               	movlw	0
  8808  01114C  6E11               	movwf	(___flmul@b+2)^0,c
  8809  01114E  0E00               	movlw	0
  8810  011150  6E12               	movwf	(___flmul@b+3)^0,c
  8811  011152                     l4625:
  8812  011152  5016               	movf	(___flmul@a+3)^0,w,c
  8813  011154  0B80               	andlw	128
  8814  011156  1A1B               	xorwf	___flmul@sign^0,f,c
  8815  011158  5016               	movf	(___flmul@a+3)^0,w,c
  8816  01115A  2416               	addwf	(___flmul@a+3)^0,w,c
  8817  01115C  6E20               	movwf	___flmul@aexp^0,c
  8818  01115E  AE15               	btfss	(___flmul@a+2)^0,7,c
  8819  011160  EFB4  F088         	goto	u3241
  8820  011164  EFB6  F088         	goto	u3240
  8821  011168                     u3241:
  8822  011168  EFB7  F088         	goto	l4633
  8823  01116C                     u3240:
  8824  01116C  8020               	bsf	___flmul@aexp^0,0,c
  8825  01116E                     l4633:
  8826  01116E  5020               	movf	___flmul@aexp^0,w,c
  8827  011170  B4D8               	btfsc	status,2,c
  8828  011172  EFBD  F088         	goto	u3251
  8829  011176  EFBF  F088         	goto	u3250
  8830  01117A                     u3251:
  8831  01117A  EFD2  F088         	goto	l4641
  8832  01117E                     u3250:
  8833  01117E  2820               	incf	___flmul@aexp^0,w,c
  8834  011180  A4D8               	btfss	status,2,c
  8835  011182  EFC5  F088         	goto	u3261
  8836  011186  EFC7  F088         	goto	u3260
  8837  01118A                     u3261:
  8838  01118A  EFCF  F088         	goto	l4639
  8839  01118E                     u3260:
  8840  01118E  0E00               	movlw	0
  8841  011190  6E13               	movwf	___flmul@a^0,c
  8842  011192  0E00               	movlw	0
  8843  011194  6E14               	movwf	(___flmul@a+1)^0,c
  8844  011196  0E00               	movlw	0
  8845  011198  6E15               	movwf	(___flmul@a+2)^0,c
  8846  01119A  0E00               	movlw	0
  8847  01119C  6E16               	movwf	(___flmul@a+3)^0,c
  8848  01119E                     l4639:
  8849  01119E  8E15               	bsf	(___flmul@a+2)^0,7,c
  8850  0111A0  EFDA  F088         	goto	l945
  8851  0111A4                     l4641:
  8852  0111A4  0E00               	movlw	0
  8853  0111A6  6E13               	movwf	___flmul@a^0,c
  8854  0111A8  0E00               	movlw	0
  8855  0111AA  6E14               	movwf	(___flmul@a+1)^0,c
  8856  0111AC  0E00               	movlw	0
  8857  0111AE  6E15               	movwf	(___flmul@a+2)^0,c
  8858  0111B0  0E00               	movlw	0
  8859  0111B2  6E16               	movwf	(___flmul@a+3)^0,c
  8860  0111B4                     l945:
  8861  0111B4  5020               	movf	___flmul@aexp^0,w,c
  8862  0111B6  B4D8               	btfsc	status,2,c
  8863  0111B8  EFE0  F088         	goto	u3271
  8864  0111BC  EFE2  F088         	goto	u3270
  8865  0111C0                     u3271:
  8866  0111C0  EFEA  F088         	goto	l4645
  8867  0111C4                     u3270:
  8868  0111C4  5021               	movf	___flmul@bexp^0,w,c
  8869  0111C6  A4D8               	btfss	status,2,c
  8870  0111C8  EFE8  F088         	goto	u3281
  8871  0111CC  EFEA  F088         	goto	u3280
  8872  0111D0                     u3281:
  8873  0111D0  EFF4  F088         	goto	l4649
  8874  0111D4                     u3280:
  8875  0111D4                     l4645:
  8876  0111D4  0E00               	movlw	0
  8877  0111D6  6E0F               	movwf	?___flmul^0,c
  8878  0111D8  0E00               	movlw	0
  8879  0111DA  6E10               	movwf	(?___flmul+1)^0,c
  8880  0111DC  0E00               	movlw	0
  8881  0111DE  6E11               	movwf	(?___flmul+2)^0,c
  8882  0111E0  0E00               	movlw	0
  8883  0111E2  6E12               	movwf	(?___flmul+3)^0,c
  8884  0111E4  EF8C  F08A         	goto	l949
  8885  0111E8                     l4649:
  8886  0111E8  5015               	movf	(___flmul@a+2)^0,w,c
  8887  0111EA  020F               	mulwf	___flmul@b^0,c
  8888  0111EC  CFF3 F026          	movff	prodl,___flmul@temp
  8889  0111F0  CFF4 F027          	movff	prodh,___flmul@temp+1
  8890  0111F4  5026               	movf	___flmul@temp^0,w,c
  8891  0111F6  6E1C               	movwf	___flmul@grs^0,c
  8892  0111F8  6A1D               	clrf	(___flmul@grs+1)^0,c
  8893  0111FA  6A1E               	clrf	(___flmul@grs+2)^0,c
  8894  0111FC  6A1F               	clrf	(___flmul@grs+3)^0,c
  8895  0111FE  5027               	movf	(___flmul@temp+1)^0,w,c
  8896  011200  6E22               	movwf	___flmul@prod^0,c
  8897  011202  6A23               	clrf	(___flmul@prod+1)^0,c
  8898  011204  6A24               	clrf	(___flmul@prod+2)^0,c
  8899  011206  6A25               	clrf	(___flmul@prod+3)^0,c
  8900  011208  5014               	movf	(___flmul@a+1)^0,w,c
  8901  01120A  0210               	mulwf	(___flmul@b+1)^0,c
  8902  01120C  CFF3 F026          	movff	prodl,___flmul@temp
  8903  011210  CFF4 F027          	movff	prodh,___flmul@temp+1
  8904  011214  5026               	movf	___flmul@temp^0,w,c
  8905  011216  261C               	addwf	___flmul@grs^0,f,c
  8906  011218  0E00               	movlw	0
  8907  01121A  221D               	addwfc	(___flmul@grs+1)^0,f,c
  8908  01121C  221E               	addwfc	(___flmul@grs+2)^0,f,c
  8909  01121E  221F               	addwfc	(___flmul@grs+3)^0,f,c
  8910  011220  5027               	movf	(___flmul@temp+1)^0,w,c
  8911  011222  2622               	addwf	___flmul@prod^0,f,c
  8912  011224  0E00               	movlw	0
  8913  011226  2223               	addwfc	(___flmul@prod+1)^0,f,c
  8914  011228  2224               	addwfc	(___flmul@prod+2)^0,f,c
  8915  01122A  2225               	addwfc	(___flmul@prod+3)^0,f,c
  8916  01122C  5013               	movf	___flmul@a^0,w,c
  8917  01122E  0211               	mulwf	(___flmul@b+2)^0,c
  8918  011230  CFF3 F026          	movff	prodl,___flmul@temp
  8919  011234  CFF4 F027          	movff	prodh,___flmul@temp+1
  8920  011238  5026               	movf	___flmul@temp^0,w,c
  8921  01123A  261C               	addwf	___flmul@grs^0,f,c
  8922  01123C  0E00               	movlw	0
  8923  01123E  221D               	addwfc	(___flmul@grs+1)^0,f,c
  8924  011240  221E               	addwfc	(___flmul@grs+2)^0,f,c
  8925  011242  221F               	addwfc	(___flmul@grs+3)^0,f,c
  8926  011244  5027               	movf	(___flmul@temp+1)^0,w,c
  8927  011246  2622               	addwf	___flmul@prod^0,f,c
  8928  011248  0E00               	movlw	0
  8929  01124A  2223               	addwfc	(___flmul@prod+1)^0,f,c
  8930  01124C  2224               	addwfc	(___flmul@prod+2)^0,f,c
  8931  01124E  2225               	addwfc	(___flmul@prod+3)^0,f,c
  8932  011250  C01E  F01F         	movff	___flmul@grs+2,___flmul@grs+3
  8933  011254  C01D  F01E         	movff	___flmul@grs+1,___flmul@grs+2
  8934  011258  C01C  F01D         	movff	___flmul@grs,___flmul@grs+1
  8935  01125C  6A1C               	clrf	___flmul@grs^0,c
  8936  01125E  5013               	movf	___flmul@a^0,w,c
  8937  011260  0210               	mulwf	(___flmul@b+1)^0,c
  8938  011262  CFF3 F026          	movff	prodl,___flmul@temp
  8939  011266  CFF4 F027          	movff	prodh,___flmul@temp+1
  8940  01126A  5026               	movf	___flmul@temp^0,w,c
  8941  01126C  261C               	addwf	___flmul@grs^0,f,c
  8942  01126E  5027               	movf	(___flmul@temp+1)^0,w,c
  8943  011270  221D               	addwfc	(___flmul@grs+1)^0,f,c
  8944  011272  0E00               	movlw	0
  8945  011274  221E               	addwfc	(___flmul@grs+2)^0,f,c
  8946  011276  0E00               	movlw	0
  8947  011278  221F               	addwfc	(___flmul@grs+3)^0,f,c
  8948  01127A  5014               	movf	(___flmul@a+1)^0,w,c
  8949  01127C  020F               	mulwf	___flmul@b^0,c
  8950  01127E  CFF3 F026          	movff	prodl,___flmul@temp
  8951  011282  CFF4 F027          	movff	prodh,___flmul@temp+1
  8952  011286  5026               	movf	___flmul@temp^0,w,c
  8953  011288  261C               	addwf	___flmul@grs^0,f,c
  8954  01128A  5027               	movf	(___flmul@temp+1)^0,w,c
  8955  01128C  221D               	addwfc	(___flmul@grs+1)^0,f,c
  8956  01128E  0E00               	movlw	0
  8957  011290  221E               	addwfc	(___flmul@grs+2)^0,f,c
  8958  011292  0E00               	movlw	0
  8959  011294  221F               	addwfc	(___flmul@grs+3)^0,f,c
  8960  011296  C01E  F01F         	movff	___flmul@grs+2,___flmul@grs+3
  8961  01129A  C01D  F01E         	movff	___flmul@grs+1,___flmul@grs+2
  8962  01129E  C01C  F01D         	movff	___flmul@grs,___flmul@grs+1
  8963  0112A2  6A1C               	clrf	___flmul@grs^0,c
  8964  0112A4  5013               	movf	___flmul@a^0,w,c
  8965  0112A6  020F               	mulwf	___flmul@b^0,c
  8966  0112A8  CFF3 F026          	movff	prodl,___flmul@temp
  8967  0112AC  CFF4 F027          	movff	prodh,___flmul@temp+1
  8968  0112B0  5026               	movf	___flmul@temp^0,w,c
  8969  0112B2  261C               	addwf	___flmul@grs^0,f,c
  8970  0112B4  5027               	movf	(___flmul@temp+1)^0,w,c
  8971  0112B6  221D               	addwfc	(___flmul@grs+1)^0,f,c
  8972  0112B8  0E00               	movlw	0
  8973  0112BA  221E               	addwfc	(___flmul@grs+2)^0,f,c
  8974  0112BC  0E00               	movlw	0
  8975  0112BE  221F               	addwfc	(___flmul@grs+3)^0,f,c
  8976  0112C0  5015               	movf	(___flmul@a+2)^0,w,c
  8977  0112C2  0210               	mulwf	(___flmul@b+1)^0,c
  8978  0112C4  CFF3 F026          	movff	prodl,___flmul@temp
  8979  0112C8  CFF4 F027          	movff	prodh,___flmul@temp+1
  8980  0112CC  5026               	movf	___flmul@temp^0,w,c
  8981  0112CE  2622               	addwf	___flmul@prod^0,f,c
  8982  0112D0  5027               	movf	(___flmul@temp+1)^0,w,c
  8983  0112D2  2223               	addwfc	(___flmul@prod+1)^0,f,c
  8984  0112D4  0E00               	movlw	0
  8985  0112D6  2224               	addwfc	(___flmul@prod+2)^0,f,c
  8986  0112D8  0E00               	movlw	0
  8987  0112DA  2225               	addwfc	(___flmul@prod+3)^0,f,c
  8988  0112DC  5014               	movf	(___flmul@a+1)^0,w,c
  8989  0112DE  0211               	mulwf	(___flmul@b+2)^0,c
  8990  0112E0  CFF3 F026          	movff	prodl,___flmul@temp
  8991  0112E4  CFF4 F027          	movff	prodh,___flmul@temp+1
  8992  0112E8  5026               	movf	___flmul@temp^0,w,c
  8993  0112EA  2622               	addwf	___flmul@prod^0,f,c
  8994  0112EC  5027               	movf	(___flmul@temp+1)^0,w,c
  8995  0112EE  2223               	addwfc	(___flmul@prod+1)^0,f,c
  8996  0112F0  0E00               	movlw	0
  8997  0112F2  2224               	addwfc	(___flmul@prod+2)^0,f,c
  8998  0112F4  0E00               	movlw	0
  8999  0112F6  2225               	addwfc	(___flmul@prod+3)^0,f,c
  9000  0112F8  5015               	movf	(___flmul@a+2)^0,w,c
  9001  0112FA  0211               	mulwf	(___flmul@b+2)^0,c
  9002  0112FC  CFF3 F026          	movff	prodl,___flmul@temp
  9003  011300  CFF4 F027          	movff	prodh,___flmul@temp+1
  9004  011304  5026               	movf	___flmul@temp^0,w,c
  9005  011306  6E17               	movwf	??___flmul^0,c
  9006  011308  5027               	movf	(___flmul@temp+1)^0,w,c
  9007  01130A  6E18               	movwf	(??___flmul+1)^0,c
  9008  01130C  6A19               	clrf	(??___flmul+2)^0,c
  9009  01130E  6A1A               	clrf	(??___flmul+3)^0,c
  9010  011310  C019  F01A         	movff	??___flmul+2,??___flmul+3
  9011  011314  C018  F019         	movff	??___flmul+1,??___flmul+2
  9012  011318  C017  F018         	movff	??___flmul,??___flmul+1
  9013  01131C  6A17               	clrf	??___flmul^0,c
  9014  01131E  5017               	movf	??___flmul^0,w,c
  9015  011320  2622               	addwf	___flmul@prod^0,f,c
  9016  011322  5018               	movf	(??___flmul+1)^0,w,c
  9017  011324  2223               	addwfc	(___flmul@prod+1)^0,f,c
  9018  011326  5019               	movf	(??___flmul+2)^0,w,c
  9019  011328  2224               	addwfc	(___flmul@prod+2)^0,f,c
  9020  01132A  501A               	movf	(??___flmul+3)^0,w,c
  9021  01132C  2225               	addwfc	(___flmul@prod+3)^0,f,c
  9022  01132E  C01C  F017         	movff	___flmul@grs,??___flmul
  9023  011332  C01D  F018         	movff	___flmul@grs+1,??___flmul+1
  9024  011336  C01E  F019         	movff	___flmul@grs+2,??___flmul+2
  9025  01133A  C01F  F01A         	movff	___flmul@grs+3,??___flmul+3
  9026  01133E  0E19               	movlw	25
  9027  011340  EFA7  F089         	goto	u3290
  9028  011344                     u3295:
  9029  011344  90D8               	bcf	status,0,c
  9030  011346  321A               	rrcf	(??___flmul+3)^0,f,c
  9031  011348  3219               	rrcf	(??___flmul+2)^0,f,c
  9032  01134A  3218               	rrcf	(??___flmul+1)^0,f,c
  9033  01134C  3217               	rrcf	??___flmul^0,f,c
  9034  01134E                     u3290:
  9035  01134E  2EE8               	decfsz	wreg,f,c
  9036  011350  EFA2  F089         	goto	u3295
  9037  011354  5017               	movf	??___flmul^0,w,c
  9038  011356  2622               	addwf	___flmul@prod^0,f,c
  9039  011358  5018               	movf	(??___flmul+1)^0,w,c
  9040  01135A  2223               	addwfc	(___flmul@prod+1)^0,f,c
  9041  01135C  5019               	movf	(??___flmul+2)^0,w,c
  9042  01135E  2224               	addwfc	(___flmul@prod+2)^0,f,c
  9043  011360  501A               	movf	(??___flmul+3)^0,w,c
  9044  011362  2225               	addwfc	(___flmul@prod+3)^0,f,c
  9045  011364  C01E  F01F         	movff	___flmul@grs+2,___flmul@grs+3
  9046  011368  C01D  F01E         	movff	___flmul@grs+1,___flmul@grs+2
  9047  01136C  C01C  F01D         	movff	___flmul@grs,___flmul@grs+1
  9048  011370  6A1C               	clrf	___flmul@grs^0,c
  9049  011372  5020               	movf	___flmul@aexp^0,w,c
  9050  011374  C021  F017         	movff	___flmul@bexp,??___flmul
  9051  011378  6A18               	clrf	(??___flmul+1)^0,c
  9052  01137A  2617               	addwf	??___flmul^0,f,c
  9053  01137C  0E00               	movlw	0
  9054  01137E  2218               	addwfc	(??___flmul+1)^0,f,c
  9055  011380  0E82               	movlw	130
  9056  011382  2417               	addwf	??___flmul^0,w,c
  9057  011384  6E26               	movwf	___flmul@temp^0,c
  9058  011386  0EFF               	movlw	255
  9059  011388  2018               	addwfc	(??___flmul+1)^0,w,c
  9060  01138A  6E27               	movwf	(___flmul@temp+1)^0,c
  9061  01138C  EFDD  F089         	goto	l4697
  9062  011390                     l4691:
  9063  011390  90D8               	bcf	status,0,c
  9064  011392  3622               	rlcf	___flmul@prod^0,f,c
  9065  011394  3623               	rlcf	(___flmul@prod+1)^0,f,c
  9066  011396  3624               	rlcf	(___flmul@prod+2)^0,f,c
  9067  011398  3625               	rlcf	(___flmul@prod+3)^0,f,c
  9068  01139A  AE1F               	btfss	(___flmul@grs+3)^0,7,c
  9069  01139C  EFD2  F089         	goto	u3301
  9070  0113A0  EFD4  F089         	goto	u3300
  9071  0113A4                     u3301:
  9072  0113A4  EFD5  F089         	goto	l952
  9073  0113A8                     u3300:
  9074  0113A8  8022               	bsf	___flmul@prod^0,0,c
  9075  0113AA                     l952:
  9076  0113AA  90D8               	bcf	status,0,c
  9077  0113AC  361C               	rlcf	___flmul@grs^0,f,c
  9078  0113AE  361D               	rlcf	(___flmul@grs+1)^0,f,c
  9079  0113B0  361E               	rlcf	(___flmul@grs+2)^0,f,c
  9080  0113B2  361F               	rlcf	(___flmul@grs+3)^0,f,c
  9081  0113B4  0626               	decf	___flmul@temp^0,f,c
  9082  0113B6  A0D8               	btfss	status,0,c
  9083  0113B8  0627               	decf	(___flmul@temp+1)^0,f,c
  9084  0113BA                     l4697:
  9085  0113BA  AE24               	btfss	(___flmul@prod+2)^0,7,c
  9086  0113BC  EFE2  F089         	goto	u3311
  9087  0113C0  EFE4  F089         	goto	u3310
  9088  0113C4                     u3311:
  9089  0113C4  EFC8  F089         	goto	l4691
  9090  0113C8                     u3310:
  9091  0113C8  0E00               	movlw	0
  9092  0113CA  6E20               	movwf	___flmul@aexp^0,c
  9093  0113CC  AE1F               	btfss	(___flmul@grs+3)^0,7,c
  9094  0113CE  EFEB  F089         	goto	u3321
  9095  0113D2  EFED  F089         	goto	u3320
  9096  0113D6                     u3321:
  9097  0113D6  EF11  F08A         	goto	l954
  9098  0113DA                     u3320:
  9099  0113DA  0EFF               	movlw	255
  9100  0113DC  141C               	andwf	___flmul@grs^0,w,c
  9101  0113DE  6E17               	movwf	??___flmul^0,c
  9102  0113E0  0EFF               	movlw	255
  9103  0113E2  141D               	andwf	(___flmul@grs+1)^0,w,c
  9104  0113E4  6E18               	movwf	(??___flmul+1)^0,c
  9105  0113E6  0EFF               	movlw	255
  9106  0113E8  141E               	andwf	(___flmul@grs+2)^0,w,c
  9107  0113EA  6E19               	movwf	(??___flmul+2)^0,c
  9108  0113EC  0E7F               	movlw	127
  9109  0113EE  141F               	andwf	(___flmul@grs+3)^0,w,c
  9110  0113F0  6E1A               	movwf	(??___flmul+3)^0,c
  9111  0113F2  5017               	movf	??___flmul^0,w,c
  9112  0113F4  1018               	iorwf	(??___flmul+1)^0,w,c
  9113  0113F6  1019               	iorwf	(??___flmul+2)^0,w,c
  9114  0113F8  101A               	iorwf	(??___flmul+3)^0,w,c
  9115  0113FA  B4D8               	btfsc	status,2,c
  9116  0113FC  EF02  F08A         	goto	u3331
  9117  011400  EF04  F08A         	goto	u3330
  9118  011404                     u3331:
  9119  011404  EF08  F08A         	goto	l955
  9120  011408                     u3330:
  9121  011408                     l4705:
  9122  011408  0E01               	movlw	1
  9123  01140A  6E20               	movwf	___flmul@aexp^0,c
  9124  01140C  EF11  F08A         	goto	l954
  9125  011410                     l955:
  9126  011410  A022               	btfss	___flmul@prod^0,0,c
  9127  011412  EF0D  F08A         	goto	u3341
  9128  011416  EF0F  F08A         	goto	u3340
  9129  01141A                     u3341:
  9130  01141A  EF11  F08A         	goto	l954
  9131  01141E                     u3340:
  9132  01141E  EF04  F08A         	goto	l4705
  9133  011422                     l954:
  9134  011422  5020               	movf	___flmul@aexp^0,w,c
  9135  011424  B4D8               	btfsc	status,2,c
  9136  011426  EF17  F08A         	goto	u3351
  9137  01142A  EF19  F08A         	goto	u3350
  9138  01142E                     u3351:
  9139  01142E  EF3D  F08A         	goto	l4717
  9140  011432                     u3350:
  9141  011432  0E01               	movlw	1
  9142  011434  2622               	addwf	___flmul@prod^0,f,c
  9143  011436  0E00               	movlw	0
  9144  011438  2223               	addwfc	(___flmul@prod+1)^0,f,c
  9145  01143A  2224               	addwfc	(___flmul@prod+2)^0,f,c
  9146  01143C  2225               	addwfc	(___flmul@prod+3)^0,f,c
  9147  01143E  A025               	btfss	(___flmul@prod+3)^0,0,c
  9148  011440  EF24  F08A         	goto	u3361
  9149  011444  EF26  F08A         	goto	u3360
  9150  011448                     u3361:
  9151  011448  EF3D  F08A         	goto	l4717
  9152  01144C                     u3360:
  9153  01144C  C022  F017         	movff	___flmul@prod,??___flmul
  9154  011450  C023  F018         	movff	___flmul@prod+1,??___flmul+1
  9155  011454  C024  F019         	movff	___flmul@prod+2,??___flmul+2
  9156  011458  C025  F01A         	movff	___flmul@prod+3,??___flmul+3
  9157  01145C  341A               	rlcf	(??___flmul+3)^0,w,c
  9158  01145E  321A               	rrcf	(??___flmul+3)^0,f,c
  9159  011460  3219               	rrcf	(??___flmul+2)^0,f,c
  9160  011462  3218               	rrcf	(??___flmul+1)^0,f,c
  9161  011464  3217               	rrcf	??___flmul^0,f,c
  9162  011466  C017  F022         	movff	??___flmul,___flmul@prod
  9163  01146A  C018  F023         	movff	??___flmul+1,___flmul@prod+1
  9164  01146E  C019  F024         	movff	??___flmul+2,___flmul@prod+2
  9165  011472  C01A  F025         	movff	??___flmul+3,___flmul@prod+3
  9166  011476  4A26               	infsnz	___flmul@temp^0,f,c
  9167  011478  2A27               	incf	(___flmul@temp+1)^0,f,c
  9168  01147A                     l4717:
  9169  01147A  BE27               	btfsc	(___flmul@temp+1)^0,7,c
  9170  01147C  EF48  F08A         	goto	u3371
  9171  011480  5027               	movf	(___flmul@temp+1)^0,w,c
  9172  011482  E108               	bnz	u3370
  9173  011484  2826               	incf	___flmul@temp^0,w,c
  9174  011486  A0D8               	btfss	status,0,c
  9175  011488  EF48  F08A         	goto	u3371
  9176  01148C  EF4A  F08A         	goto	u3370
  9177  011490                     u3371:
  9178  011490  EF54  F08A         	goto	l4721
  9179  011494                     u3370:
  9180  011494  0E00               	movlw	0
  9181  011496  6E22               	movwf	___flmul@prod^0,c
  9182  011498  0E00               	movlw	0
  9183  01149A  6E23               	movwf	(___flmul@prod+1)^0,c
  9184  01149C  0E80               	movlw	128
  9185  01149E  6E24               	movwf	(___flmul@prod+2)^0,c
  9186  0114A0  0E7F               	movlw	127
  9187  0114A2  6E25               	movwf	(___flmul@prod+3)^0,c
  9188  0114A4  EF82  F08A         	goto	l4733
  9189  0114A8                     l4721:
  9190  0114A8  BE27               	btfsc	(___flmul@temp+1)^0,7,c
  9191  0114AA  EF61  F08A         	goto	u3380
  9192  0114AE  5027               	movf	(___flmul@temp+1)^0,w,c
  9193  0114B0  E106               	bnz	u3381
  9194  0114B2  0426               	decf	___flmul@temp^0,w,c
  9195  0114B4  B0D8               	btfsc	status,0,c
  9196  0114B6  EF5F  F08A         	goto	u3381
  9197  0114BA  EF61  F08A         	goto	u3380
  9198  0114BE                     u3381:
  9199  0114BE  EF6D  F08A         	goto	l962
  9200  0114C2                     u3380:
  9201  0114C2  0E00               	movlw	0
  9202  0114C4  6E22               	movwf	___flmul@prod^0,c
  9203  0114C6  0E00               	movlw	0
  9204  0114C8  6E23               	movwf	(___flmul@prod+1)^0,c
  9205  0114CA  0E00               	movlw	0
  9206  0114CC  6E24               	movwf	(___flmul@prod+2)^0,c
  9207  0114CE  0E00               	movlw	0
  9208  0114D0  6E25               	movwf	(___flmul@prod+3)^0,c
  9209  0114D2  0E00               	movlw	0
  9210  0114D4  6E1B               	movwf	___flmul@sign^0,c
  9211  0114D6  EF82  F08A         	goto	l4733
  9212  0114DA                     l962:
  9213  0114DA  C026  F021         	movff	___flmul@temp,___flmul@bexp
  9214  0114DE  0EFF               	movlw	255
  9215  0114E0  1622               	andwf	___flmul@prod^0,f,c
  9216  0114E2  0EFF               	movlw	255
  9217  0114E4  1623               	andwf	(___flmul@prod+1)^0,f,c
  9218  0114E6  0E7F               	movlw	127
  9219  0114E8  1624               	andwf	(___flmul@prod+2)^0,f,c
  9220  0114EA  0E00               	movlw	0
  9221  0114EC  1625               	andwf	(___flmul@prod+3)^0,f,c
  9222  0114EE  A021               	btfss	___flmul@bexp^0,0,c
  9223  0114F0  EF7C  F08A         	goto	u3391
  9224  0114F4  EF7E  F08A         	goto	u3390
  9225  0114F8                     u3391:
  9226  0114F8  EF7F  F08A         	goto	l4731
  9227  0114FC                     u3390:
  9228  0114FC  8E24               	bsf	(___flmul@prod+2)^0,7,c
  9229  0114FE                     l4731:
  9230  0114FE  90D8               	bcf	status,0,c
  9231  011500  3021               	rrcf	___flmul@bexp^0,w,c
  9232  011502  6E25               	movwf	(___flmul@prod+3)^0,c
  9233  011504                     l4733:
  9234  011504  501B               	movf	___flmul@sign^0,w,c
  9235  011506  1225               	iorwf	(___flmul@prod+3)^0,f,c
  9236  011508  C022  F00F         	movff	___flmul@prod,?___flmul
  9237  01150C  C023  F010         	movff	___flmul@prod+1,?___flmul+1
  9238  011510  C024  F011         	movff	___flmul@prod+2,?___flmul+2
  9239  011514  C025  F012         	movff	___flmul@prod+3,?___flmul+3
  9240  011518                     l949:
  9241  011518  0012               	return		;funcret
  9242  01151A                     __end_of___flmul:
  9243                           	callstack 0
  9244                           
  9245 ;; *************** function _MAX17320_read_word *****************
  9246 ;; Defined at:
  9247 ;;		line 116 in file "MAX17320.c"
  9248 ;; Parameters:    Size  Location     Type
  9249 ;;  address         2    6[COMRAM] unsigned short 
  9250 ;;  data            2    8[COMRAM] PTR unsigned short 
  9251 ;;		 -> MAX17320_dump@data(2), MAX17320_reset@data(2), MAX17320_get_SOC_percentage@SOC_16(2), MAX17320_init@data(2), 
  9252 ;; Auto vars:     Size  Location     Type
  9253 ;;		None
  9254 ;; Return value:  Size  Location     Type
  9255 ;;                  1    wreg      unsigned char 
  9256 ;; Registers used:
  9257 ;;		wreg, fsr2l, fsr2h, status,2, status,0, cstack
  9258 ;; Tracked objects:
  9259 ;;		On entry : 0/0
  9260 ;;		On exit  : 0/0
  9261 ;;		Unchanged: 0/0
  9262 ;; Data sizes:     COMRAM   BANK0   BANK1   BANK2   BANK3   BANK4   BANK5   BANK6   BANK7   BANK8   BANK9  BANK10  BANK1
      +1  BANK12  BANK13
  9263 ;;      Params:         4       0       0       0       0       0       0       0       0       0       0       0       
      +0       0       0
  9264 ;;      Locals:         0       0       0       0       0       0       0       0       0       0       0       0       
      +0       0       0
  9265 ;;      Temps:          0       0       0       0       0       0       0       0       0       0       0       0       
      +0       0       0
  9266 ;;      Totals:         4       0       0       0       0       0       0       0       0       0       0       0       
      +0       0       0
  9267 ;;Total ram usage:        4 bytes
  9268 ;; Hardware stack levels used:    1
  9269 ;; Hardware stack levels required when called:    1
  9270 ;; This function calls:
  9271 ;;		_ow_read_word
  9272 ;;		_ow_reset
  9273 ;;		_ow_write_word
  9274 ;; This function is called by:
  9275 ;;		_MAX17320_init
  9276 ;;		_MAX17320_dump
  9277 ;;		_MAX17320_get_SOC_percentage
  9278 ;;		_MAX17320_get_capacity_remains
  9279 ;;		_MAX17320_get_capacity_full
  9280 ;;		_MAX17320_reset
  9281 ;; This function uses a non-reentrant model
  9282 ;;
  9283                           
  9284                           	psect	text45
  9285  012E86                     __ptext45:
  9286                           	callstack 0
  9287  012E86                     _MAX17320_read_word:
  9288                           	callstack 28
  9289  012E86                     
  9290                           ;MAX17320.c: 118:     if (ow_reset()) {
  9291  012E86  EC6F  F08F         	call	_ow_reset	;wreg free
  9292  012E8A  0900               	iorlw	0
  9293  012E8C  B4D8               	btfsc	status,2,c
  9294  012E8E  EF4B  F097         	goto	u3111
  9295  012E92  EF4D  F097         	goto	u3110
  9296  012E96                     u3111:
  9297  012E96  EF66  F097         	goto	l4519
  9298  012E9A                     u3110:
  9299  012E9A                     
  9300                           ;MAX17320.c: 120:         ow_write_word(0x00CC | 0x6900);
  9301  012E9A  0E69               	movlw	105
  9302  012E9C  6E02               	movwf	(ow_write_word@data+1)^0,c
  9303  012E9E  0ECC               	movlw	204
  9304  012EA0  6E01               	movwf	ow_write_word@data^0,c
  9305  012EA2  EC7C  F08E         	call	_ow_write_word	;wreg free
  9306                           
  9307                           ;MAX17320.c: 121:         ow_write_word(address);
  9308  012EA6  C007  F001         	movff	MAX17320_read_word@address,ow_write_word@data
  9309  012EAA  C008  F002         	movff	MAX17320_read_word@address+1,ow_write_word@data+1
  9310  012EAE  EC7C  F08E         	call	_ow_write_word	;wreg free
  9311  012EB2                     
  9312                           ;MAX17320.c: 122:         *data = ow_read_word();
  9313  012EB2  EC6A  F08D         	call	_ow_read_word	;wreg free
  9314  012EB6  C009  FFD9         	movff	MAX17320_read_word@data,fsr2l
  9315  012EBA  C00A  FFDA         	movff	MAX17320_read_word@data+1,fsr2h
  9316  012EBE  C001  FFDE         	movff	?_ow_read_word,postinc2
  9317  012EC2  C002  FFDD         	movff	?_ow_read_word+1,postdec2
  9318  012EC6                     
  9319                           ;MAX17320.c: 123:         return 0;
  9320  012EC6  0E00               	movlw	0
  9321  012EC8  EF67  F097         	goto	l42
  9322  012ECC                     l4519:
  9323                           
  9324                           ;MAX17320.c: 126:         return 1;
  9325  012ECC  0E01               	movlw	1
  9326  012ECE                     l42:
  9327  012ECE  0012               	return		;funcret
  9328  012ED0                     __end_of_MAX17320_read_word:
  9329                           	callstack 0
  9330                           
  9331 ;; *************** function _ow_write_word *****************
  9332 ;; Defined at:
  9333 ;;		line 77 in file "MAX17320.c"
  9334 ;; Parameters:    Size  Location     Type
  9335 ;;  data            2    0[COMRAM] unsigned short 
  9336 ;; Auto vars:     Size  Location     Type
  9337 ;;		None
  9338 ;; Return value:  Size  Location     Type
  9339 ;;                  1    wreg      void 
  9340 ;; Registers used:
  9341 ;;		wreg, status,2
  9342 ;; Tracked objects:
  9343 ;;		On entry : 0/0
  9344 ;;		On exit  : 0/0
  9345 ;;		Unchanged: 0/0
  9346 ;; Data sizes:     COMRAM   BANK0   BANK1   BANK2   BANK3   BANK4   BANK5   BANK6   BANK7   BANK8   BANK9  BANK10  BANK1
      +1  BANK12  BANK13
  9347 ;;      Params:         2       0       0       0       0       0       0       0       0       0       0       0       
      +0       0       0
  9348 ;;      Locals:         0       0       0       0       0       0       0       0       0       0       0       0       
      +0       0       0
  9349 ;;      Temps:          0       0       0       0       0       0       0       0       0       0       0       0       
      +0       0       0
  9350 ;;      Totals:         2       0       0       0       0       0       0       0       0       0       0       0       
      +0       0       0
  9351 ;;Total ram usage:        2 bytes
  9352 ;; Hardware stack levels used:    1
  9353 ;; This function calls:
  9354 ;;		Nothing
  9355 ;; This function is called by:
  9356 ;;		_MAX17320_read_word
  9357 ;;		_MAX17320_write_word
  9358 ;; This function uses a non-reentrant model
  9359 ;;
  9360                           
  9361                           	psect	text46
  9362  011CF8                     __ptext46:
  9363                           	callstack 0
  9364  011CF8                     _ow_write_word:
  9365                           	callstack 28
  9366  011CF8                     
  9367                           ;MAX17320.c: 78:  WREG = data;
  9368  011CF8  5001               	movf	ow_write_word@data^0,w,c
  9369  011CFA  907B               	bcf	3963,0,c	;# 
  9370  011CFC  B0E8               	btfsc	wreg,0,c	;# 
  9371  011CFE  807B               	bsf	3963,0,c	;# 
  9372  011D00  F000               	nop		;# 
  9373  011D02  F000               	nop		;# 
  9374  011D04  F000               	nop		;# 
  9375  011D06  F000               	nop		;# 
  9376  011D08  F000               	nop		;# 
  9377  011D0A  F000               	nop		;# 
  9378  011D0C  F000               	nop		;# 
  9379  011D0E  F000               	nop		;# 
  9380  011D10  F000               	nop		;# 
  9381  011D12  807B               	bsf	3963,0,c	;# 
  9382  011D14  F000               	nop		;# 
  9383  011D16  F000               	nop		;# 
  9384  011D18  907B               	bcf	3963,0,c	;# 
  9385  011D1A  B2E8               	btfsc	wreg,1,c	;# 
  9386  011D1C  807B               	bsf	3963,0,c	;# 
  9387  011D1E  F000               	nop		;# 
  9388  011D20  F000               	nop		;# 
  9389  011D22  F000               	nop		;# 
  9390  011D24  F000               	nop		;# 
  9391  011D26  F000               	nop		;# 
  9392  011D28  F000               	nop		;# 
  9393  011D2A  F000               	nop		;# 
  9394  011D2C  F000               	nop		;# 
  9395  011D2E  F000               	nop		;# 
  9396  011D30  807B               	bsf	3963,0,c	;# 
  9397  011D32  F000               	nop		;# 
  9398  011D34  F000               	nop		;# 
  9399  011D36  907B               	bcf	3963,0,c	;# 
  9400  011D38  B4E8               	btfsc	wreg,2,c	;# 
  9401  011D3A  807B               	bsf	3963,0,c	;# 
  9402  011D3C  F000               	nop		;# 
  9403  011D3E  F000               	nop		;# 
  9404  011D40  F000               	nop		;# 
  9405  011D42  F000               	nop		;# 
  9406  011D44  F000               	nop		;# 
  9407  011D46  F000               	nop		;# 
  9408  011D48  F000               	nop		;# 
  9409  011D4A  F000               	nop		;# 
  9410  011D4C  F000               	nop		;# 
  9411  011D4E  807B               	bsf	3963,0,c	;# 
  9412  011D50  F000               	nop		;# 
  9413  011D52  F000               	nop		;# 
  9414  011D54  907B               	bcf	3963,0,c	;# 
  9415  011D56  B6E8               	btfsc	wreg,3,c	;# 
  9416  011D58  807B               	bsf	3963,0,c	;# 
  9417  011D5A  F000               	nop		;# 
  9418  011D5C  F000               	nop		;# 
  9419  011D5E  F000               	nop		;# 
  9420  011D60  F000               	nop		;# 
  9421  011D62  F000               	nop		;# 
  9422  011D64  F000               	nop		;# 
  9423  011D66  F000               	nop		;# 
  9424  011D68  F000               	nop		;# 
  9425  011D6A  F000               	nop		;# 
  9426  011D6C  807B               	bsf	3963,0,c	;# 
  9427  011D6E  F000               	nop		;# 
  9428  011D70  F000               	nop		;# 
  9429  011D72  907B               	bcf	3963,0,c	;# 
  9430  011D74  B8E8               	btfsc	wreg,4,c	;# 
  9431  011D76  807B               	bsf	3963,0,c	;# 
  9432  011D78  F000               	nop		;# 
  9433  011D7A  F000               	nop		;# 
  9434  011D7C  F000               	nop		;# 
  9435  011D7E  F000               	nop		;# 
  9436  011D80  F000               	nop		;# 
  9437  011D82  F000               	nop		;# 
  9438  011D84  F000               	nop		;# 
  9439  011D86  F000               	nop		;# 
  9440  011D88  F000               	nop		;# 
  9441  011D8A  807B               	bsf	3963,0,c	;# 
  9442  011D8C  F000               	nop		;# 
  9443  011D8E  F000               	nop		;# 
  9444  011D90  907B               	bcf	3963,0,c	;# 
  9445  011D92  BAE8               	btfsc	wreg,5,c	;# 
  9446  011D94  807B               	bsf	3963,0,c	;# 
  9447  011D96  F000               	nop		;# 
  9448  011D98  F000               	nop		;# 
  9449  011D9A  F000               	nop		;# 
  9450  011D9C  F000               	nop		;# 
  9451  011D9E  F000               	nop		;# 
  9452  011DA0  F000               	nop		;# 
  9453  011DA2  F000               	nop		;# 
  9454  011DA4  F000               	nop		;# 
  9455  011DA6  F000               	nop		;# 
  9456  011DA8  807B               	bsf	3963,0,c	;# 
  9457  011DAA  F000               	nop		;# 
  9458  011DAC  F000               	nop		;# 
  9459  011DAE  907B               	bcf	3963,0,c	;# 
  9460  011DB0  BCE8               	btfsc	wreg,6,c	;# 
  9461  011DB2  807B               	bsf	3963,0,c	;# 
  9462  011DB4  F000               	nop		;# 
  9463  011DB6  F000               	nop		;# 
  9464  011DB8  F000               	nop		;# 
  9465  011DBA  F000               	nop		;# 
  9466  011DBC  F000               	nop		;# 
  9467  011DBE  F000               	nop		;# 
  9468  011DC0  F000               	nop		;# 
  9469  011DC2  F000               	nop		;# 
  9470  011DC4  F000               	nop		;# 
  9471  011DC6  807B               	bsf	3963,0,c	;# 
  9472  011DC8  F000               	nop		;# 
  9473  011DCA  F000               	nop		;# 
  9474  011DCC  907B               	bcf	3963,0,c	;# 
  9475  011DCE  BEE8               	btfsc	wreg,7,c	;# 
  9476  011DD0  807B               	bsf	3963,0,c	;# 
  9477  011DD2  F000               	nop		;# 
  9478  011DD4  F000               	nop		;# 
  9479  011DD6  F000               	nop		;# 
  9480  011DD8  F000               	nop		;# 
  9481  011DDA  F000               	nop		;# 
  9482  011DDC  F000               	nop		;# 
  9483  011DDE  F000               	nop		;# 
  9484  011DE0  F000               	nop		;# 
  9485  011DE2  F000               	nop		;# 
  9486  011DE4  807B               	bsf	3963,0,c	;# 
  9487  011DE6  F000               	nop		;# 
  9488  011DE8  F000               	nop		;# 
  9489                           
  9490                           ;MAX17320.c: 83:  WREG = *(((unsigned char*)&data)+1);
  9491  011DEA  5002               	movf	(ow_write_word@data+1)^0,w,c
  9492  011DEC  907B               	bcf	3963,0,c	;# 
  9493  011DEE  B0E8               	btfsc	wreg,0,c	;# 
  9494  011DF0  807B               	bsf	3963,0,c	;# 
  9495  011DF2  F000               	nop		;# 
  9496  011DF4  F000               	nop		;# 
  9497  011DF6  F000               	nop		;# 
  9498  011DF8  F000               	nop		;# 
  9499  011DFA  F000               	nop		;# 
  9500  011DFC  F000               	nop		;# 
  9501  011DFE  F000               	nop		;# 
  9502  011E00  F000               	nop		;# 
  9503  011E02  F000               	nop		;# 
  9504  011E04  807B               	bsf	3963,0,c	;# 
  9505  011E06  F000               	nop		;# 
  9506  011E08  F000               	nop		;# 
  9507  011E0A  907B               	bcf	3963,0,c	;# 
  9508  011E0C  B2E8               	btfsc	wreg,1,c	;# 
  9509  011E0E  807B               	bsf	3963,0,c	;# 
  9510  011E10  F000               	nop		;# 
  9511  011E12  F000               	nop		;# 
  9512  011E14  F000               	nop		;# 
  9513  011E16  F000               	nop		;# 
  9514  011E18  F000               	nop		;# 
  9515  011E1A  F000               	nop		;# 
  9516  011E1C  F000               	nop		;# 
  9517  011E1E  F000               	nop		;# 
  9518  011E20  F000               	nop		;# 
  9519  011E22  807B               	bsf	3963,0,c	;# 
  9520  011E24  F000               	nop		;# 
  9521  011E26  F000               	nop		;# 
  9522  011E28  907B               	bcf	3963,0,c	;# 
  9523  011E2A  B4E8               	btfsc	wreg,2,c	;# 
  9524  011E2C  807B               	bsf	3963,0,c	;# 
  9525  011E2E  F000               	nop		;# 
  9526  011E30  F000               	nop		;# 
  9527  011E32  F000               	nop		;# 
  9528  011E34  F000               	nop		;# 
  9529  011E36  F000               	nop		;# 
  9530  011E38  F000               	nop		;# 
  9531  011E3A  F000               	nop		;# 
  9532  011E3C  F000               	nop		;# 
  9533  011E3E  F000               	nop		;# 
  9534  011E40  807B               	bsf	3963,0,c	;# 
  9535  011E42  F000               	nop		;# 
  9536  011E44  F000               	nop		;# 
  9537  011E46  907B               	bcf	3963,0,c	;# 
  9538  011E48  B6E8               	btfsc	wreg,3,c	;# 
  9539  011E4A  807B               	bsf	3963,0,c	;# 
  9540  011E4C  F000               	nop		;# 
  9541  011E4E  F000               	nop		;# 
  9542  011E50  F000               	nop		;# 
  9543  011E52  F000               	nop		;# 
  9544  011E54  F000               	nop		;# 
  9545  011E56  F000               	nop		;# 
  9546  011E58  F000               	nop		;# 
  9547  011E5A  F000               	nop		;# 
  9548  011E5C  F000               	nop		;# 
  9549  011E5E  807B               	bsf	3963,0,c	;# 
  9550  011E60  F000               	nop		;# 
  9551  011E62  F000               	nop		;# 
  9552  011E64  907B               	bcf	3963,0,c	;# 
  9553  011E66  B8E8               	btfsc	wreg,4,c	;# 
  9554  011E68  807B               	bsf	3963,0,c	;# 
  9555  011E6A  F000               	nop		;# 
  9556  011E6C  F000               	nop		;# 
  9557  011E6E  F000               	nop		;# 
  9558  011E70  F000               	nop		;# 
  9559  011E72  F000               	nop		;# 
  9560  011E74  F000               	nop		;# 
  9561  011E76  F000               	nop		;# 
  9562  011E78  F000               	nop		;# 
  9563  011E7A  F000               	nop		;# 
  9564  011E7C  807B               	bsf	3963,0,c	;# 
  9565  011E7E  F000               	nop		;# 
  9566  011E80  F000               	nop		;# 
  9567  011E82  907B               	bcf	3963,0,c	;# 
  9568  011E84  BAE8               	btfsc	wreg,5,c	;# 
  9569  011E86  807B               	bsf	3963,0,c	;# 
  9570  011E88  F000               	nop		;# 
  9571  011E8A  F000               	nop		;# 
  9572  011E8C  F000               	nop		;# 
  9573  011E8E  F000               	nop		;# 
  9574  011E90  F000               	nop		;# 
  9575  011E92  F000               	nop		;# 
  9576  011E94  F000               	nop		;# 
  9577  011E96  F000               	nop		;# 
  9578  011E98  F000               	nop		;# 
  9579  011E9A  807B               	bsf	3963,0,c	;# 
  9580  011E9C  F000               	nop		;# 
  9581  011E9E  F000               	nop		;# 
  9582  011EA0  907B               	bcf	3963,0,c	;# 
  9583  011EA2  BCE8               	btfsc	wreg,6,c	;# 
  9584  011EA4  807B               	bsf	3963,0,c	;# 
  9585  011EA6  F000               	nop		;# 
  9586  011EA8  F000               	nop		;# 
  9587  011EAA  F000               	nop		;# 
  9588  011EAC  F000               	nop		;# 
  9589  011EAE  F000               	nop		;# 
  9590  011EB0  F000               	nop		;# 
  9591  011EB2  F000               	nop		;# 
  9592  011EB4  F000               	nop		;# 
  9593  011EB6  F000               	nop		;# 
  9594  011EB8  807B               	bsf	3963,0,c	;# 
  9595  011EBA  F000               	nop		;# 
  9596  011EBC  F000               	nop		;# 
  9597  011EBE  907B               	bcf	3963,0,c	;# 
  9598  011EC0  BEE8               	btfsc	wreg,7,c	;# 
  9599  011EC2  807B               	bsf	3963,0,c	;# 
  9600  011EC4  F000               	nop		;# 
  9601  011EC6  F000               	nop		;# 
  9602  011EC8  F000               	nop		;# 
  9603  011ECA  F000               	nop		;# 
  9604  011ECC  F000               	nop		;# 
  9605  011ECE  F000               	nop		;# 
  9606  011ED0  F000               	nop		;# 
  9607  011ED2  F000               	nop		;# 
  9608  011ED4  F000               	nop		;# 
  9609  011ED6  807B               	bsf	3963,0,c	;# 
  9610  011ED8  F000               	nop		;# 
  9611  011EDA  F000               	nop		;# 
  9612  011EDC  0012               	return		;funcret
  9613  011EDE                     __end_of_ow_write_word:
  9614                           	callstack 0
  9615                           
  9616 ;; *************** function _ow_reset *****************
  9617 ;; Defined at:
  9618 ;;		line 44 in file "MAX17320.c"
  9619 ;; Parameters:    Size  Location     Type
  9620 ;;		None
  9621 ;; Auto vars:     Size  Location     Type
  9622 ;;  r               1    0[COMRAM] unsigned char 
  9623 ;; Return value:  Size  Location     Type
  9624 ;;                  1    wreg      unsigned char 
  9625 ;; Registers used:
  9626 ;;		wreg, status,2
  9627 ;; Tracked objects:
  9628 ;;		On entry : 0/0
  9629 ;;		On exit  : 0/0
  9630 ;;		Unchanged: 0/0
  9631 ;; Data sizes:     COMRAM   BANK0   BANK1   BANK2   BANK3   BANK4   BANK5   BANK6   BANK7   BANK8   BANK9  BANK10  BANK1
      +1  BANK12  BANK13
  9632 ;;      Params:         0       0       0       0       0       0       0       0       0       0       0       0       
      +0       0       0
  9633 ;;      Locals:         1       0       0       0       0       0       0       0       0       0       0       0       
      +0       0       0
  9634 ;;      Temps:          0       0       0       0       0       0       0       0       0       0       0       0       
      +0       0       0
  9635 ;;      Totals:         1       0       0       0       0       0       0       0       0       0       0       0       
      +0       0       0
  9636 ;;Total ram usage:        1 bytes
  9637 ;; Hardware stack levels used:    1
  9638 ;; This function calls:
  9639 ;;		Nothing
  9640 ;; This function is called by:
  9641 ;;		_MAX17320_read_word
  9642 ;;		_MAX17320_write_word
  9643 ;; This function uses a non-reentrant model
  9644 ;;
  9645                           
  9646                           	psect	text47
  9647  011EDE                     __ptext47:
  9648                           	callstack 0
  9649  011EDE                     _ow_reset:
  9650                           	callstack 28
  9651  011EDE                     
  9652                           ;MAX17320.c: 46:     LATCbits.LATC0 = 0;
  9653  011EDE  907B               	bcf	123,0,c	;volatile
  9654  011EE0                     
  9655                           ;MAX17320.c: 47:  __nop(); __nop(); __nop(); __nop(); __nop();__nop(); __nop(); __nop();
      +                           __nop(); __nop();
  9656  011EE0  F000               	nop	
  9657  011EE2  F000               	nop	
  9658  011EE4  F000               	nop	
  9659  011EE6  F000               	nop	
  9660  011EE8  F000               	nop	
  9661  011EEA  F000               	nop	
  9662  011EEC  F000               	nop	
  9663  011EEE  F000               	nop	
  9664  011EF0  F000               	nop	
  9665  011EF2  F000               	nop	
  9666  011EF4                     
  9667                           ;MAX17320.c: 48:  __nop(); __nop(); __nop(); __nop(); __nop();__nop(); __nop(); __nop();
      +                           __nop(); __nop();
  9668  011EF4  F000               	nop	
  9669  011EF6  F000               	nop	
  9670  011EF8  F000               	nop	
  9671  011EFA  F000               	nop	
  9672  011EFC  F000               	nop	
  9673  011EFE  F000               	nop	
  9674  011F00  F000               	nop	
  9675  011F02  F000               	nop	
  9676  011F04  F000               	nop	
  9677  011F06  F000               	nop	
  9678  011F08                     
  9679                           ;MAX17320.c: 49:  __nop(); __nop(); __nop(); __nop(); __nop();__nop(); __nop(); __nop();
      +                           __nop(); __nop();
  9680  011F08  F000               	nop	
  9681  011F0A  F000               	nop	
  9682  011F0C  F000               	nop	
  9683  011F0E  F000               	nop	
  9684  011F10  F000               	nop	
  9685  011F12  F000               	nop	
  9686  011F14  F000               	nop	
  9687  011F16  F000               	nop	
  9688  011F18  F000               	nop	
  9689  011F1A  F000               	nop	
  9690  011F1C                     
  9691                           ;MAX17320.c: 50:  __nop(); __nop(); __nop(); __nop(); __nop();__nop(); __nop(); __nop();
      +                           __nop(); __nop();
  9692  011F1C  F000               	nop	
  9693  011F1E  F000               	nop	
  9694  011F20  F000               	nop	
  9695  011F22  F000               	nop	
  9696  011F24  F000               	nop	
  9697  011F26  F000               	nop	
  9698  011F28  F000               	nop	
  9699  011F2A  F000               	nop	
  9700  011F2C  F000               	nop	
  9701  011F2E  F000               	nop	
  9702  011F30                     
  9703                           ;MAX17320.c: 51:  __nop(); __nop(); __nop(); __nop(); __nop();__nop(); __nop(); __nop();
      +                           __nop(); __nop();
  9704  011F30  F000               	nop	
  9705  011F32  F000               	nop	
  9706  011F34  F000               	nop	
  9707  011F36  F000               	nop	
  9708  011F38  F000               	nop	
  9709  011F3A  F000               	nop	
  9710  011F3C  F000               	nop	
  9711  011F3E  F000               	nop	
  9712  011F40  F000               	nop	
  9713  011F42  F000               	nop	
  9714  011F44                     
  9715                           ;MAX17320.c: 52:  __nop(); __nop(); __nop(); __nop(); __nop();__nop(); __nop(); __nop();
      +                           __nop(); __nop();
  9716  011F44  F000               	nop	
  9717  011F46  F000               	nop	
  9718  011F48  F000               	nop	
  9719  011F4A  F000               	nop	
  9720  011F4C  F000               	nop	
  9721  011F4E  F000               	nop	
  9722  011F50  F000               	nop	
  9723  011F52  F000               	nop	
  9724  011F54  F000               	nop	
  9725  011F56  F000               	nop	
  9726  011F58                     
  9727                           ;MAX17320.c: 53:  __nop(); __nop(); __nop(); __nop(); __nop();__nop(); __nop(); __nop();
      +                           __nop(); __nop();
  9728  011F58  F000               	nop	
  9729  011F5A  F000               	nop	
  9730  011F5C  F000               	nop	
  9731  011F5E  F000               	nop	
  9732  011F60  F000               	nop	
  9733  011F62  F000               	nop	
  9734  011F64  F000               	nop	
  9735  011F66  F000               	nop	
  9736  011F68  F000               	nop	
  9737  011F6A  F000               	nop	
  9738  011F6C                     
  9739                           ;MAX17320.c: 54:  __nop(); __nop(); __nop(); __nop(); __nop();__nop(); __nop(); __nop();
      +                           __nop(); __nop();
  9740  011F6C  F000               	nop	
  9741  011F6E  F000               	nop	
  9742  011F70  F000               	nop	
  9743  011F72  F000               	nop	
  9744  011F74  F000               	nop	
  9745  011F76  F000               	nop	
  9746  011F78  F000               	nop	
  9747  011F7A  F000               	nop	
  9748  011F7C  F000               	nop	
  9749  011F7E  F000               	nop	
  9750  011F80                     
  9751                           ;MAX17320.c: 55:  __nop(); __nop(); __nop(); __nop(); __nop();__nop(); __nop(); __nop();
      +                           __nop(); __nop();
  9752  011F80  F000               	nop	
  9753  011F82  F000               	nop	
  9754  011F84  F000               	nop	
  9755  011F86  F000               	nop	
  9756  011F88  F000               	nop	
  9757  011F8A  F000               	nop	
  9758  011F8C  F000               	nop	
  9759  011F8E  F000               	nop	
  9760  011F90  F000               	nop	
  9761  011F92  F000               	nop	
  9762  011F94                     
  9763                           ;MAX17320.c: 56:  __nop(); __nop(); __nop(); __nop(); __nop();__nop(); __nop(); __nop();
      +                           __nop(); __nop();
  9764  011F94  F000               	nop	
  9765  011F96  F000               	nop	
  9766  011F98  F000               	nop	
  9767  011F9A  F000               	nop	
  9768  011F9C  F000               	nop	
  9769  011F9E  F000               	nop	
  9770  011FA0  F000               	nop	
  9771  011FA2  F000               	nop	
  9772  011FA4  F000               	nop	
  9773  011FA6  F000               	nop	
  9774  011FA8                     
  9775                           ;MAX17320.c: 57:     LATCbits.LATC0 = 1;
  9776  011FA8  807B               	bsf	123,0,c	;volatile
  9777  011FAA                     
  9778                           ;MAX17320.c: 58:  __nop(); __nop(); __nop(); __nop(); __nop();__nop(); __nop(); __nop();
      +                           __nop(); __nop();
  9779  011FAA  F000               	nop	
  9780  011FAC  F000               	nop	
  9781  011FAE  F000               	nop	
  9782  011FB0  F000               	nop	
  9783  011FB2  F000               	nop	
  9784  011FB4  F000               	nop	
  9785  011FB6  F000               	nop	
  9786  011FB8  F000               	nop	
  9787  011FBA  F000               	nop	
  9788  011FBC  F000               	nop	
  9789  011FBE                     
  9790                           ;MAX17320.c: 59:  __nop(); __nop(); __nop(); __nop(); __nop();__nop();
  9791  011FBE  F000               	nop	
  9792  011FC0  F000               	nop	
  9793  011FC2  F000               	nop	
  9794  011FC4  F000               	nop	
  9795  011FC6  F000               	nop	
  9796  011FC8  F000               	nop	
  9797                           
  9798                           ;MAX17320.c: 60:     r = !PORTCbits.RC0;
  9799  011FCA  A08B               	btfss	139,0,c	;volatile
  9800  011FCC  EFEA  F08F         	goto	u3001
  9801  011FD0  EFED  F08F         	goto	u3000
  9802  011FD4                     u3001:
  9803  011FD4  0E01               	movlw	1
  9804  011FD6  EFEE  F08F         	goto	u3010
  9805  011FDA                     u3000:
  9806  011FDA  0E00               	movlw	0
  9807  011FDC                     u3010:
  9808  011FDC  6E01               	movwf	ow_reset@r^0,c
  9809  011FDE                     
  9810                           ;MAX17320.c: 61:  __nop(); __nop(); __nop(); __nop(); __nop();__nop(); __nop(); __nop();
      +                           __nop(); __nop();
  9811  011FDE  F000               	nop	
  9812  011FE0  F000               	nop	
  9813  011FE2  F000               	nop	
  9814  011FE4  F000               	nop	
  9815  011FE6  F000               	nop	
  9816  011FE8  F000               	nop	
  9817  011FEA  F000               	nop	
  9818  011FEC  F000               	nop	
  9819  011FEE  F000               	nop	
  9820  011FF0  F000               	nop	
  9821  011FF2                     
  9822                           ;MAX17320.c: 62:  __nop(); __nop(); __nop(); __nop(); __nop();__nop(); __nop(); __nop();
      +                           __nop(); __nop();
  9823  011FF2  F000               	nop	
  9824  011FF4  F000               	nop	
  9825  011FF6  F000               	nop	
  9826  011FF8  F000               	nop	
  9827  011FFA  F000               	nop	
  9828  011FFC  F000               	nop	
  9829  011FFE  F000               	nop	
  9830  012000  F000               	nop	
  9831  012002  F000               	nop	
  9832  012004  F000               	nop	
  9833  012006                     
  9834                           ;MAX17320.c: 63:  __nop(); __nop(); __nop(); __nop(); __nop();__nop(); __nop(); __nop();
      +                           __nop(); __nop();
  9835  012006  F000               	nop	
  9836  012008  F000               	nop	
  9837  01200A  F000               	nop	
  9838  01200C  F000               	nop	
  9839  01200E  F000               	nop	
  9840  012010  F000               	nop	
  9841  012012  F000               	nop	
  9842  012014  F000               	nop	
  9843  012016  F000               	nop	
  9844  012018  F000               	nop	
  9845  01201A                     
  9846                           ;MAX17320.c: 64:  __nop(); __nop(); __nop(); __nop(); __nop();__nop(); __nop(); __nop();
      +                           __nop(); __nop();
  9847  01201A  F000               	nop	
  9848  01201C  F000               	nop	
  9849  01201E  F000               	nop	
  9850  012020  F000               	nop	
  9851  012022  F000               	nop	
  9852  012024  F000               	nop	
  9853  012026  F000               	nop	
  9854  012028  F000               	nop	
  9855  01202A  F000               	nop	
  9856  01202C  F000               	nop	
  9857  01202E                     
  9858                           ;MAX17320.c: 65:  __nop(); __nop(); __nop(); __nop(); __nop();__nop(); __nop(); __nop();
      +                           __nop(); __nop();
  9859  01202E  F000               	nop	
  9860  012030  F000               	nop	
  9861  012032  F000               	nop	
  9862  012034  F000               	nop	
  9863  012036  F000               	nop	
  9864  012038  F000               	nop	
  9865  01203A  F000               	nop	
  9866  01203C  F000               	nop	
  9867  01203E  F000               	nop	
  9868  012040  F000               	nop	
  9869  012042                     
  9870                           ;MAX17320.c: 66:  __nop(); __nop(); __nop(); __nop(); __nop();__nop(); __nop(); __nop();
      +                           __nop(); __nop();
  9871  012042  F000               	nop	
  9872  012044  F000               	nop	
  9873  012046  F000               	nop	
  9874  012048  F000               	nop	
  9875  01204A  F000               	nop	
  9876  01204C  F000               	nop	
  9877  01204E  F000               	nop	
  9878  012050  F000               	nop	
  9879  012052  F000               	nop	
  9880  012054  F000               	nop	
  9881  012056                     
  9882                           ;MAX17320.c: 67:  __nop(); __nop(); __nop(); __nop(); __nop();__nop(); __nop(); __nop();
      +                           __nop(); __nop();
  9883  012056  F000               	nop	
  9884  012058  F000               	nop	
  9885  01205A  F000               	nop	
  9886  01205C  F000               	nop	
  9887  01205E  F000               	nop	
  9888  012060  F000               	nop	
  9889  012062  F000               	nop	
  9890  012064  F000               	nop	
  9891  012066  F000               	nop	
  9892  012068  F000               	nop	
  9893  01206A                     
  9894                           ;MAX17320.c: 68:  __nop(); __nop(); __nop(); __nop(); __nop();__nop(); __nop(); __nop();
      +                           __nop(); __nop();
  9895  01206A  F000               	nop	
  9896  01206C  F000               	nop	
  9897  01206E  F000               	nop	
  9898  012070  F000               	nop	
  9899  012072  F000               	nop	
  9900  012074  F000               	nop	
  9901  012076  F000               	nop	
  9902  012078  F000               	nop	
  9903  01207A  F000               	nop	
  9904  01207C  F000               	nop	
  9905  01207E                     
  9906                           ;MAX17320.c: 69:  __nop(); __nop(); __nop(); __nop(); __nop();__nop(); __nop(); __nop();
      +                           __nop(); __nop();
  9907  01207E  F000               	nop	
  9908  012080  F000               	nop	
  9909  012082  F000               	nop	
  9910  012084  F000               	nop	
  9911  012086  F000               	nop	
  9912  012088  F000               	nop	
  9913  01208A  F000               	nop	
  9914  01208C  F000               	nop	
  9915  01208E  F000               	nop	
  9916  012090  F000               	nop	
  9917                           
  9918                           ;MAX17320.c: 70:     return r;
  9919  012092  5001               	movf	ow_reset@r^0,w,c
  9920  012094  0012               	return		;funcret
  9921  012096                     __end_of_ow_reset:
  9922                           	callstack 0
  9923                           
  9924 ;; *************** function _ow_read_word *****************
  9925 ;; Defined at:
  9926 ;;		line 99 in file "MAX17320.c"
  9927 ;; Parameters:    Size  Location     Type
  9928 ;;		None
  9929 ;; Auto vars:     Size  Location     Type
  9930 ;;  L               1    5[COMRAM] unsigned char 
  9931 ;;  H               1    4[COMRAM] unsigned char 
  9932 ;; Return value:  Size  Location     Type
  9933 ;;                  2    0[COMRAM] unsigned short 
  9934 ;; Registers used:
  9935 ;;		wreg, status,2, status,0
  9936 ;; Tracked objects:
  9937 ;;		On entry : 0/0
  9938 ;;		On exit  : 0/0
  9939 ;;		Unchanged: 0/0
  9940 ;; Data sizes:     COMRAM   BANK0   BANK1   BANK2   BANK3   BANK4   BANK5   BANK6   BANK7   BANK8   BANK9  BANK10  BANK1
      +1  BANK12  BANK13
  9941 ;;      Params:         2       0       0       0       0       0       0       0       0       0       0       0       
      +0       0       0
  9942 ;;      Locals:         2       0       0       0       0       0       0       0       0       0       0       0       
      +0       0       0
  9943 ;;      Temps:          2       0       0       0       0       0       0       0       0       0       0       0       
      +0       0       0
  9944 ;;      Totals:         6       0       0       0       0       0       0       0       0       0       0       0       
      +0       0       0
  9945 ;;Total ram usage:        6 bytes
  9946 ;; Hardware stack levels used:    1
  9947 ;; This function calls:
  9948 ;;		Nothing
  9949 ;; This function is called by:
  9950 ;;		_MAX17320_read_word
  9951 ;; This function uses a non-reentrant model
  9952 ;;
  9953                           
  9954                           	psect	text48
  9955  011AD4                     __ptext48:
  9956                           	callstack 0
  9957  011AD4                     _ow_read_word:
  9958                           	callstack 28
  9959  011AD4                     
  9960                           ;MAX17320.c: 100:     unsigned char H;;MAX17320.c: 101:     unsigned char L;;MAX17320.c:
      +                           103:  WREG = 0;
  9961  011AD4  0E00               	movlw	0
  9962  011AD6  6EE8               	movwf	232,c	;volatile
  9963  011AD8  907B               	bcf	3963,0,c	;# 
  9964  011ADA  F000               	nop	
  9965  011ADC  807B               	bsf	3963,0,c	;# 
  9966  011ADE  F000               	nop	
  9967  011AE0  B08B               	btfsc	3979,0,c	;# 
  9968  011AE2  80E8               	bsf	wreg,0,c	;# 
  9969  011AE4  F000               	nop	
  9970  011AE6  F000               	nop	
  9971  011AE8  F000               	nop	
  9972  011AEA  F000               	nop	
  9973  011AEC  F000               	nop	
  9974  011AEE  F000               	nop	
  9975  011AF0  F000               	nop	
  9976  011AF2                     Loop0:
  9977                           
  9978                           ;# 
  9979  011AF2  A08B               	btfss	3979,0,c	;# 
  9980  011AF4  EF79  F08D         	goto	Loop0	;# 
  9981  011AF8  907B               	bcf	3963,0,c	;# 
  9982  011AFA  F000               	nop	
  9983  011AFC  807B               	bsf	3963,0,c	;# 
  9984  011AFE  F000               	nop	
  9985  011B00  B08B               	btfsc	3979,0,c	;# 
  9986  011B02  82E8               	bsf	wreg,1,c	;# 
  9987  011B04  F000               	nop	
  9988  011B06  F000               	nop	
  9989  011B08  F000               	nop	
  9990  011B0A  F000               	nop	
  9991  011B0C  F000               	nop	
  9992  011B0E  F000               	nop	
  9993  011B10  F000               	nop	
  9994  011B12                     Loop1:
  9995                           
  9996                           ;# 
  9997  011B12  A08B               	btfss	3979,0,c	;# 
  9998  011B14  EF89  F08D         	goto	Loop1	;# 
  9999  011B18  907B               	bcf	3963,0,c	;# 
 10000  011B1A  F000               	nop	
 10001  011B1C  807B               	bsf	3963,0,c	;# 
 10002  011B1E  F000               	nop	
 10003  011B20  B08B               	btfsc	3979,0,c	;# 
 10004  011B22  84E8               	bsf	wreg,2,c	;# 
 10005  011B24  F000               	nop	
 10006  011B26  F000               	nop	
 10007  011B28  F000               	nop	
 10008  011B2A  F000               	nop	
 10009  011B2C  F000               	nop	
 10010  011B2E  F000               	nop	
 10011  011B30  F000               	nop	
 10012  011B32                     Loop2:
 10013                           
 10014                           ;# 
 10015  011B32  A08B               	btfss	3979,0,c	;# 
 10016  011B34  EF99  F08D         	goto	Loop2	;# 
 10017  011B38  907B               	bcf	3963,0,c	;# 
 10018  011B3A  F000               	nop	
 10019  011B3C  807B               	bsf	3963,0,c	;# 
 10020  011B3E  F000               	nop	
 10021  011B40  B08B               	btfsc	3979,0,c	;# 
 10022  011B42  86E8               	bsf	wreg,3,c	;# 
 10023  011B44  F000               	nop	
 10024  011B46  F000               	nop	
 10025  011B48  F000               	nop	
 10026  011B4A  F000               	nop	
 10027  011B4C  F000               	nop	
 10028  011B4E  F000               	nop	
 10029  011B50  F000               	nop	
 10030  011B52                     Loop3:
 10031                           
 10032                           ;# 
 10033  011B52  A08B               	btfss	3979,0,c	;# 
 10034  011B54  EFA9  F08D         	goto	Loop3	;# 
 10035  011B58  907B               	bcf	3963,0,c	;# 
 10036  011B5A  F000               	nop	
 10037  011B5C  807B               	bsf	3963,0,c	;# 
 10038  011B5E  F000               	nop	
 10039  011B60  B08B               	btfsc	3979,0,c	;# 
 10040  011B62  88E8               	bsf	wreg,4,c	;# 
 10041  011B64  F000               	nop	
 10042  011B66  F000               	nop	
 10043  011B68  F000               	nop	
 10044  011B6A  F000               	nop	
 10045  011B6C  F000               	nop	
 10046  011B6E  F000               	nop	
 10047  011B70  F000               	nop	
 10048  011B72                     Loop4:
 10049                           
 10050                           ;# 
 10051  011B72  A08B               	btfss	3979,0,c	;# 
 10052  011B74  EFB9  F08D         	goto	Loop4	;# 
 10053  011B78  907B               	bcf	3963,0,c	;# 
 10054  011B7A  F000               	nop	
 10055  011B7C  807B               	bsf	3963,0,c	;# 
 10056  011B7E  F000               	nop	
 10057  011B80  B08B               	btfsc	3979,0,c	;# 
 10058  011B82  8AE8               	bsf	wreg,5,c	;# 
 10059  011B84  F000               	nop	
 10060  011B86  F000               	nop	
 10061  011B88  F000               	nop	
 10062  011B8A  F000               	nop	
 10063  011B8C  F000               	nop	
 10064  011B8E  F000               	nop	
 10065  011B90  F000               	nop	
 10066  011B92                     Loop5:
 10067                           
 10068                           ;# 
 10069  011B92  A08B               	btfss	3979,0,c	;# 
 10070  011B94  EFC9  F08D         	goto	Loop5	;# 
 10071  011B98  907B               	bcf	3963,0,c	;# 
 10072  011B9A  F000               	nop	
 10073  011B9C  807B               	bsf	3963,0,c	;# 
 10074  011B9E  F000               	nop	
 10075  011BA0  B08B               	btfsc	3979,0,c	;# 
 10076  011BA2  8CE8               	bsf	wreg,6,c	;# 
 10077  011BA4  F000               	nop	
 10078  011BA6  F000               	nop	
 10079  011BA8  F000               	nop	
 10080  011BAA  F000               	nop	
 10081  011BAC  F000               	nop	
 10082  011BAE  F000               	nop	
 10083  011BB0  F000               	nop	
 10084  011BB2                     Loop6:
 10085                           
 10086                           ;# 
 10087  011BB2  A08B               	btfss	3979,0,c	;# 
 10088  011BB4  EFD9  F08D         	goto	Loop6	;# 
 10089  011BB8  907B               	bcf	3963,0,c	;# 
 10090  011BBA  F000               	nop	
 10091  011BBC  807B               	bsf	3963,0,c	;# 
 10092  011BBE  F000               	nop	
 10093  011BC0  B08B               	btfsc	3979,0,c	;# 
 10094  011BC2  8EE8               	bsf	wreg,7,c	;# 
 10095  011BC4  F000               	nop	
 10096  011BC6  F000               	nop	
 10097  011BC8  F000               	nop	
 10098  011BCA  F000               	nop	
 10099  011BCC  F000               	nop	
 10100  011BCE  F000               	nop	
 10101  011BD0  F000               	nop	
 10102  011BD2                     Loop7:
 10103                           
 10104                           ;# 
 10105  011BD2  A08B               	btfss	3979,0,c	;# 
 10106  011BD4  EFE9  F08D         	goto	Loop7	;# 
 10107  011BD8                     
 10108                           ;MAX17320.c: 106:  L = WREG;
 10109  011BD8  6E06               	movwf	ow_read_word@L^0,c
 10110  011BDA                     
 10111                           ;MAX17320.c: 108:  WREG = 0;
 10112  011BDA  0E00               	movlw	0
 10113  011BDC  6EE8               	movwf	232,c	;volatile
 10114  011BDE  907B               	bcf	3963,0,c	;# 
 10115  011BE0  F000               	nop	
 10116  011BE2  807B               	bsf	3963,0,c	;# 
 10117  011BE4  F000               	nop	
 10118  011BE6  B08B               	btfsc	3979,0,c	;# 
 10119  011BE8  80E8               	bsf	wreg,0,c	;# 
 10120  011BEA  F000               	nop	
 10121  011BEC  F000               	nop	
 10122  011BEE  F000               	nop	
 10123  011BF0  F000               	nop	
 10124  011BF2  F000               	nop	
 10125  011BF4  F000               	nop	
 10126  011BF6  F000               	nop	
 10127  011BF8                     Loop8:
 10128                           
 10129                           ;# 
 10130  011BF8  A08B               	btfss	3979,0,c	;# 
 10131  011BFA  EFFC  F08D         	goto	Loop8	;# 
 10132  011BFE  907B               	bcf	3963,0,c	;# 
 10133  011C00  F000               	nop	
 10134  011C02  807B               	bsf	3963,0,c	;# 
 10135  011C04  F000               	nop	
 10136  011C06  B08B               	btfsc	3979,0,c	;# 
 10137  011C08  82E8               	bsf	wreg,1,c	;# 
 10138  011C0A  F000               	nop	
 10139  011C0C  F000               	nop	
 10140  011C0E  F000               	nop	
 10141  011C10  F000               	nop	
 10142  011C12  F000               	nop	
 10143  011C14  F000               	nop	
 10144  011C16  F000               	nop	
 10145  011C18                     Loop9:
 10146                           
 10147                           ;# 
 10148  011C18  A08B               	btfss	3979,0,c	;# 
 10149  011C1A  EF0C  F08E         	goto	Loop9	;# 
 10150  011C1E  907B               	bcf	3963,0,c	;# 
 10151  011C20  F000               	nop	
 10152  011C22  807B               	bsf	3963,0,c	;# 
 10153  011C24  F000               	nop	
 10154  011C26  B08B               	btfsc	3979,0,c	;# 
 10155  011C28  84E8               	bsf	wreg,2,c	;# 
 10156  011C2A  F000               	nop	
 10157  011C2C  F000               	nop	
 10158  011C2E  F000               	nop	
 10159  011C30  F000               	nop	
 10160  011C32  F000               	nop	
 10161  011C34  F000               	nop	
 10162  011C36  F000               	nop	
 10163  011C38                     Loop10:
 10164                           
 10165                           ;# 
 10166  011C38  A08B               	btfss	3979,0,c	;# 
 10167  011C3A  EF1C  F08E         	goto	Loop10	;# 
 10168  011C3E  907B               	bcf	3963,0,c	;# 
 10169  011C40  F000               	nop	
 10170  011C42  807B               	bsf	3963,0,c	;# 
 10171  011C44  F000               	nop	
 10172  011C46  B08B               	btfsc	3979,0,c	;# 
 10173  011C48  86E8               	bsf	wreg,3,c	;# 
 10174  011C4A  F000               	nop	
 10175  011C4C  F000               	nop	
 10176  011C4E  F000               	nop	
 10177  011C50  F000               	nop	
 10178  011C52  F000               	nop	
 10179  011C54  F000               	nop	
 10180  011C56  F000               	nop	
 10181  011C58                     Loop11:
 10182                           
 10183                           ;# 
 10184  011C58  A08B               	btfss	3979,0,c	;# 
 10185  011C5A  EF2C  F08E         	goto	Loop11	;# 
 10186  011C5E  907B               	bcf	3963,0,c	;# 
 10187  011C60  F000               	nop	
 10188  011C62  807B               	bsf	3963,0,c	;# 
 10189  011C64  F000               	nop	
 10190  011C66  B08B               	btfsc	3979,0,c	;# 
 10191  011C68  88E8               	bsf	wreg,4,c	;# 
 10192  011C6A  F000               	nop	
 10193  011C6C  F000               	nop	
 10194  011C6E  F000               	nop	
 10195  011C70  F000               	nop	
 10196  011C72  F000               	nop	
 10197  011C74  F000               	nop	
 10198  011C76  F000               	nop	
 10199  011C78                     Loop12:
 10200                           
 10201                           ;# 
 10202  011C78  A08B               	btfss	3979,0,c	;# 
 10203  011C7A  EF3C  F08E         	goto	Loop12	;# 
 10204  011C7E  907B               	bcf	3963,0,c	;# 
 10205  011C80  F000               	nop	
 10206  011C82  807B               	bsf	3963,0,c	;# 
 10207  011C84  F000               	nop	
 10208  011C86  B08B               	btfsc	3979,0,c	;# 
 10209  011C88  8AE8               	bsf	wreg,5,c	;# 
 10210  011C8A  F000               	nop	
 10211  011C8C  F000               	nop	
 10212  011C8E  F000               	nop	
 10213  011C90  F000               	nop	
 10214  011C92  F000               	nop	
 10215  011C94  F000               	nop	
 10216  011C96  F000               	nop	
 10217  011C98                     Loop13:
 10218                           
 10219                           ;# 
 10220  011C98  A08B               	btfss	3979,0,c	;# 
 10221  011C9A  EF4C  F08E         	goto	Loop13	;# 
 10222  011C9E  907B               	bcf	3963,0,c	;# 
 10223  011CA0  F000               	nop	
 10224  011CA2  807B               	bsf	3963,0,c	;# 
 10225  011CA4  F000               	nop	
 10226  011CA6  B08B               	btfsc	3979,0,c	;# 
 10227  011CA8  8CE8               	bsf	wreg,6,c	;# 
 10228  011CAA  F000               	nop	
 10229  011CAC  F000               	nop	
 10230  011CAE  F000               	nop	
 10231  011CB0  F000               	nop	
 10232  011CB2  F000               	nop	
 10233  011CB4  F000               	nop	
 10234  011CB6  F000               	nop	
 10235  011CB8                     Loop14:
 10236                           
 10237                           ;# 
 10238  011CB8  A08B               	btfss	3979,0,c	;# 
 10239  011CBA  EF5C  F08E         	goto	Loop14	;# 
 10240  011CBE  907B               	bcf	3963,0,c	;# 
 10241  011CC0  F000               	nop	
 10242  011CC2  807B               	bsf	3963,0,c	;# 
 10243  011CC4  F000               	nop	
 10244  011CC6  B08B               	btfsc	3979,0,c	;# 
 10245  011CC8  8EE8               	bsf	wreg,7,c	;# 
 10246  011CCA  F000               	nop	
 10247  011CCC  F000               	nop	
 10248  011CCE  F000               	nop	
 10249  011CD0  F000               	nop	
 10250  011CD2  F000               	nop	
 10251  011CD4  F000               	nop	
 10252  011CD6  F000               	nop	
 10253  011CD8                     Loop15:
 10254                           
 10255                           ;# 
 10256  011CD8  A08B               	btfss	3979,0,c	;# 
 10257  011CDA  EF6C  F08E         	goto	Loop15	;# 
 10258                           
 10259                           ;MAX17320.c: 111:  H = WREG;
 10260  011CDE  6E05               	movwf	ow_read_word@H^0,c
 10261  011CE0                     
 10262                           ;MAX17320.c: 113:     return ((H<<8) | L);
 10263  011CE0  5006               	movf	ow_read_word@L^0,w,c
 10264  011CE2  C005  F003         	movff	ow_read_word@H,??_ow_read_word
 10265  011CE6  6A04               	clrf	(??_ow_read_word+1)^0,c
 10266  011CE8  C003  F004         	movff	??_ow_read_word,??_ow_read_word+1
 10267  011CEC  6A03               	clrf	??_ow_read_word^0,c
 10268  011CEE  1003               	iorwf	??_ow_read_word^0,w,c
 10269  011CF0  6E01               	movwf	?_ow_read_word^0,c
 10270  011CF2  5004               	movf	(??_ow_read_word+1)^0,w,c
 10271  011CF4  6E02               	movwf	(?_ow_read_word+1)^0,c
 10272  011CF6  0012               	return		;funcret
 10273  011CF8                     __end_of_ow_read_word:
 10274                           	callstack 0
 10275                           
 10276                           	psect	rparam
 10277  0000                     
 10278                           	psect	idloc
 10279                           
 10280                           ;Config register IDLOC0 @ 0x200000
 10281                           ;	unspecified, using default values
 10282  200000                     	org	2097152
 10283  200000  0FFF               	dw	4095
 10284                           
 10285                           ;Config register IDLOC1 @ 0x200002
 10286                           ;	unspecified, using default values
 10287  200002                     	org	2097154
 10288  200002  0FFF               	dw	4095
 10289                           
 10290                           ;Config register IDLOC2 @ 0x200004
 10291                           ;	unspecified, using default values
 10292  200004                     	org	2097156
 10293  200004  0FFF               	dw	4095
 10294                           
 10295                           ;Config register IDLOC3 @ 0x200006
 10296                           ;	unspecified, using default values
 10297  200006                     	org	2097158
 10298  200006  0FFF               	dw	4095
 10299                           
 10300                           ;Config register IDLOC4 @ 0x200008
 10301                           ;	unspecified, using default values
 10302  200008                     	org	2097160
 10303  200008  0FFF               	dw	4095
 10304                           
 10305                           ;Config register IDLOC5 @ 0x20000A
 10306                           ;	unspecified, using default values
 10307  20000A                     	org	2097162
 10308  20000A  0FFF               	dw	4095
 10309                           
 10310                           ;Config register IDLOC6 @ 0x20000C
 10311                           ;	unspecified, using default values
 10312  20000C                     	org	2097164
 10313  20000C  0FFF               	dw	4095
 10314                           
 10315                           ;Config register IDLOC7 @ 0x20000E
 10316                           ;	unspecified, using default values
 10317  20000E                     	org	2097166
 10318  20000E  0FFF               	dw	4095
 10319                           
 10320                           	psect	config
 10321                           
 10322                           ;Config register CONFIG1L @ 0x300000
 10323                           ;	External Oscillator mode Selection bits
 10324                           ;	FEXTOSC = OFF, Oscillator not enabled
 10325                           ;	Power-up default value for COSC bits
 10326                           ;	RSTOSC = HFINTOSC_1MHZ, HFINTOSC with HFFRQ = 4 MHz and CDIV = 4:1
 10327  300000                     	org	3145728
 10328  300000  EC                 	db	236
 10329                           
 10330                           ;Config register CONFIG1H @ 0x300001
 10331                           ;	Clock Out Enable bit
 10332                           ;	CLKOUTEN = OFF, CLKOUT function is disabled
 10333                           ;	Clock Switch Enable bit
 10334                           ;	CSWEN = ON, Writing to NOSC and NDIV is allowed
 10335                           ;	Fail-Safe Clock Monitor Enable bit
 10336                           ;	FCMEN = OFF, Fail-Safe Clock Monitor disabled
 10337  300001                     	org	3145729
 10338  300001  DF                 	db	223
 10339                           
 10340                           ;Config register CONFIG2L @ 0x300002
 10341                           ;	Master Clear Enable bit
 10342                           ;	MCLRE = EXTMCLR, If LVP = 0, MCLR pin is MCLR; If LVP = 1, RG5 pin function is MCLR
 10343                           ;	Power-up Timer Enable bit
 10344                           ;	PWRTE = OFF, Power up timer disabled
 10345                           ;	Low-power BOR enable bit
 10346                           ;	LPBOREN = ON, ULPBOR enabled
 10347                           ;	Brown-out Reset Enable bits
 10348                           ;	BOREN = OFF, Brown-out Reset disabled
 10349  300002                     	org	3145730
 10350  300002  1F                 	db	31
 10351                           
 10352                           ;Config register CONFIG2H @ 0x300003
 10353                           ;	Brown Out Reset Voltage selection bits
 10354                           ;	BORV = VBOR_190, Brown-out Reset Voltage (VBOR) set to 1.90V
 10355                           ;	ZCD Disable bit
 10356                           ;	ZCD = OFF, ZCD disabled. ZCD can be enabled by setting the ZCDSEN bit of ZCDCON
 10357                           ;	PPSLOCK bit One-Way Set Enable bit
 10358                           ;	PPS1WAY = OFF, PPSLOCK bit can be set and cleared repeatedly (subject to the unlock se
      +                          quence)
 10359                           ;	Stack Full/Underflow Reset Enable bit
 10360                           ;	STVREN = ON, Stack full/underflow will cause Reset
 10361                           ;	Debugger Enable bit
 10362                           ;	DEBUG = OFF, Background debugger disabled
 10363                           ;	Extended Instruction Set Enable bit
 10364                           ;	XINST = OFF, Extended Instruction Set and Indexed Addressing Mode disabled
 10365  300003                     	org	3145731
 10366  300003  F7                 	db	247
 10367                           
 10368                           ;Config register CONFIG3L @ 0x300004
 10369                           ;	WDT Period Select bits
 10370                           ;	WDTCPS = WDTCPS_31, Divider ratio 1:65536; software control of WDTPS
 10371                           ;	WDT operating mode
 10372                           ;	WDTE = OFF, WDT Disabled
 10373  300004                     	org	3145732
 10374  300004  9F                 	db	159
 10375                           
 10376                           ;Config register CONFIG3H @ 0x300005
 10377                           ;	WDT Window Select bits
 10378                           ;	WDTCWS = WDTCWS_7, window always open (100%); software control; keyed access not requi
      +                          red
 10379                           ;	WDT input clock selector
 10380                           ;	WDTCCS = SC, Software Control
 10381  300005                     	org	3145733
 10382  300005  FF                 	db	255
 10383                           
 10384                           ;Config register CONFIG4L @ 0x300006
 10385                           ;	Write Protection Block 0
 10386                           ;	WRT0 = OFF, Block 0 (000800-003FFFh) not write-protected
 10387                           ;	Write Protection Block 1
 10388                           ;	WRT1 = OFF, Block 1 (004000-007FFFh) not write-protected
 10389                           ;	Write Protection Block 2
 10390                           ;	WRT2 = OFF, Block 2 (008000-00BFFFh) not write-protected
 10391                           ;	Write Protection Block 3
 10392                           ;	WRT3 = OFF, Block 3 (00C000-00FFFFh) not write-protected
 10393                           ;	Write Protection Block 3
 10394                           ;	WRT4 = OFF, Block 4 (010000-013FFFh) not write-protected
 10395                           ;	Write Protection Block 3
 10396                           ;	WRT5 = OFF, Block 5 (014000-017FFFh) not write-protected
 10397                           ;	Write Protection Block 3
 10398                           ;	WRT6 = OFF, Block 6 (018000-01BFFFh) not write-protected
 10399                           ;	Write Protection Block 3
 10400                           ;	WRT7 = OFF, Block 7 (01C000-01FFFFh) not write-protected
 10401  300006                     	org	3145734
 10402  300006  FF                 	db	255
 10403                           
 10404                           ;Config register CONFIG4H @ 0x300007
 10405                           ;	Configuration Register Write Protection bit
 10406                           ;	WRTC = ON, Configuration registers (300000-30000Bh) write-protected
 10407                           ;	Boot Block Write Protection bit
 10408                           ;	WRTB = ON, Boot Block (000000-0007FFh) write-protected
 10409                           ;	Data EEPROM Write Protection bit
 10410                           ;	WRTD = OFF, Data EEPROM not write-protected
 10411                           ;	Scanner Enable bit
 10412                           ;	SCANE = OFF, Scanner module is NOT available for use, SCANMD bit is ignored
 10413                           ;	Low Voltage Programming Enable bit
 10414                           ;	LVP = OFF, HV on MCLR/VPP must be used for programming
 10415  300007                     	org	3145735
 10416  300007  CC                 	db	204
 10417                           
 10418                           ;Config register CONFIG5L @ 0x300008
 10419                           ;	UserNVM Program Memory Code Protection bit
 10420                           ;	CP = OFF, UserNVM code protection disabled
 10421                           ;	DataNVM Memory Code Protection bit
 10422                           ;	CPD = OFF, DataNVM code protection disabled
 10423  300008                     	org	3145736
 10424  300008  FF                 	db	255
 10425                           
 10426                           ;Config register CONFIG5H @ 0x300009
 10427                           ;	unspecified, using default values
 10428  300009                     	org	3145737
 10429  300009  FF                 	db	255
 10430                           
 10431                           ;Config register CONFIG6L @ 0x30000A
 10432                           ;	Table Read Protection Block 0
 10433                           ;	EBTR0 = OFF, Block 0 (000800-003FFFh) not protected from table reads executed in other
      +                           blocks
 10434                           ;	Table Read Protection Block 1
 10435                           ;	EBTR1 = OFF, Block 1 (004000-007FFFh) not protected from table reads executed in other
      +                           blocks
 10436                           ;	Table Read Protection Block 2
 10437                           ;	EBTR2 = OFF, Block 2 (008000-00BFFFh) not protected from table reads executed in other
      +                           blocks
 10438                           ;	Table Read Protection Block 3
 10439                           ;	EBTR3 = OFF, Block 3 (00C000-00FFFFh) not protected from table reads executed in other
      +                           blocks
 10440                           ;	Table Read Protection Block 4
 10441                           ;	EBTR4 = OFF, Block 4 (010000-013FFFh) not protected from table reads executed in other
      +                           blocks
 10442                           ;	Table Read Protection Block 5
 10443                           ;	EBTR5 = OFF, Block 5 (014000-017FFFh) not protected from table reads executed in other
      +                           blocks
 10444                           ;	Table Read Protection Block 6
 10445                           ;	EBTR6 = OFF, Block 6 (018000-01BFFFh) not protected from table reads executed in other
      +                           blocks
 10446                           ;	Table Read Protection Block 7
 10447                           ;	EBTR7 = OFF, Block 7 (01C000-01FFFFh) not protected from table reads executed in other
      +                           blocks
 10448  30000A                     	org	3145738
 10449  30000A  FF                 	db	255
 10450                           
 10451                           ;Config register CONFIG6H @ 0x30000B
 10452                           ;	Boot Block Table Read Protection bit
 10453                           ;	EBTRB = OFF, Boot Block (000000-0007FFh) not protected from table reads executed in ot
      +                          her blocks
 10454  30000B                     	org	3145739
 10455  30000B  FF                 	db	255
 10456                           tosu	equ	0xFFF
 10457                           tosh	equ	0xFFE
 10458                           tosl	equ	0xFFD
 10459                           stkptr	equ	0xFFC
 10460                           pclatu	equ	0xFFB
 10461                           pclath	equ	0xFFA
 10462                           pcl	equ	0xFF9
 10463                           tblptru	equ	0xFF8
 10464                           tblptrh	equ	0xFF7
 10465                           tblptrl	equ	0xFF6
 10466                           tablat	equ	0xFF5
 10467                           prodh	equ	0xFF4
 10468                           prodl	equ	0xFF3
 10469                           indf0	equ	0xFEF
 10470                           postinc0	equ	0xFEE
 10471                           postdec0	equ	0xFED
 10472                           preinc0	equ	0xFEC
 10473                           plusw0	equ	0xFEB
 10474                           fsr0h	equ	0xFEA
 10475                           fsr0l	equ	0xFE9
 10476                           wreg	equ	0xFE8
 10477                           indf1	equ	0xFE7
 10478                           postinc1	equ	0xFE6
 10479                           postdec1	equ	0xFE5
 10480                           preinc1	equ	0xFE4
 10481                           plusw1	equ	0xFE3
 10482                           fsr1h	equ	0xFE2
 10483                           fsr1l	equ	0xFE1
 10484                           bsr	equ	0xFE0
 10485                           indf2	equ	0xFDF
 10486                           postinc2	equ	0xFDE
 10487                           postdec2	equ	0xFDD
 10488                           preinc2	equ	0xFDC
 10489                           plusw2	equ	0xFDB
 10490                           fsr2h	equ	0xFDA
 10491                           fsr2l	equ	0xFD9
 10492                           status	equ	0xFD8

Data Sizes:
    Strings     987
    Constant    0
    Data        11
    BSS         40
    Persistent  0
    Stack       0

Auto Spaces:
    Space          Size  Autos    Used
    COMRAM           95     94      94
    BANK0           160     30      81
    BANK1           256      0       0
    BANK2           256      0       0
    BANK3           256      0       0
    BANK4           256      0       0
    BANK5           256      0       0
    BANK6           256      0       0
    BANK7           256      0       0
    BANK8           256      0       0
    BANK9           256      0       0
    BANK10          256      0       0
    BANK11          256      0       0
    BANK12          256      0       0
    BANK13          234      0       0

Pointer List with Targets:

    strlen@s	PTR const unsigned char  size(2) Largest target is 32
		 -> dbuf(BANK0[32]), 

    strlen@a	PTR const unsigned char  size(2) Largest target is 32
		 -> dbuf(BANK0[32]), 

    fputs@s	PTR const unsigned char  size(2) Largest target is 32
		 -> dbuf(BANK0[32]), 

    fputs@fp	PTR struct _IO_FILE size(2) Largest target is 0
		 -> NULL(NULL[0]), 

    S1545_IO_FILE$buffer	PTR unsigned char  size(2) Largest target is 0

    fputc@fp.buffer	PTR unsigned char  size(2) Largest target is 0

    fputc@fp	PTR struct _IO_FILE size(2) Largest target is 0
		 -> NULL(NULL[0]), 

    atoi@s	PTR const unsigned char  size(2) Largest target is 30
		 -> STR_51(CODE[30]), STR_50(CODE[30]), STR_49(CODE[22]), STR_48(CODE[22]), 
		 -> STR_47(CODE[22]), STR_46(CODE[11]), STR_45(CODE[18]), STR_44(CODE[18]), 
		 -> STR_43(CODE[18]), STR_42(CODE[18]), STR_41(CODE[18]), STR_40(CODE[18]), 
		 -> STR_39(CODE[18]), STR_38(CODE[18]), STR_37(CODE[18]), STR_36(CODE[18]), 
		 -> STR_35(CODE[18]), STR_34(CODE[18]), STR_33(CODE[18]), STR_32(CODE[18]), 
		 -> STR_31(CODE[18]), STR_30(CODE[28]), STR_29(CODE[28]), STR_28(CODE[28]), 
		 -> STR_27(CODE[18]), STR_26(CODE[6]), STR_25(CODE[17]), STR_24(CODE[17]), 
		 -> STR_23(CODE[26]), STR_22(CODE[26]), STR_21(CODE[26]), STR_20(CODE[28]), 
		 -> STR_19(CODE[26]), STR_18(CODE[26]), STR_17(CODE[26]), STR_16(CODE[26]), 
		 -> STR_15(CODE[26]), STR_14(CODE[26]), STR_13(CODE[26]), STR_12(CODE[26]), 
		 -> STR_11(CODE[27]), STR_10(CODE[27]), STR_9(CODE[17]), STR_8(CODE[17]), 
		 -> STR_7(CODE[17]), STR_6(CODE[17]), STR_5(CODE[17]), STR_4(CODE[17]), 
		 -> STR_3(CODE[17]), STR_2(CODE[6]), STR_1(CODE[6]), 

    vfprintf@ap	PTR PTR void  size(2) Largest target is 2
		 -> printf@ap(BANK0[2]), 

    vfprintf@fp	PTR struct _IO_FILE size(2) Largest target is 0
		 -> NULL(NULL[0]), 

    vfprintf@fmt	PTR const unsigned char  size(2) Largest target is 30
		 -> STR_51(CODE[30]), STR_50(CODE[30]), STR_49(CODE[22]), STR_48(CODE[22]), 
		 -> STR_47(CODE[22]), STR_46(CODE[11]), STR_45(CODE[18]), STR_44(CODE[18]), 
		 -> STR_43(CODE[18]), STR_42(CODE[18]), STR_41(CODE[18]), STR_40(CODE[18]), 
		 -> STR_39(CODE[18]), STR_38(CODE[18]), STR_37(CODE[18]), STR_36(CODE[18]), 
		 -> STR_35(CODE[18]), STR_34(CODE[18]), STR_33(CODE[18]), STR_32(CODE[18]), 
		 -> STR_31(CODE[18]), STR_30(CODE[28]), STR_29(CODE[28]), STR_28(CODE[28]), 
		 -> STR_27(CODE[18]), STR_26(CODE[6]), STR_25(CODE[17]), STR_24(CODE[17]), 
		 -> STR_23(CODE[26]), STR_22(CODE[26]), STR_21(CODE[26]), STR_20(CODE[28]), 
		 -> STR_19(CODE[26]), STR_18(CODE[26]), STR_17(CODE[26]), STR_16(CODE[26]), 
		 -> STR_15(CODE[26]), STR_14(CODE[26]), STR_13(CODE[26]), STR_12(CODE[26]), 
		 -> STR_11(CODE[27]), STR_10(CODE[27]), STR_9(CODE[17]), STR_8(CODE[17]), 
		 -> STR_7(CODE[17]), STR_6(CODE[17]), STR_5(CODE[17]), STR_4(CODE[17]), 
		 -> STR_3(CODE[17]), STR_2(CODE[6]), STR_1(CODE[6]), 

    vfprintf@cfmt	PTR unsigned char  size(2) Largest target is 30
		 -> STR_51(CODE[30]), STR_50(CODE[30]), STR_49(CODE[22]), STR_48(CODE[22]), 
		 -> STR_47(CODE[22]), STR_46(CODE[11]), STR_45(CODE[18]), STR_44(CODE[18]), 
		 -> STR_43(CODE[18]), STR_42(CODE[18]), STR_41(CODE[18]), STR_40(CODE[18]), 
		 -> STR_39(CODE[18]), STR_38(CODE[18]), STR_37(CODE[18]), STR_36(CODE[18]), 
		 -> STR_35(CODE[18]), STR_34(CODE[18]), STR_33(CODE[18]), STR_32(CODE[18]), 
		 -> STR_31(CODE[18]), STR_30(CODE[28]), STR_29(CODE[28]), STR_28(CODE[28]), 
		 -> STR_27(CODE[18]), STR_26(CODE[6]), STR_25(CODE[17]), STR_24(CODE[17]), 
		 -> STR_23(CODE[26]), STR_22(CODE[26]), STR_21(CODE[26]), STR_20(CODE[28]), 
		 -> STR_19(CODE[26]), STR_18(CODE[26]), STR_17(CODE[26]), STR_16(CODE[26]), 
		 -> STR_15(CODE[26]), STR_14(CODE[26]), STR_13(CODE[26]), STR_12(CODE[26]), 
		 -> STR_11(CODE[27]), STR_10(CODE[27]), STR_9(CODE[17]), STR_8(CODE[17]), 
		 -> STR_7(CODE[17]), STR_6(CODE[17]), STR_5(CODE[17]), STR_4(CODE[17]), 
		 -> STR_3(CODE[17]), STR_2(CODE[6]), STR_1(CODE[6]), 

    vfpfcnvrt@fp	PTR struct _IO_FILE size(2) Largest target is 0
		 -> NULL(NULL[0]), 

    vfpfcnvrt@ap	PTR PTR void  size(2) Largest target is 2
		 -> printf@ap(BANK0[2]), 

    vfpfcnvrt@fmt	PTR PTR unsigned char  size(2) Largest target is 2
		 -> vfprintf@cfmt(COMRAM[2]), 

    xtoa@fp	PTR struct _IO_FILE size(2) Largest target is 0
		 -> NULL(NULL[0]), 

    dtoa@fp	PTR struct _IO_FILE size(2) Largest target is 0
		 -> NULL(NULL[0]), 

    pad@fp	PTR struct _IO_FILE size(2) Largest target is 0
		 -> NULL(NULL[0]), 

    pad@buf	PTR unsigned char  size(2) Largest target is 32
		 -> dbuf(BANK0[32]), 

    printf@fmt	PTR const unsigned char  size(2) Largest target is 30
		 -> STR_51(CODE[30]), STR_50(CODE[30]), STR_49(CODE[22]), STR_48(CODE[22]), 
		 -> STR_47(CODE[22]), STR_46(CODE[11]), STR_45(CODE[18]), STR_44(CODE[18]), 
		 -> STR_43(CODE[18]), STR_42(CODE[18]), STR_41(CODE[18]), STR_40(CODE[18]), 
		 -> STR_39(CODE[18]), STR_38(CODE[18]), STR_37(CODE[18]), STR_36(CODE[18]), 
		 -> STR_35(CODE[18]), STR_34(CODE[18]), STR_33(CODE[18]), STR_32(CODE[18]), 
		 -> STR_31(CODE[18]), STR_30(CODE[28]), STR_29(CODE[28]), STR_28(CODE[28]), 
		 -> STR_27(CODE[18]), STR_26(CODE[6]), STR_25(CODE[17]), STR_24(CODE[17]), 
		 -> STR_23(CODE[26]), STR_22(CODE[26]), STR_21(CODE[26]), STR_20(CODE[28]), 
		 -> STR_19(CODE[26]), STR_18(CODE[26]), STR_17(CODE[26]), STR_16(CODE[26]), 
		 -> STR_15(CODE[26]), STR_14(CODE[26]), STR_13(CODE[26]), STR_12(CODE[26]), 
		 -> STR_11(CODE[27]), STR_10(CODE[27]), STR_9(CODE[17]), STR_8(CODE[17]), 
		 -> STR_7(CODE[17]), STR_6(CODE[17]), STR_5(CODE[17]), STR_4(CODE[17]), 
		 -> STR_3(CODE[17]), STR_2(CODE[6]), STR_1(CODE[6]), 

    printf@ap	PTR void [1] size(2) Largest target is 2
		 -> ?_printf(COMRAM[2]), 

    showText@t	PTR unsigned char  size(2) Largest target is 11
		 -> hello(BANK0[11]), 

    MAX17345_read_word@data	PTR unsigned short  size(2) Largest target is 2
		 -> MAX17345_dump@data(BANK0[2]), 

    i2c_read_byte@data	PTR unsigned char  size(2) Largest target is 1
		 -> MAX17345_read_word@dataL(COMRAM[1]), MAX17345_read_word@dataH(COMRAM[1]), 

    MAX17320_read_word@data	PTR unsigned short  size(2) Largest target is 2
		 -> MAX17320_dump@data(COMRAM[2]), MAX17320_reset@data(COMRAM[2]), MAX17320_get_SOC_percentage@SOC_16(COMRAM[2]), MAX17320_init@data(BANK0[2]), 


Critical Paths under _main in COMRAM

    _main->_MAX17320_dump
    _showText->_SendCharUSB
    _MAX17345_set_relearn_voltage->_MAX17345_write_word
    _MAX17345_set_input_current->_MAX17345_write_word
    _MAX17345_set_charge_voltage->_MAX17345_write_word
    _MAX17345_set_charge_current->_MAX17345_write_word
    _MAX17345_write_word->_i2c_write_byte
    _MAX17345_dump->_printf
    _MAX17345_read_word->_i2c_read_byte
    _MAX17320_init->_MAX17320_dump
    _MAX17320_write_word->_ow_write_word
    _MAX17320_dump->_printf
    _printf->_vfprintf
    _vfprintf->_vfpfcnvrt
    _vfpfcnvrt->_xtoa
    _xtoa->_pad
    _toupper->_islower
    _dtoa->_pad
    _pad->_fputs
    _fputs->_fputc
    _fputc->_putch
    _putch->_SendCharUSB
    _abs->___aomod
    _atoi->_isspace
    ___fltol->___flmul
    ___flmul->___xxtofl
    _MAX17320_read_word->_ow_read_word

Critical Paths under _main in BANK0

    _main->_MAX17320_init
    _MAX17345_init->_MAX17345_dump
    _MAX17345_dump->_printf
    _MAX17320_init->_printf
    _MAX17320_dump->_printf
    _vfprintf->_vfpfcnvrt

Critical Paths under _main in BANK1

    None.

Critical Paths under _main in BANK2

    None.

Critical Paths under _main in BANK3

    None.

Critical Paths under _main in BANK4

    None.

Critical Paths under _main in BANK5

    None.

Critical Paths under _main in BANK6

    None.

Critical Paths under _main in BANK7

    None.

Critical Paths under _main in BANK8

    None.

Critical Paths under _main in BANK9

    None.

Critical Paths under _main in BANK10

    None.

Critical Paths under _main in BANK11

    None.

Critical Paths under _main in BANK12

    None.

Critical Paths under _main in BANK13

    None.

Call Graph Tables:

 ---------------------------------------------------------------------------------
 (Depth) Function   	        Calls       Base Space   Used Autos Params    Refs
 ---------------------------------------------------------------------------------
 (0) _main                                                 0     0      0  133424
                      _MAX17320_dump
                      _MAX17320_init
                      _MAX17345_dump
                      _MAX17345_init
                           _showText
 ---------------------------------------------------------------------------------
 (1) _showText                                             2     0      2     143
                                              1 COMRAM     2     0      2
                        _SendCharUSB
 ---------------------------------------------------------------------------------
 (1) _MAX17345_init                                        3     3      0   23033
                                             92 COMRAM     1     1      0
                      _MAX17345_dump
        _MAX17345_set_charge_current
        _MAX17345_set_charge_voltage
         _MAX17345_set_input_current
       _MAX17345_set_relearn_voltage
 ---------------------------------------------------------------------------------
 (2) _MAX17345_set_relearn_voltage                         3     1      2     911
                                              6 COMRAM     3     1      2
                _MAX17345_write_word
 ---------------------------------------------------------------------------------
 (2) _MAX17345_set_input_current                           3     1      2     911
                                              6 COMRAM     3     1      2
                _MAX17345_write_word
 ---------------------------------------------------------------------------------
 (2) _MAX17345_set_charge_voltage                          3     1      2     911
                                              6 COMRAM     3     1      2
                _MAX17345_write_word
 ---------------------------------------------------------------------------------
 (2) _MAX17345_set_charge_current                          3     1      2     911
                                              6 COMRAM     3     1      2
                _MAX17345_write_word
 ---------------------------------------------------------------------------------
 (3) _MAX17345_write_word                                  5     1      4     789
                                              1 COMRAM     5     1      4
                          _i2c_start
                           _i2c_stop
                     _i2c_write_byte
 ---------------------------------------------------------------------------------
 (2) _MAX17345_dump                                        4     4      0   19360
                                             25 BANK0      4     4      0
                 _MAX17345_read_word
                             ___wmul
                             _printf
 ---------------------------------------------------------------------------------
 (3) _MAX17345_read_word                                  11     7      4    1514
                                              2 COMRAM    11     7      4
                            _i2c_ack
                           _i2c_nack
                      _i2c_read_byte
                        _i2c_restart
                          _i2c_start
                           _i2c_stop
                     _i2c_write_byte
 ---------------------------------------------------------------------------------
 (4) _i2c_write_byte                                       1     1      0      22
                                              0 COMRAM     1     1      0
 ---------------------------------------------------------------------------------
 (4) _i2c_stop                                             0     0      0       0
 ---------------------------------------------------------------------------------
 (4) _i2c_start                                            0     0      0       0
 ---------------------------------------------------------------------------------
 (4) _i2c_restart                                          0     0      0       0
 ---------------------------------------------------------------------------------
 (4) _i2c_read_byte                                        2     0      2     174
                                              0 COMRAM     2     0      2
 ---------------------------------------------------------------------------------
 (4) _i2c_nack                                             0     0      0       0
 ---------------------------------------------------------------------------------
 (4) _i2c_ack                                              0     0      0       0
 ---------------------------------------------------------------------------------
 (1) _MAX17320_init                                        5     5      0   59192
                                             25 BANK0      5     5      0
                      _MAX17320_dump
                 _MAX17320_read_word
                _MAX17320_write_word
                             _printf
 ---------------------------------------------------------------------------------
 (2) _MAX17320_write_word                                  4     0      4    2773
                                              2 COMRAM     4     0      4
                           _ow_reset
                      _ow_write_word
 ---------------------------------------------------------------------------------
 (2) _MAX17320_dump                                        2     2      0   31696
                                             92 COMRAM     2     2      0
                 _MAX17320_read_word
                            ___flmul
                            ___fltol
                           ___xxtofl
                             _printf
 ---------------------------------------------------------------------------------
 (3) _printf                                              10     4      6   16909
                                             86 COMRAM     6     0      6
                                             21 BANK0      4     4      0
                            ___flmul (ARG)
                            ___fltol (ARG)
                           ___xxtofl (ARG)
                           _vfprintf
 ---------------------------------------------------------------------------------
 (4) _vfprintf                                             8     2      6   12975
                                             78 COMRAM     8     2      6
                          _vfpfcnvrt
 ---------------------------------------------------------------------------------
 (5) _vfpfcnvrt                                           46    40      6   12597
                                             68 COMRAM    10     4      6
                                              0 BANK0     21    21      0
                               _atoi
                               _dtoa
                              _fputc
                            _isdigit
                               _xtoa
 ---------------------------------------------------------------------------------
 (6) _xtoa                                                39    28     11    4447
                                             29 COMRAM    39    28     11
                            _isalpha
                            _isupper
                                _pad
                            _toupper
 ---------------------------------------------------------------------------------
 (7) _toupper                                              8     6      2     412
                                              6 COMRAM     8     6      2
                            _islower
 ---------------------------------------------------------------------------------
 (8) _islower                                              6     4      2     161
                                              0 COMRAM     6     4      2
 ---------------------------------------------------------------------------------
 (7) _isupper                                              6     4      2     161
                                              0 COMRAM     6     4      2
 ---------------------------------------------------------------------------------
 (7) _isalpha                                              6     4      2     161
                                              0 COMRAM     6     4      2
 ---------------------------------------------------------------------------------
 (6) _dtoa                                                36    26     10    4542
                                             29 COMRAM    36    26     10
                            ___aodiv
                            ___aomod
                                _abs
                                _pad
 ---------------------------------------------------------------------------------
 (7) _pad                                                 11     5      6    2893
                                             18 COMRAM    11     5      6
                              _fputc
                              _fputs
                             _strlen
 ---------------------------------------------------------------------------------
 (8) _strlen                                               4     2      2     166
                                              0 COMRAM     4     2      2
 ---------------------------------------------------------------------------------
 (8) _fputs                                                7     3      4    1213
                                             11 COMRAM     7     3      4
                              _fputc
 ---------------------------------------------------------------------------------
 (9) _fputc                                                9     5      4     812
                                              2 COMRAM     9     5      4
                              _putch
 ---------------------------------------------------------------------------------
 (10) _putch                                               1     1      0      44
                                              1 COMRAM     1     1      0
                        _SendCharUSB
 ---------------------------------------------------------------------------------
 (2) _SendCharUSB                                          1     1      0      22
                                              0 COMRAM     1     1      0
 ---------------------------------------------------------------------------------
 (7) _abs                                                  4     2      2     142
                                             18 COMRAM     4     2      2
                            ___aomod (ARG)
 ---------------------------------------------------------------------------------
 (7) ___aomod                                             18     2     16     448
                                              0 COMRAM    18     2     16
 ---------------------------------------------------------------------------------
 (7) ___aodiv                                             26    10     16     452
                                              0 COMRAM    26    10     16
 ---------------------------------------------------------------------------------
 (6) _atoi                                                15    13      2    1488
                                              7 COMRAM    15    13      2
                             ___wmul
                            _isdigit
                            _isspace
 ---------------------------------------------------------------------------------
 (7) _isspace                                              7     5      2     207
                                              0 COMRAM     7     5      2
 ---------------------------------------------------------------------------------
 (6) _isdigit                                              6     4      2     237
                                              0 COMRAM     6     4      2
 ---------------------------------------------------------------------------------
 (7) ___wmul                                               6     2      4     647
                                              0 COMRAM     6     2      4
 ---------------------------------------------------------------------------------
 (3) ___xxtofl                                            14    10      4    1006
                                              0 COMRAM    14    10      4
 ---------------------------------------------------------------------------------
 (3) ___fltol                                             10     6      4     913
                                             39 COMRAM    10     6      4
                            ___flmul (ARG)
                           ___xxtofl (ARG)
 ---------------------------------------------------------------------------------
 (3) ___flmul                                             25    17      8    2960
                                             14 COMRAM    25    17      8
                           ___xxtofl (ARG)
 ---------------------------------------------------------------------------------
 (2) _MAX17320_read_word                                   4     0      4    7683
                                              6 COMRAM     4     0      4
                       _ow_read_word
                           _ow_reset
                      _ow_write_word
 ---------------------------------------------------------------------------------
 (3) _ow_write_word                                        2     0      2     425
                                              0 COMRAM     2     0      2
 ---------------------------------------------------------------------------------
 (3) _ow_reset                                             1     1      0      24
                                              0 COMRAM     1     1      0
 ---------------------------------------------------------------------------------
 (3) _ow_read_word                                         6     4      2      46
                                              0 COMRAM     6     4      2
 ---------------------------------------------------------------------------------
 Estimated maximum stack depth 10
 ---------------------------------------------------------------------------------

 Call Graph Graphs:

 _main (ROOT)
   _MAX17320_dump
     _MAX17320_read_word
       _ow_read_word
       _ow_reset
       _ow_write_word
     ___flmul
       ___xxtofl (ARG)
     ___fltol
       ___flmul (ARG)
         ___xxtofl (ARG)
       ___xxtofl (ARG)
     ___xxtofl
     _printf
       ___flmul (ARG)
         ___xxtofl (ARG)
       ___fltol (ARG)
         ___flmul (ARG)
           ___xxtofl (ARG)
         ___xxtofl (ARG)
       ___xxtofl (ARG)
       _vfprintf (ARG)
         _vfpfcnvrt
           _atoi
             ___wmul
             _isdigit
             _isspace
           _dtoa
             ___aodiv
             ___aomod
             _abs
               ___aomod (ARG)
             _pad
               _fputc
                 _putch
                   _SendCharUSB
               _fputs
                 _fputc
                   _putch
                     _SendCharUSB
               _strlen
           _fputc
             _putch
               _SendCharUSB
           _isdigit
           _xtoa
             _isalpha
             _isupper
             _pad
               _fputc
                 _putch
                   _SendCharUSB
               _fputs
                 _fputc
                   _putch
                     _SendCharUSB
               _strlen
             _toupper
               _islower
   _MAX17320_init
     _MAX17320_dump
       _MAX17320_read_word
         _ow_read_word
         _ow_reset
         _ow_write_word
       ___flmul
         ___xxtofl (ARG)
       ___fltol
         ___flmul (ARG)
           ___xxtofl (ARG)
         ___xxtofl (ARG)
       ___xxtofl
       _printf
         ___flmul (ARG)
           ___xxtofl (ARG)
         ___fltol (ARG)
           ___flmul (ARG)
             ___xxtofl (ARG)
           ___xxtofl (ARG)
         ___xxtofl (ARG)
         _vfprintf (ARG)
           _vfpfcnvrt
             _atoi
               ___wmul
               _isdigit
               _isspace
             _dtoa
               ___aodiv
               ___aomod
               _abs
                 ___aomod (ARG)
               _pad
                 _fputc
                   _putch
                     _SendCharUSB
                 _fputs
                   _fputc
                     _putch
                       _SendCharUSB
                 _strlen
             _fputc
               _putch
                 _SendCharUSB
             _isdigit
             _xtoa
               _isalpha
               _isupper
               _pad
                 _fputc
                   _putch
                     _SendCharUSB
                 _fputs
                   _fputc
                     _putch
                       _SendCharUSB
                 _strlen
               _toupper
                 _islower
     _MAX17320_read_word
       _ow_read_word
       _ow_reset
       _ow_write_word
     _MAX17320_write_word
       _ow_reset
       _ow_write_word
     _printf
       ___flmul (ARG)
         ___xxtofl (ARG)
       ___fltol (ARG)
         ___flmul (ARG)
           ___xxtofl (ARG)
         ___xxtofl (ARG)
       ___xxtofl (ARG)
       _vfprintf (ARG)
         _vfpfcnvrt
           _atoi
             ___wmul
             _isdigit
             _isspace
           _dtoa
             ___aodiv
             ___aomod
             _abs
               ___aomod (ARG)
             _pad
               _fputc
                 _putch
                   _SendCharUSB
               _fputs
                 _fputc
                   _putch
                     _SendCharUSB
               _strlen
           _fputc
             _putch
               _SendCharUSB
           _isdigit
           _xtoa
             _isalpha
             _isupper
             _pad
               _fputc
                 _putch
                   _SendCharUSB
               _fputs
                 _fputc
                   _putch
                     _SendCharUSB
               _strlen
             _toupper
               _islower
   _MAX17345_dump
     _MAX17345_read_word
       _i2c_ack
       _i2c_nack
       _i2c_read_byte
       _i2c_restart
       _i2c_start
       _i2c_stop
       _i2c_write_byte
     ___wmul
     _printf
       ___flmul (ARG)
         ___xxtofl (ARG)
       ___fltol (ARG)
         ___flmul (ARG)
           ___xxtofl (ARG)
         ___xxtofl (ARG)
       ___xxtofl (ARG)
       _vfprintf (ARG)
         _vfpfcnvrt
           _atoi
             ___wmul
             _isdigit
             _isspace
           _dtoa
             ___aodiv
             ___aomod
             _abs
               ___aomod (ARG)
             _pad
               _fputc
                 _putch
                   _SendCharUSB
               _fputs
                 _fputc
                   _putch
                     _SendCharUSB
               _strlen
           _fputc
             _putch
               _SendCharUSB
           _isdigit
           _xtoa
             _isalpha
             _isupper
             _pad
               _fputc
                 _putch
                   _SendCharUSB
               _fputs
                 _fputc
                   _putch
                     _SendCharUSB
               _strlen
             _toupper
               _islower
   _MAX17345_init
     _MAX17345_dump
       _MAX17345_read_word
         _i2c_ack
         _i2c_nack
         _i2c_read_byte
         _i2c_restart
         _i2c_start
         _i2c_stop
         _i2c_write_byte
       ___wmul
       _printf
         ___flmul (ARG)
           ___xxtofl (ARG)
         ___fltol (ARG)
           ___flmul (ARG)
             ___xxtofl (ARG)
           ___xxtofl (ARG)
         ___xxtofl (ARG)
         _vfprintf (ARG)
           _vfpfcnvrt
             _atoi
               ___wmul
               _isdigit
               _isspace
             _dtoa
               ___aodiv
               ___aomod
               _abs
                 ___aomod (ARG)
               _pad
                 _fputc
                   _putch
                     _SendCharUSB
                 _fputs
                   _fputc
                     _putch
                       _SendCharUSB
                 _strlen
             _fputc
               _putch
                 _SendCharUSB
             _isdigit
             _xtoa
               _isalpha
               _isupper
               _pad
                 _fputc
                   _putch
                     _SendCharUSB
                 _fputs
                   _fputc
                     _putch
                       _SendCharUSB
                 _strlen
               _toupper
                 _islower
     _MAX17345_set_charge_current
       _MAX17345_write_word
         _i2c_start
         _i2c_stop
         _i2c_write_byte
     _MAX17345_set_charge_voltage
       _MAX17345_write_word
         _i2c_start
         _i2c_stop
         _i2c_write_byte
     _MAX17345_set_input_current
       _MAX17345_write_word
         _i2c_start
         _i2c_stop
         _i2c_write_byte
     _MAX17345_set_relearn_voltage
       _MAX17345_write_word
         _i2c_start
         _i2c_stop
         _i2c_write_byte
   _showText
     _SendCharUSB

 Address spaces:
Name               Size   Autos  Total    Cost      Usage
BIGRAM             DE9      0       0      33        0.0%
EEDATA             400      0       0       0        0.0%
BITBANK12          100      0       0      29        0.0%
BANK12             100      0       0      30        0.0%
BITBANK11          100      0       0      27        0.0%
BANK11             100      0       0      28        0.0%
BITBANK10          100      0       0      25        0.0%
BANK10             100      0       0      26        0.0%
BITBANK9           100      0       0      23        0.0%
BANK9              100      0       0      24        0.0%
BITBANK8           100      0       0      21        0.0%
BANK8              100      0       0      22        0.0%
BITBANK7           100      0       0      19        0.0%
BANK7              100      0       0      20        0.0%
BITBANK6           100      0       0      17        0.0%
BANK6              100      0       0      18        0.0%
BITBANK5           100      0       0      15        0.0%
BANK5              100      0       0      16        0.0%
BITBANK4           100      0       0      13        0.0%
BANK4              100      0       0      14        0.0%
BITBANK3           100      0       0      11        0.0%
BANK3              100      0       0      12        0.0%
BITBANK2           100      0       0       9        0.0%
BANK2              100      0       0      10        0.0%
BITBANK1           100      0       0       6        0.0%
BANK1              100      0       0       7        0.0%
BITBANK13           EA      0       0      31        0.0%
BANK13              EA      0       0      32        0.0%
BITBANK0            A0      0       0       4        0.0%
BANK0               A0     1E      51       5       50.6%
BITCOMRAM           5F      0       0       0        0.0%
COMRAM              5F     5E      5E       1       98.9%
BITSFR_3             0      0       0     200        0.0%
SFR_3                0      0       0     200        0.0%
BITSFR_2             0      0       0     200        0.0%
SFR_2                0      0       0     200        0.0%
BITSFR_1             0      0       0     200        0.0%
SFR_1                0      0       0     200        0.0%
BITSFR               0      0       0     200        0.0%
SFR                  0      0       0     200        0.0%
STACK                0      0       0       2        0.0%
NULL                 0      0       0       0        0.0%
ABS                  0      0      AF       8        0.0%
DATA                 0      0      AF       3        0.0%
CODE                 0      0       0       0        0.0%


Microchip Technology PIC18 Macro Assembler V2.31 build 20201012212115 
Symbol Table                                                                                   Mon Mar 08 18:49:29 2021

                        ?_MAX17320_read_word 0007                                           l32 2094  
                                         l42 2ECE                                           l35 1EDC  
                                         l52 2E32                                           l29 32C8  
                                         l38 1CF6                                           l47 2F54  
                        ___wmul@multiplicand 0003                                          LATC 000F7B  
                                        l107 0826                                          l203 2A1C  
                                        l211 2CB2                                          l127 0C72  
                                        l223 3254                                          l320 2F68  
                                        l160 3292                                          l240 2838  
                                        l232 3206                                          l322 2F96  
                                        l226 323A                                          l331 31CC  
                                        l163 32A0                                          l172 3280  
                                        l244 2B9E                                          l181 327C  
                                        l229 3220                                          l318 2F58  
                                        l190 31D0                                          l166 32A4  
                                        l175 328E                                          l184 325A  
                                        l328 3124                                          l193 31EC  
                                        l169 32B2                                          l178 326E  
                                        l187 3268                                          l196 315E  
                                        l445 2574                                          l198 316C  
                                        l199 317E                                          WREG 000FE8  
                                        l458 26D8                                          l628 293E  
                                        l952 13AA                                          l945 11B4  
                                        l962 14DA                                          l954 1422  
                                        l955 1410                                          l949 1518  
                                        l993 2184                                          l986 20EC  
                                        l989 2248                                          _RF5 007C75  
                                        _RF6 007C76                                          _RF7 007C77  
                             ?_ow_write_word 0001                                          _abs 2F98  
                                        _pad 2A1E                                          wreg 000FE8  
                               ___flmul@aexp 0020                                 ___flmul@bexp 0021  
                     MAX17320_read_word@data 0009                                 ___flmul@sign 001B  
                               ___flmul@temp 0026                                 ___flmul@prod 0022  
                    __size_of_i2c_write_byte 0028                         ??_MAX17320_read_word 000B  
                               ___fltol@exp1 0031                                         l1000 21E0  
                                       l1201 2E84                                         l1105 1A6E  
                                       l1121 0D6E                                         l1009 31A6  
                                       l1051 2AE2                                         l1107 1AD2  
                                       ?_abs 0013                                         l1150 2FCE  
                                       l1222 2C34                                         l1230 2F12  
                                       l1046 2A64                                         l1207 3082  
                                       l1136 10EE                                         l1153 2FD6  
                                       l1049 2AA6                                         l1057 15BA  
                                       l1241 2DD0                                         l1145 2D10  
                                       l1082 1834                                         l1146 2D18  
                                       l1059 15C2                                         l1091 18D0  
                                       PORTC 000F8B                                         l1236 30F0  
                                       l1252 304A                                         l1084 183C  
                                       l1181 23E4                                         l1077 17FA  
                                       l1246 2DD8                                         l1184 23EC  
                                       l4001 1FE2                                         l1193 30BA  
                                       l4011 1FEC                                         l4003 1FE4  
                                       l1187 3012                                         l4101 2046  
                                       l4021 1FF6                                         l4013 1FEE  
                                       l4005 1FE6                                         l3301 2BCE  
                                       l4111 2050                                         l4103 2048  
                                       l4031 2000                                         l4023 1FF8  
                                       l4015 1FF0                                         l4007 1FE8  
                                       l3303 2BEC                                         l3311 2EDC  
                                       l4201 1AFA                                         l4121 205A  
                                       l4113 2052                                         l4105 204A  
                                       l4041 200A                                         l4033 2002  
                                       l4025 1FFA                                         l4017 1FF2  
                                       l4009 1FEA                                         l3401 2622  
                                       l3305 2C22                                         l3313 2EEE  
                                       l3321 30CC                                         l5001 0B7E  
                                       l4211 1B0A                                         l4203 1AFE  
                                       l4131 2064                                         l4123 205C  
                                       l4115 2054                                         l4107 204C  
                                       l4051 2014                                         l4043 200C  
                                       l4035 2004                                         l4027 1FFC  
                                       l4019 1FF4                                         l3331 31A8  
                                       l3411 2698                                         l3403 2650  
                                       l3315 2EF2                                         l3323 30E4  
                                       l5011 0C02                                         l5003 0B92  
                                       l4301 1BAA                                         l4221 1B1E  
                                       l4213 1B0C                                         l4205 1B04  
                                       l4141 206E                                         l4133 2066  
                                       l4125 205E                                         l4117 2056  
                                       l4109 204E                                         l4061 201E  
                                       l4053 2016                                         l4045 200E  
                                       l4037 2006                                         l4029 1FFE  
                                       l3333 31C4                                         l3341 2400  
                                       l3413 26B8                                         l3405 2670  
                                       l3309 2ED0                                         l3317 30BC  
                                       l3421 2A42                                         l3501 1600  
                                       l5013 0C26                                         l5005 0BB6  
                                       l5021 323C                                         l4311 1BBE  
                                       l4303 1BAC                                         l4231 1B2C  
                                       l4223 1B24                                         l4215 1B0E  
                                       l4207 1B06                                         l4151 2078  
                                       l4143 2070                                         l4135 2068  
                                       l4127 2060                                         l4119 2058  
                                       l4071 2028                                         l4063 2020  
                                       l4055 2018                                         l4047 2010  
                                       l4039 2008                                         l3351 2456  
                                       l3343 2420                                         l3407 2682  
                                       l3319 30C8                                         l3431 2A88  
                                       l3423 2A50                                         l3503 1606  
                                       l3511 16F8                                         l3327 3014  
                                       l5015 0C3A                                         l5007 0BCA  
                                       l5023 3252                                         l5031 3238  
                                       l4401 1C56                                         l4321 1BCC  
                                       l4313 1BC4                                         l4305 1BAE  
                                       l4241 1B44                                         l4233 1B2E  
                                       l4225 1B26                                         l4217 1B10  
                                       l4209 1B08                                         l4161 2082  
                                       l4153 207A                                         l4145 2072  
                                       l4137 206A                                         l4129 2062  
                                       l4081 2032                                         l4073 202A  
                                       l4065 2022                                         l4057 201A  
                                       l4049 2012                                         l3361 24AA  
                                       l3353 2462                                         l3345 2424  
                                       l3337 23EE                                         l3409 2688  
                                       l3441 2FB2                                         l3433 2AB6  
                                       l3425 2A5C                                         l3417 2A1E  
                                       l3513 1712                                         l3521 1774  
                                       l3505 1688                                         l3601 1AAA  
                                       l5017 0C5E                                         l5009 0BEE  
                                       l5201 3108                                         l4411 1C6E  
                                       l4403 1C60                                         l4331 1BE0  
                                       l4323 1BCE                                         l4315 1BC6  
                                       l4307 1BB0                                         l4251 1B4E  
                                       l4243 1B46                                         l4235 1B30  
                                       l4227 1B28                                         l4219 1B1A  
                                       l4171 208C                                         l4163 2084  
                                       l4155 207C                                         l4147 2074  
                                       l4139 206C                                         l4091 203C  
                                       l4083 2034                                         l4075 202C  
                                       l4067 2024                                         l4059 201C  
                                       l3611 2266                                         l3371 251E  
                                       l3363 24BC                                         l3355 2480  
                                       l3347 2432                                         l3339 23F2  
                                       l3291 2F92                                         l3435 2ACA  
                                       l3427 2A70                                         l3419 2A2E  
                                       l3531 17BA                                         l3523 1786  
                                       l3515 1730                                         l3507 168E  
                                       l3443 304C                                         l3451 2D7C  
                                       l5051 26DA                                         l5019 323C  
                                       l5027 3222                                         l5035 3208  
                                       l5043 31EE                                         l5203 310C  
                                       l4421 1C80                                         l4413 1C70  
                                       l4405 1C64                                         l4341 1BF0  
                                       l4333 1BE4                                         l4325 1BD0  
                                       l4317 1BC8                                         l4309 1BBA  
                                       l4261 1B66                                         l4253 1B50  
                                       l4245 1B48                                         l4237 1B3A  
                                       l4229 1B2A                                         l4181 1AD4  
                                       l4173 208E                                         l4165 2086  
                                       l4157 207E                                         l4149 2076  
                                       l4093 203E                                         l4085 2036  
                                       l4077 202E                                         l4069 2026  
                                       l3461 3084                                         l3621 22CA  
                                       l3613 2286                                         l3605 224A  
                                       l3365 24EA                                         l3357 2488  
                                       l3373 2524                                         l3349 2452  
                                       l3381 2576                                         l3285 2F58  
                                       l3293 32C2                                         l3429 2A84  
                                       l3533 17C2                                         l3525 1796  
                                       l3517 174A                                         l3509 1694  
                                       l3541 180C                                         l4501 2CBC  
                                       l5061 274C                                         l5053 26E4  
                                       l5029 3222                                         l5037 3208  
                                       l5045 31EE                                         l4431 1C90  
                                       l4423 1C84                                         l4415 1C72  
                                       l4407 1C6A                                         l4351 1C04  
                                       l4343 1BF2                                         l4335 1BEA  
                                       l4327 1BD8                                         l4319 1BCA  
                                       l4271 1B70                                         l4263 1B68  
                                       l4255 1B5A                                         l4247 1B4A  
                                       l4239 1B3E                                         l4191 1AE8  
                                       l4183 1ADA                                         l4175 2090  
                                       l4167 2088                                         l4159 2080  
                                       l4095 2040                                         l4087 2038  
                                       l4079 2030                                         l4511 2EB2  
                                       l3471 2E7A                                         l3623 22E0  
                                       l3615 22C0                                         l3607 225E  
                                       l3375 2534                                         l3367 250A  
                                       l3359 249C                                         l3391 25BA  
                                       l3383 257A                                         l3439 2F98  
                                       l3287 2F76                                         l3295 2BA0  
                                       l3527 179C                                         l3535 17D2  
                                       l3519 1764                                         l3447 2FD8  
                                       l3455 2DB2                                         l3551 187A  
                                       l3543 180E                                         l3711 0F1C  
                                       l3703 0E72                                         l4503 2CCA  
                                       l5071 27D8                                         l5063 2760  
                                       l5055 26F0                                         l5039 321E  
                                       l5047 3204                                         l4441 1CA4  
                                       l4433 1C92                                         l4425 1C8A  
                                       l4417 1C74                                         l4409 1C6C  
                                       l4361 1C12                                         l4353 1C0A  
                                       l4345 1BF4                                         l4337 1BEC  
                                       l4329 1BDA                                         l4281 1B88  
                                       l4273 1B7A                                         l4265 1B6A  
                                       l4257 1B5E                                         l4249 1B4C  
                                       l4193 1AEA                                         l4185 1ADE  
                                       l4169 208A                                         l4097 2042  
                                       l4089 203A                                         l3801 1F06  
                                       l4513 2EC6                                         l3473 2E7E  
                                       l3465 2E34                                         l3641 23C8  
                                       l3633 2362                                         l3625 22E8  
                                       l3617 22C4                                         l3609 2262  
                                       l3377 2554                                         l3369 250C  
                                       l3393 25DA                                         l3385 2588  
                                       l3289 2F84                                         l3297 2BB2  
                                       l3529 17AE                                         l3481 1562  
                                       l3457 2DC4                                         l3561 18B4  
                                       l3553 1882                                         l3545 1828  
                                       l3721 0FBE                                         l3705 0E84  
                                       l4505 2CF0                                         l5081 2DE6  
                                       l5073 27F4                                         l5065 2784  
                                       l5057 2714                                         l5161 2AF6  
                                       l5241 2D1A                                         l4451 1CB2  
                                       l4443 1CAA                                         l4435 1C94  
                                       l4427 1C8C                                         l4419 1C76  
                                       l4371 1C2A                                         l4363 1C14  
                                       l4355 1C0C                                         l4347 1BF6  
                                       l4339 1BEE                                         l4291 1B9A  
                                       l4283 1B8A                                         l4275 1B7E  
                                       l4267 1B6C                                         l4259 1B64  
                                       l4195 1AEC                                         l4187 1AE4  
                                       l4099 2044                                         l3811 1F10  
                                       l3803 1F08                                         l4179 1CF8  
                                       l4507 2E86                                         l4611 10FC  
                                       l3467 2E38                                         l3627 22F0  
                                       l3395 25F8                                         l3387 25A8  
                                       l3299 2BC4                                         l3491 15CA  
                                       l3483 1582                                         l3563 18C4  
                                       l3555 188A                                         l3547 1852  
                                       l3539 17FC                                         l3731 106C  
                                       l3723 0FCC                                         l3715 0F54  
                                       l3707 0EAC                                         l3651 0CAA  
                                       l5155 2E2E                                         l5091 2DF2  
                                       l5083 2DE8                                         l5075 2818  
                                       l5067 2798                                         l5059 2728  
                                       l4603 2CAC                                         l5171 2B0A  
                                       l5163 2AFA                                         l5251 2D40  
                                       l5243 2D2A                                         l4461 1CCA  
                                       l4453 1CB4                                         l4445 1CAC  
                                       l4437 1C96                                         l4429 1C8E  
                                       l4381 1C34                                         l4373 1C2C  
                                       l4365 1C16                                         l4357 1C0E  
                                       l4349 1C00                                         l4293 1B9E  
                                       l4285 1B8C                                         l4277 1B84  
                                       l4269 1B6E                                         l4197 1AEE  
                                       l4189 1AE6                                         l3901 1F6A  
                                       l3821 1F1A                                         l3813 1F12  
                                       l3805 1F0A                                         l4509 2E9A  
                                       l4701 13CC                                         l4621 113C  
                                       l4613 110A                                         l3469 2E4C  
                                       l3637 23A4                                         l3629 2328  
                                       l3397 2600                                         l3389 25AC  
                                       l3493 15DC                                         l3485 1592  
                                       l3477 151A                                         l3581 198C  
                                       l3573 1950                                         l3557 1890  
                                       l3549 185A                                         l3741 10A8  
                                       l3733 107A                                         l3725 1008  
                                       l3717 0F7C                                         l3709 0ED4  
                                       l5325 0D2E                                         l3661 0CE0  
                                       l3653 0CBC                                         l5093 2DFE  
                                       l5085 2DEC                                         l5077 2DDA  
                                       l4541 296A                                         l4533 2940  
                                       l5069 27BC                                         l4605 2CB0  
                                       l5181 2B34                                         l5173 2B0C  
                                       l5165 2AFE                                         l5261 2D54  
                                       l5253 2D44                                         l5245 2D32  
                                       ?_pad 0013                                         l4471 1CD4  
                                       l4463 1CCC                                         l4455 1CB6  
                                       l4447 1CAE                                         l4439 1CA0  
                                       l4391 1C4C                                         l4383 1C36  
                                       l4375 1C2E                                         l4367 1C20  
                                       l4359 1C10                                         l4295 1BA4  
                                       l4287 1B8E                                         l4279 1B86  
                                       l4199 1AF0                                         l3911 1F74  
                                       l3903 1F6C                                         l3831 1F24  
                                       l3823 1F1C                                         l3815 1F14  
                                       l3807 1F0C                                         l4519 2ECC  
                                       l4711 143E                                         l4703 13DA  
                                       l4631 116C                                         l4623 1142  
                                       l4615 110C                                         l3639 23B6  
                                       l5327 2312                                         l3399 2614  
                                       l3495 15EA                                         l3487 1594  
                                       l3479 153A                                         l3591 1A44  
                                       l3583 1992                                         l3575 1962  
                                       l3567 1904                                         l3559 1898  
                                       l3735 108E                                         l3719 0FA4  
                                       l3655 0CC0                                         l3647 0C74  
                                       l4527 3180                                         l5095 2E02  
                                       l5087 2DEE                                         l5079 2DE4  
                                       l4535 2948                                         l5175 2B0E  
                                       l5167 2B02                                         l5159 2AE4  
                                       l5271 2D6C                                         l5263 2D56  
                                       l5255 2D48                                         l5247 2D36  
                                       l4473 1CD6                                         l4465 1CCE  
                                       l4457 1CC0                                         l4449 1CB0  
                                       l4393 1C4E                                         l4385 1C40  
                                       l4377 1C30                                         l4369 1C24  
                                       l4297 1BA6                                         l4289 1B90  
                                       l3921 1F7E                                         l3913 1F76  
                                       l3905 1F6E                                         l3841 1F2E  
                                       l3833 1F26                                         l3825 1F1E  
                                       l3817 1F16                                         l3809 1F0E  
                                       l3761 1EDE                                         l4721 14A8  
                                       l4713 144C                                         l4705 1408  
                                       l4641 11A4                                         l4633 116E  
                                       l4625 1152                                         l4617 111C  
                                       l4609 10F0                                         l4801 216C  
                                       l3497 15F0                                         l3489 15AE  
                                       l3593 1A5E                                         l3569 1916  
                                       l3577 1976                                         l3585 19F0  
                                       l3729 1044                                         l3681 0D04  
                                       l3673 0CF2                                         l3665 0CE6  
                                       l3657 0CCC                                         l3649 0C9C  
                                       l3745 10B4                                         l4529 318A  
                                       l5089 2DF0                                         l4481 32A2  
                                       l4561 29C8                                         l4537 2964  
                                       l5193 2B9A                                         l5185 2B56  
                                       l5177 2B12                                         l5169 2B06  
                                       l5273 2D70                                         l5265 2D58  
                                       l5257 2D4C                                         l5249 2D38  
                                       l4475 1CE0                                         l4467 1CD0  
                                       l4459 1CC4                                         l4395 1C50  
                                       l4387 1C44                                         l4379 1C32  
                                       l4299 1BA8                                         l3931 1F88  
                                       l3923 1F80                                         l3915 1F78  
                                       l3907 1F70                                         l3851 1F38  
                                       l3843 1F30                                         l3835 1F28  
                                       l3827 1F20                                         l3819 1F18  
                                       l3771 1EE8                                         l3763 1EE0  
                                       l4731 14FE                                         l4723 14C2  
                                       l4715 1476                                         l4651 11F4  
                                       l4643 11C4                                         l4635 117E  
                                       l4627 1158                                         l4619 112C  
                                       l4811 21D0                                         l4803 216E  
                                       l3499 15F8                                         l3595 1A7E  
                                       l3587 1A0C                                         l3579 1986  
                                       l3747 10DC                                         l3739 109A  
                                       l3691 0DDC                                         l3659 0CCE  
                                       l3683 0D5C                                         l4491 31DE  
                                       l4483 327E                                         l4571 29F6  
                                       l4563 29CC                                         l4555 29A6  
                                       l4547 2986                                         l5267 2D64  
                                       l5259 2D50                                         l4469 1CD2  
                                       l4397 1C52                                         l4389 1C4A  
                                       l3941 1F92                                         l3933 1F8A  
                                       l3925 1F82                                         l3917 1F7A  
                                       l3909 1F72                                         l3861 1F42  
                                       l3853 1F3A                                         l3845 1F32  
                                       l3837 1F2A                                         l3829 1F22  
                                       l3781 1EF2                                         l3773 1EEA  
                                       l3765 1EE2                                         l4725 14DE  
                                       l4733 1504                                         l4709 1432  
                                       l4717 147A                                         l4661 1244  
                                       l4653 11FE                                         l4645 11D4  
                                       l4637 118E                                         l4629 115E  
                                       l4741 2850                                         l4821 2228  
                                       l4813 21EE                                         l4805 217A  
                                       l3597 1A84                                         l3589 1A2A  
                                       l3693 0DEA                                         l3685 0D7C  
                                       l3677 0CF8                                         l3669 0CEC  
                                       l4901 0346                                         l4485 326A  
                                       l4493 31EA                                         l4573 2A1A  
                                       l4549 298A                                         l4581 2C52  
                                       l5189 2B78                                         l5197 30F2  
                                       l5269 2D68                                         l4399 1C54  
                                       l3951 1F9C                                         l3943 1F94  
                                       l3935 1F8C                                         l3927 1F84  
                                       l3919 1F7C                                         l3871 1F4C  
                                       l3863 1F44                                         l3855 1F3C  
                                       l3847 1F34                                         l3839 1F2C  
                                       l3791 1EFC                                         l3783 1EF4  
                                       l3775 1EEC                                         l3767 1EE4  
                                       l3759 1EDE                                         l4735 1508  
                                       l4727 14EE                                         l4719 1494  
                                       l4671 1286                                         l4663 1250  
                                       l4655 1214                                         l4639 119E  
                                       l4751 28A0                                         l4823 2236  
                                       l4815 21F0                                         l4807 21B6  
                                       l3599 1A94                                         l3695 0DF8  
                                       l3687 0D7E                                         l4911 04C0  
                                       l4903 03AC                                         l4831 2F28  
                                       l4487 3256                                         l4479 3290  
                                       l4591 2C74                                         l5199 30FA  
                                       l3961 1FA6                                         l3953 1F9E  
                                       l3945 1F96                                         l3937 1F8E  
                                       l3929 1F86                                         l3881 1F56  
                                       l3873 1F4E                                         l3865 1F46  
                                       l3857 1F3E                                         l3849 1F36  
                                       l3793 1EFE                                         l3785 1EF6  
                                       l3777 1EEE                                         l3769 1EE6  
                                       l4729 14FC                                         l4681 12E8  
                                       l4673 1296                                         l4665 125E  
                                       l4657 1220                                         l4649 11E8  
                                       l4761 28CA                                         l4753 28A4  
                                       l4745 2864                                         l4825 2238  
                                       l4817 21F4                                         l4809 21C2  
                                       l3697 0E18                                         l3689 0DA6  
                                       l4921 05F8                                         l4913 04E4  
                                       l4905 03D0                                         l4833 2F4C  
                                       l4489 31CE                                         l4497 315A  
                                       l4569 29EE                                         l4585 2C58  
                                       l4577 2C36                                         l3971 1FB0  
                                       l3963 1FA8                                         l3955 1FA0  
                                       l3947 1F98                                         l3939 1F90  
                                       l3891 1F60                                         l3883 1F58  
                                       l3875 1F50                                         l3867 1F48  
                                       l3859 1F40                                         l3795 1F00  
                                       l3787 1EF8                                         l3779 1EF0  
                                       l4691 1390                                         l4683 1304  
                                       l4675 12B0                                         l4667 126A  
                                       l4659 1238                                         l4771 28F2  
                                       l4763 28D4                                         l4755 28B2  
                                       l4747 288E                                         l4739 283A  
                                       l4819 2218                                         l3699 0E26  
                                       l4499 2CB4                                         l4931 072C  
                                       l4923 0612                                         l4915 054A  
                                       l4907 0436                                         l4851 0014  
                                       l4579 2C36                                         l3981 1FBA  
                                       l3973 1FB2                                         l3965 1FAA  
                                       l3957 1FA2                                         l3949 1F9A  
                                       l3893 1F62                                         l3885 1F5A  
                                       l3877 1F52                                         l3869 1F4A  
                                       l3797 1F02                                         l3789 1EFA  
                                       l4693 139A                                         l4685 132E  
                                       l4677 12C0                                         l4669 127A  
                                       l4773 28FE                                         l4765 28DE  
                                       l4749 2890                                         l4941 0812  
                                       l4933 0750                                         l4925 0636  
                                       l4917 056E                                         l4909 045A  
                                       l4861 00A8                                         l4853 0038  
                                       l4829 2F14                                         l4597 2C90  
                                       l3991 1FC4                                         l3983 1FBC  
                                       l3975 1FB4                                         l3967 1FAC  
                                       l3959 1FA4                                         l3895 1F64  
                                       l3887 1F5C                                         l3879 1F54  
                                       l3799 1F04                                         l4695 13A8  
                                       l4687 1364                                         l4679 12DC  
                                       l4775 290E                                         l4791 2112  
                                       l4783 2098                                         l4951 08AA  
                                       l4943 0832                                         l4935 07B6  
                                       l4927 06A2                                         l4919 05D4  
                                       l4871 012C                                         l4863 00BC  
                                       l4855 004C                                         l4847 0000  
                                       l4839 2F52                                         l3993 1FC6  
                                       l3985 1FBE                                         l3977 1FB6  
                                       l3969 1FAE                                         l3897 1F66  
                                       l3889 1F5E                                         l4697 13BA  
                                       l4689 1372                                         l4777 291E  
                                       l4785 20A8                                         l4961 094E  
                                       l4953 08CE                                         l4945 0856  
                                       l4937 07DA                                         l4929 06C6  
                                       l4881 01C0                                         l4873 0150  
                                       l4865 00E0                                         l4857 0070  
                                       l4849 0008                                         l3995 1FC8  
                                       l3987 1FC0                                         l3979 1FB8  
                                       l3899 1F68                                         l4699 13C8  
                                       l4779 292E                                         l4795 2126  
                                       l4787 20B6                                         l4971 09D2  
                                       l4963 0962                                         l4955 08EA  
                                       l4947 086A                                         l4939 07EE  
                                       l4891 025A                                         l4883 01DC  
                                       l4875 0164                                         l4867 00F4  
                                       l4859 0084                                         l3997 1FDE  
                                       l3989 1FC2                                         l4797 212E  
                                       l4789 20FC                                         l4981 0A66  
                                       l4973 09F6                                         l4965 0986  
                                       l4957 090E                                         l4949 088E  
                                       l4893 027E                                         l4885 0200  
                                       l4877 0188                                         l4869 0118  
                                       l3999 1FE0                                         l4799 213A  
                                       l4991 0AEA                                         l4983 0A7A  
                                       l4975 0A0A                                         l4967 099A  
                                       l4959 092A                                         l4895 0298  
                                       l4887 021C                                         l4879 019C  
                                       l4993 0B0E                                         l4985 0A9E  
                                       l4977 0A2E                                         l4969 09BE  
                                       l4897 02BC                                         l4889 0240  
                                       l4995 0B22                                         l4987 0AB2  
                                       l4979 0A42                                         l4899 0322  
                                       l4997 0B46                                         l4989 0AD6  
                                       l4999 0B5A                                         STR_1 FFF8  
                                       STR_2 FFEC                                         STR_3 FF6A  
                                       STR_4 FF8C                                         STR_5 FFBF  
                                       STR_6 FFD0                                         STR_7 FEA5  
                                       STR_8 FF7B                                         STR_9 FF47  
                                       u2100 2F92                                         u2101 2F8E  
                                       u2110 2BB2                                         u2111 2BAE  
                                       u3000 1FDA                                         u2200 2432  
                                       u2120 2BC4                                         u3001 1FD4  
                                       u2201 242E                                         u2121 2BC0  
                                       u3010 1FDC                                         u2130 2BEC  
                                       u2211 245C                                         u2131 2BE8  
                                       u2220 2480                                         u2300 2650  
                                       u2140 2C22                                         u3100 2D10  
                                       u3020 32A0                                         u2221 247C  
                                       u2301 264C                                         u2141 2C1E  
                                       u3101 2D0C                                         u3021 329C  
                                       u3110 2E9A                                         u2230 24AA  
                                       u2310 2698                                         u2070 2F68  
                                       u2150 2F12                                         u3030 32B2  
                                       u3111 2E96                                         u2231 24A6  
                                       u2311 2694                                         u2071 2F64  
                                       u2151 2F0E                                         u3031 32AE  
                                       u2240 24EA                                         u2080 2F76  
                                       u2160 30E4                                         u2320 2A2E  
                                       u2400 300E                                         u3040 328E  
                                       u3120 2964                                         u4000 2714  
                                       u3200 2CA8                                         u2241 24E6  
                                       u2081 2F72                                         u2161 30E0  
                                       u2321 2A2A                                         u3041 328A  
                                       u3121 2960                                         u4001 2710  
                                       u3201 2CA4                                         u3210 110A  
                                       u2250 2534                                         u2090 2F84  
                                       u2330 2A50                                         u2170 3044  
                                       u2410 2DAC                                         u3050 327C  
                                       u3130 2982                                         u4010 274C  
                                       u3211 1106                                         u2251 2530  
                                       u2091 2F80                                         u2331 2A4C  
                                       u2171 303E                                         u2411 2DA6  
                                       u3051 3278                                         u3131 297E  
                                       u4011 2748                                         u3300 13A8  
                                       u3220 111C                                         u2260 2588  
                                       u2340 2AA6                                         u2500 1562  
                                       u2180 3046                                         u2420 2DAE  
                                       u3060 3268                                         u3140 29A2  
                                       u4020 2784                                         u4100 3124  
                                       u3301 13A4                                         u3221 1118  
                                       u2261 2584                                         u2341 2AA2  
                                       u2501 155E                                         u3061 3264  
                                       u3141 299E                                         u4021 2780  
                                       u4101 3120                                         u3310 13C8  
                                       u3230 112C                                         u2190 2400  
                                       u2270 25BA                                         u2350 2AB6  
                                       u2510 1592                                         u2430 2DC4  
                                       u3070 31DE                                         u3150 29C4  
                                       u4030 27BC                                         u3311 13C4  
                                       u3231 1128                                         u2191 23FC  
                                       u2271 25B6                                         u2351 2AB2  
                                       u2511 158E                                         u2431 2DC0  
                                       u3071 31DA                                         u3151 29C0  
                                       u4031 27B8                                         u3320 13DA  
                                       u3240 116C                                         u3400 2850  
                                       u2440 30B4                                         u2280 25F8  
                                       u2360 2FB2                                         u2600 1786  
                                       u2520 15AE                                         u3080 316C  
                                       u3160 29EA                                         u4040 2818  
                                       u3321 13D6                                         u3241 1168  
                                       u3401 284C                                         u2441 30AE  
                                       u2281 25F4                                         u2361 2FAE  
                                       u2601 1782                                         u2521 15AA  
                                       u3081 3168                                         u3161 29E6  
                                       u4041 2814                                         u3330 1408  
                                       u3250 117E                                         u3410 2884  
                                       u2450 30B6                                         u2290 2622  
                                       u2610 1796                                         u2530 15DC  
                                       u2370 307C                                         u4050 2E2A  
                                       u3090 317C                                         u3170 2C52  
                                       u3331 1404                                         u3251 117A  
                                       u2291 261E                                         u2611 1792  
                                       u2531 15D8                                         u2371 3076  
                                       u4051 2E26                                         u3091 3176  
                                       u3171 2C4E                                         u3340 141E  
                                       u3260 118E                                         u3420 28B2  
                                       u3500 2168                                         u2460 2E4C  
                                       u2620 17AE                                         u2540 15EA  
                                       u2380 307E                                         u2700 194A  
                                       u3180 2C70                                         u4060 2B30  
                                       u3341 141A                                         u3261 118A  
                                       u3421 28AE                                         u3501 2164  
                                       u2461 2E48                                         u2621 17AA  
                                       u2541 15E6                                         u2701 1944  
                                       u3181 2C6C                                         u4061 2B2C  
                                       u3350 1432                                         u3270 11C4  
                                       u3430 28C6                                         u3510 21B2  
                                       u2470 2E7A                                         u2550 1712  
                                       u2390 300C                                         u2710 194C  
                                       u2630 180C                                         u3190 2C8C  
                                       u4070 2B52                                         u3351 142E  
                                       u3271 11C0                                         u3431 28C2  
                                       u3415 287A                                         u3511 21AE  
                                       u2471 2E76                                         u2551 170E  
                                       u2391 3006                                         u2631 1808  
                                       u3191 2C88                                         u4071 2B4E  
                                       u3360 144C                                         u3280 11D4  
                                       u3440 28EE                                         u3520 21D0  
                                       u2800 2286                                         u2560 1730  
                                       u2480 154A                                         u2720 1962  
                                       u2640 1828                                         u3600 00A8  
                                       u3096 317E                                         u4080 2B74  
                                       u3361 1448                                         u3281 11D0  
                                       u3441 28EA                                         u3521 21CC  
                                       u2801 2282                                         u2561 172C  
                                       u2481 1544                                         u2721 195E  
                                       u2641 1824                                         u3601 00A4  
                                       u4081 2B70                                         u3370 1494  
                                       u3290 134E                                         u3450 290E  
                                       u3530 21E0                                         u2810 22C0  
                                       u2570 174A                                         u2490 154C  
                                       u2730 19CA                                         u2650 1852  
                                       u3610 00E0                                         u4090 2B96  
                                       u3371 1490                                         u3451 290A  
                                       u3531 21DC                                         u2811 22BC  
                                       u2571 1746                                         u2651 184E  
                                       u3611 00DC                                         u4091 2B92  
                                       u3380 14C2                                         u3460 291E  
                                       u3540 21EE                                         u2820 22DC  
                                       u2580 1764                                         u2740 1A0C  
                                       u2660 18B4                                         u2900 0DA6  
                                       u3700 0346                                         u3620 0118  
                                       u3381 14BE                                         u3461 291A  
                                       u3541 21EA                                         u2821 22D8  
                                       u2581 1760                                         u2741 1A08  
                                       u2661 18B0                                         u2901 0DA2  
                                       u3701 0342                                         u3621 0114  
                                       u3390 14FC                                         u3550 2228  
                                       u3470 20A8                                         u2830 239E  
                                       u2590 1774                                         u2750 1A2A  
                                       u2670 18FE                                         u2910 0DEA  
                                       u3710 03D0                                         u3630 0150  
                                       u3391 14F8                                         u3295 1344  
                                       u3551 2224                                         u3471 20A4  
                                       u2831 2398                                         u2591 1770  
                                       u2751 1A26                                         u2735 19B8  
                                       u2671 18F8                                         u2911 0DE6  
                                       u3711 03CC                                         u3631 014C  
                                       u3560 2236                                         u3480 20B6  
                                       u2840 23A0                                         u2760 1A44  
                                       u2680 1900                                         u2920 0E6A  
                                       u3800 0812                                         u3720 045A  
                                       u3640 0188                                         u3561 2232  
                                       u3481 20B2                                         u2761 1A40  
                                       u2921 0E64                                         u3801 080E  
                                       u3721 0456                                         u3641 0184  
                                       u3490 2112                                         u2850 23B6  
                                       u2770 1A5E                                         u2690 1916  
                                       u2930 0E6C                                         u3810 0856  
                                       u3730 04E4                                         u3650 01C0  
                                       u3570 2F28                                         u3491 210E  
                                       u2851 23B2                                         u2771 1A5A  
                                       u2691 1912                                         u3811 0852  
                                       u3731 04E0                                         u3651 01BC  
                                       u3571 2F24                                         u2860 23C8  
                                       u2780 1A6E                                         u2940 0E84  
                                       u3900 0A66                                         u3820 088E  
                                       u3740 056E                                         u3660 0200  
                                       u3580 0038                                         u2861 23C4  
                                       u2781 1A6A                                         u2941 0E80  
                                       u3901 0A62                                         u3821 088A  
                                       u3741 056A                                         u3661 01FC  
                                       u3581 0034                                         u2790 1A7E  
                                       u2950 0EAC                                         u2870 0C9C  
                                       u3910 0A9E                                         u3830 08CE  
                                       u3750 05F8                                         u3670 0240  
                                       u3590 0070                                         u2791 1A7A  
                                       u2951 0EA8                                         u2871 0C98  
                                       u3911 0A9A                                         u3831 08CA  
                                       u3751 05F4                                         u3671 023C  
                                       u3591 006C                                         u2960 0ED4  
                                       u2880 0D6E                                         u3920 0AD6  
                                       u3840 090E                                         u3760 0636  
                                       u3680 027E                                         u2961 0ED0  
                                       u2881 0D6A                                         u3921 0AD2  
                                       u3841 090A                                         u3761 0632  
                                       u3681 027A                                         u2970 0F7C  
                                       u2890 0D7C                                         u3930 0B0E  
                                       u3850 094E                                         u3770 06C6  
                                       u3690 02BC                                         u2971 0F78  
                                       u2891 0D78                                         u3931 0B0A  
                                       u3851 094A                                         u3771 06C2  
                                       u3691 02B8                                         u2980 0FA4  
                                       u3940 0B46                                         u3860 0986  
                                       u3780 0750                                         u2981 0FA0  
                                       u3941 0B42                                         u3861 0982  
                                       u3781 074C                                         u2990 106C  
                                       u3950 0B7E                                         u3870 09BE  
                                       u3790 07DA                                         u2991 1068  
                                       u3951 0B7A                                         u3871 09BA  
                                       u3791 07D6                                         u3960 0BB6  
                                       u3880 09F6                                         u3961 0BB2  
                                       u3881 09F2                                         u3970 0BEE  
                                       u3890 0A2E                                         u3971 0BEA  
                                       u3891 0A2A                                         u3980 0C26  
                                       u3981 0C22                                         u3990 0C5E  
                                       u3991 0C5A                                         _WREG 000FE8  
                                       _WPUC 000EA1                                         _WPUE 000EAE  
       __size_of_MAX17345_set_charge_current 001A                                         Loop0 1AF2  
                                       Loop1 1B12                                         Loop2 1B32  
                                       Loop3 1B52                                         Loop4 1B72  
                                       Loop5 1B92                                         Loop6 1BB2  
                                       Loop7 1BD2                                         Loop8 1BF8  
                                       Loop9 1C18                                         abs@a 0013  
                                       _dbuf 0068                                _i2c_read_byte 31CE  
                                       _atoi 224A                                         _main 2D1A  
                                       _dtoa 151A                                         _prec 0064  
                                       _nout 0060                                         pad@i 001A  
                                       pad@p 0017                                         fsr1h 000FE2  
                                       fsr2h 000FDA                                         indf2 000FDF  
                                       fsr1l 000FE1                                         pad@w 001C  
                                       fsr2l 000FD9                                         _xtoa 17FC  
                                       prodh 000FF4                                         prodl 000FF3  
                                       start 0000                            ow_write_word@data 0001  
       __size_of_MAX17345_set_charge_voltage 001A                                ??_i2c_restart 0001  
                               ___param_bank 000000                              __end_of_i2c_ack 327E  
                                      ??_abs 0015                                        ??_pad 0019  
                              ___fltol@sign1 0030                              __end_of___aodiv 2576  
                                      ?_atoi 0008                                        ?_main 0001  
                                      ?_dtoa 001E                              __end_of___aomod 26DA  
                                      STR_10 FCCF                                        STR_11 FC7C  
                                      STR_12 FD04                                        STR_20 FC5F  
                                      STR_21 FD1E                                        STR_13 FCEA  
                                      STR_14 FD86                                        STR_22 FD38  
                                      STR_30 FC7B                                        STR_31 FF58  
                                      STR_23 FDEE                                        STR_15 FDA0  
                                      STR_24 FFAE                                        STR_40 FEDA  
                                      STR_32 FEA4                                        STR_16 FDBA  
                                      STR_25 FF9D                                        STR_33 FF46  
                                      STR_41 FEFE                                        STR_17 FDD4  
                                      STR_26 FFF2                                        STR_34 FEC8  
                                      STR_42 FE5C                                        STR_18 FD6C  
                                      STR_50 FC23                                        STR_27 FF34  
                                      STR_35 FE92                                        STR_43 FE6E  
                                      STR_19 FD52                                        STR_51 FC41  
                                      STR_36 FEEC                                        STR_44 FE4A  
                                      STR_28 FCB3                                        STR_37 FF10  
                                      STR_45 FEB6                                        STR_29 FC97  
                                      STR_46 FFE1                                        STR_38 FE80  
                                      STR_39 FF22                                        STR_47 FE1E  
                                      STR_48 FE08                                        STR_49 FE34  
                            __end_of___flmul 151A                              __end_of___fltol 2940  
                                      ?_xtoa 001E                                        _LATF0 007BF0  
                                      _LATD7 007BE7                                 vfpfcnvrt@fmt 0047  
                               vfpfcnvrt@llu 0090                                        Loop10 1C38  
                                      Loop11 1C58                                        Loop12 1C78  
                                      Loop13 1C98                                        Loop14 1CB8  
                                      Loop15 1CD8                                        _flags 0066  
                                      _hello 00A6                           _MAX17345_dump$2027 00A1  
                                      _fputc 2BA0                              __end_of_isalpha 3014  
                                      _fputs 2ED0                              __end_of_isdigit 30BC  
                                      atoi@n 0015                                        pad@fp 0013  
                                      atoi@s 0008                                        _width 0062  
                                      _putch 32C0                                        dtoa@d 0020  
                                      dtoa@i 0040                                        dtoa@n 0038  
                                      dtoa@p 0032                                        dtoa@s 0036  
                                      dtoa@w 0034                              __end_of_islower 304C  
                            __end_of_isspace 2E86                              __end_of_isupper 3084  
                                      tablat 000FF5                          _MAX17320_write_word 2F14  
                             ?_i2c_read_byte 0001                                        status 000FD8  
                                      xtoa@c 0043                                        xtoa@d 0020  
                                      xtoa@i 0041                                        xtoa@n 0039  
                                      xtoa@p 0035                                        xtoa@w 0037  
                                      xtoa@x 0028                              __end_of_toupper 2DDA  
               ??_MAX17345_set_input_current 0009                                ??_SendCharUSB 0001  
                               _toupper$1757 000D                              __initialization 3126  
                               __end_of_atoi 23EE                                 __end_of_main 2D7C  
                               __end_of_dtoa 17FC                                 __end_of_xtoa 1AD4  
                           __end_of_i2c_nack 326A                           _MAX17345_read_word 2940  
                           __end_of_i2c_stop 3290                         ?_MAX17320_write_word 0003  
                            ??_ow_write_word 0003                          __end_of_i2c_restart 32B4  
                                     ??_atoi 000A                                       ??_main 005F  
                                     ??_dtoa 0028                                       ??_xtoa 0029  
                              __activetblptr 000003                          ?_MAX17345_read_word 0003  
                             MAX17320_init@r 00A5                               MAX17320_init@x 00A1  
                         i2c_write_byte@data 0001          __size_of_MAX17345_set_input_current 001A  
                                     ?_fputc 0003                                       ?_fputs 000C  
                                     ?_putch 0001                                       _ANSELF 000EB4  
                                     _RC3PPS 000E65                                       _RC4PPS 000E66  
                                     _RC5STA 000EE0                                       _RG3PPS 000E85  
                             MAX17345_init@r 005D                                       _OSCFRQ 000E49  
                              vfpfcnvrt@done 0098                        __end_of_MAX17320_dump 0C74  
                      __end_of_MAX17320_init 2E34                 __size_of_MAX17345_write_word 007E  
                                     _TX5REG 000EDD                                       _TX5STA 000EE1  
                         __size_of_i2c_start 0012                             __end_of___xxtofl 224A  
                      __end_of_MAX17345_dump 283A                        __end_of_MAX17345_init 2BA0  
                                  ??_i2c_ack 0001                         ??_MAX17345_read_word 0007  
                               vfprintf@cfmt 0055                                    ??___aodiv 0011  
                                  ??___aomod 0011                                       ___wmul 31A8  
                                  ??___flmul 0017                                    ??___fltol 002C  
                      ??_MAX17320_write_word 0007                          __end_of_SendCharUSB 2F98  
                                     clear_0 314C                      MAX17320_write_word@data 0005  
                                     _printf 3180                                       pad@buf 0015  
                                     dtoa@fp 001E                                       _strlen 30BC  
                                     fputc@c 0003                                       fputs@c 0010  
                                     fputs@i 0011                                       fputs@s 000C  
                                  ??_isalpha 0003                                    ??_isdigit 0003  
                                  ??_islower 0003                                 __mediumconst FC22  
                                  ??_isspace 0003                             __end_of_showText 3126  
                           __end_of_ow_reset 2096                                       tblptrh 000FF7  
                                  ??_isupper 0003                                       tblptrl 000FF6  
                                     tblptru 000FF8                               _i2c_write_byte 3158  
                           __end_of_vfprintf 2D1A    MAX17345_set_charge_voltage@charge_voltage 0007  
                            ??_i2c_read_byte 0003                                       xtoa@fp 001E  
                                  ??_toupper 0009                         MAX17345_write_word@r 0006  
                               ___xxtofl@arg 000B                                 ___xxtofl@exp 000A  
                               ___xxtofl@val 0001                                   __accesstop 0060  
                    __end_of__initialization 3152    MAX17345_set_charge_current@charge_current 0007  
                              ___rparam_used 000001                                   ___fltol@f1 0028  
                             __pcstackCOMRAM 0001                                  _i2c_restart 32A2  
                               __pidataBANK0 32B4                                __end_of_fputc 2C36  
                              __end_of_fputs 2F14                                __end_of_putch 32CA  
                          __end_of_i2c_start 32A2                       __end_of_i2c_write_byte 3180  
                          MAX17320_dump@data 005D                            MAX17320_init@data 00A3  
                                    ??_fputc 0007                                      ??_fputs 0010  
                                    ??_putch 0002                                   __pbssBANK0 0060  
                                  ?_i2c_nack 0001                                    ?_i2c_stop 0001  
         __end_of_MAX17345_set_input_current 3222                   _MAX17345_set_input_current 3208  
MAX17345_set_relearn_voltage@relearn_voltage 0007                                  _SendCharUSB 2F56  
                                    ?___wmul 0001          __end_of_MAX17345_set_charge_current 3256  
                _MAX17345_set_charge_current 323C                                      ?_printf 0057  
                                    ?_strlen 0001          __end_of_MAX17345_set_charge_voltage 323C  
                _MAX17345_set_charge_voltage 3222                                    ?___xxtofl 0001  
                            ?_i2c_write_byte 0001                                      _SP5BRGL 000EDE  
                                    _OSCCON1 000E43      MAX17345_set_input_current@input_current 0007  
                         __size_of_vfpfcnvrt 047C                                      _TBLPTRU 000FF8  
                                    _SSP1ADD 000F92                                      _SSP1BUF 000F91  
                __size_of_MAX17320_read_word 004A                                   ??_i2c_nack 0001  
                                 ??_i2c_stop 0001                                      _i2c_ack 326A  
                                    __Hparam 0000                                      __Lparam 0000  
                                  ?_showText 0002                                    ?_ow_reset 0001  
                                    ___aodiv 23EE                                      ___aomod 2576  
                                    ___flmul 10F0                                      ___fltol 283A  
                            __size_of___wmul 0026                                    ?_vfprintf 004F  
                                    __pcinit 3126                                      __ramtop 0E00  
                                    __ptext0 2D1A                                      __ptext1 30F2  
                                    __ptext2 2AE4                                      __ptext3 31EE  
                                    __ptext4 3208                                      __ptext5 3222  
                                    __ptext6 323C                                      __ptext7 2C36  
                                    __ptext8 26DA                                      __ptext9 2940  
                        _MAX17345_write_word 2C36                              __size_of_printf 0028  
                            __size_of_strlen 0036                                 __size_of_abs 0040  
                               __size_of_pad 00C6                                      _isalpha 2FD8  
                                    _isdigit 3084                                   ??___xxtofl 0005  
                                    _islower 3014                                      _isspace 2E34  
                                    _isupper 304C                                      atoi@neg 000E  
                                    _toupper 2D7C                         end_of_initialization 3152  
                              ?_ow_read_word 0001                            MAX17345_dump@data 00A3  
                                    fputc@fp 0005                         ?_MAX17345_write_word 0002  
                                    fputs@fp 000E                                 SendCharUSB@d 0001  
                          __end_of_vfpfcnvrt 10F0                                   ??_showText 0004  
                                 ??_ow_reset 0001                                      postdec1 000FE5  
                                    postdec2 000FDD                                      postinc0 000FEE  
                                    postinc1 000FE6                                      postinc2 000FDE  
                                 ??_vfprintf 0055                                      strlen@a 0003  
                                    strlen@s 0001                                    _PORTCbits 000F8B  
                      __end_of_ow_write_word 1EDE                                ___xxtofl@sign 0009  
                                  _TRISAbits 000F81                                    _TRISCbits 000F83  
                                  _TRISDbits 000F84                                    _TRISFbits 000F86  
                                  _TRISGbits 000F87                               ??_ow_read_word 0003  
                      ??_MAX17345_write_word 0006                                  ___flmul@grs 001C  
                __size_of_MAX17345_read_word 00DE                  __end_of_MAX17320_write_word 2F56  
                               ?_i2c_restart 0001                                  vfpfcnvrt@ap 0049  
                                vfpfcnvrt@fp 0045                                  vfpfcnvrt@ll 0088  
                             __end_of___wmul 31CE                       __size_of_MAX17320_dump 0C74  
                     __size_of_MAX17320_init 005A                               __end_of_printf 31A8  
                             __end_of_strlen 30F2                       __size_of_MAX17345_dump 0160  
                     __size_of_MAX17345_init 00BC                          start_initialization 3126  
                                __end_of_abs 2FD8                                    _i2c_start 3290  
                                __end_of_pad 2AE4                        __end_of_i2c_read_byte 31EE  
                ?_MAX17345_set_input_current 0007                            __size_of_i2c_nack 0014  
                          __size_of_i2c_stop 0012                                 ?_SendCharUSB 0001  
                                vfprintf@fmt 0051                                     ??___wmul 0005  
                                __pdataBANK0 00A6                             ??_i2c_write_byte 0001  
                                   ??_printf 005D                                     ??_strlen 0003  
                                  ___flmul@a 0013                                    ___flmul@b 000F  
                              __pcstackBANK0 0088                             ___aodiv@dividend 0001  
                                 ?_i2c_start 0001                            __size_of___xxtofl 01B4  
                              _MAX17320_dump 0000                                _MAX17320_init 2DDA  
                                  _atoi$1681 0010                                    _atoi$1682 0014  
                                  _atoi$1683 0012                                     ?_i2c_ack 0001  
                              _MAX17345_dump 26DA                                _MAX17345_init 2AE4  
                                  _dtoa$1634 0030                                __pmediumconst FC22  
                                   ?___aodiv 0001                                     ?___aomod 0001  
                           ___aodiv@quotient 0013                                     ?___flmul 000F  
                                   ?___fltol 0028                            __size_of_showText 0034  
                       __end_of_ow_read_word 1CF8                            __size_of_ow_reset 01B8  
                          __size_of_vfprintf 0066                                     _BAUD5CON 000EE2  
                                   ?_isalpha 0001                                     ?_isdigit 0001  
                                   ?_islower 0001                                     ?_isspace 0001  
                                   ?_isupper 0001                   __end_of_MAX17320_read_word 2ED0  
                             __size_of_fputc 0096                               __size_of_fputs 0044  
       __end_of_MAX17345_set_relearn_voltage 3208        __size_of_MAX17345_set_relearn_voltage 001A  
               _MAX17345_set_relearn_voltage 31EE                                     ?_toupper 0007  
                             __size_of_putch 000A                               ?_MAX17320_dump 0001  
                             ?_MAX17320_init 0001                               ___wmul@product 0005  
                                   _LATCbits 000F7B                               ?_MAX17345_dump 0001  
                             ?_MAX17345_init 0001                                     _PIR4bits 000E37  
                                   _SSP1CON1 000F95                                     _SSP1CON2 000F96  
                                   _SSP1CON3 000F97                                     _SSP1STAT 000F94  
                       __size_of_i2c_restart 0012                                    _vfpfcnvrt 0C74  
                                  _xtoa$1645 0031                                    _xtoa$1646 0033  
                          ___wmul@multiplier 0001                                     _WPUCbits 000EA1  
                                ??_i2c_start 0001                                 _isspace$1708 0007  
                                 vfpfcnvrt@c 009C                                    copy_data0 313A  
                                   _i2c_nack 3256                ?_MAX17345_set_relearn_voltage 0007  
                                   _i2c_stop 327E                             __size_of_i2c_ack 0014  
                                   __Hrparam 0000                                   vfprintf@ap 0053  
                                   __Lrparam 0000                                   vfprintf@fp 004F  
                       __size_of_SendCharUSB 0042                             __size_of___aodiv 0188  
                           __size_of___aomod 0164                             __size_of___flmul 042A  
                           __size_of___fltol 0106                                   ?_vfpfcnvrt 0045  
                            ___aodiv@divisor 0009                      MAX17345_read_word@dataH 000B  
                    MAX17345_read_word@dataL 000C                              ___aodiv@counter 0011  
                                 _ANSELFbits 000EB4                                   _ANSELGbits 000EBC  
                                   ___xxtofl 2096                             __size_of_isalpha 003C  
                           __size_of_isdigit 0038                  __end_of_MAX17345_write_word 2CB4  
                           __size_of_islower 0038                             __size_of_isspace 0052  
                                   __ptext10 3158                                     __ptext11 327E  
                                   __ptext20 3180                                     __ptext12 3290  
                                   __ptext21 2CB4                                     __ptext13 32A2  
                                   __ptext30 30BC                                     __ptext22 0C74  
                                   __ptext14 31CE                                     __ptext31 2ED0  
                                   __ptext23 17FC                                     __ptext15 3256  
                                   __ptext40 3084                                     __ptext32 2BA0  
                                   __ptext24 2D7C                                     __ptext16 326A  
                                   __ptext41 31A8                                     __ptext33 32C0  
                                   __ptext25 3014                                     __ptext17 2DDA  
                                   __ptext42 2096                                     __ptext34 2F56  
                                   __ptext26 304C                                     __ptext18 2F14  
                                   __ptext43 283A                                     __ptext35 2F98  
                                   __ptext27 2FD8                                     __ptext19 0000  
                                   __ptext44 10F0                                     __ptext36 2576  
                                   __ptext28 151A                                     __ptext45 2E86  
                                   __ptext37 23EE                                     __ptext29 2A1E  
                                   __ptext46 1CF8                                     __ptext38 224A  
                                   __ptext47 1EDE                                     __ptext39 2E34  
                                   __ptext48 1AD4                             __size_of_isupper 0038  
                               _SSP1CON1bits 000F95                                 _SSP1CON2bits 000F96  
                            ??_MAX17320_dump 005D                              ??_MAX17320_init 005F  
                           __size_of_toupper 005E                              ??_MAX17345_dump 005D  
                            ??_MAX17345_init 005D                   __end_of_MAX17345_read_word 2A1E  
                              __size_of_atoi 01A4                                __size_of_main 0062  
                              __size_of_dtoa 02E2                                __size_of_xtoa 02D8  
                     __size_of_ow_write_word 01E6                          MAX17345_read_word@r 000D  
                  MAX17320_read_word@address 0007                        __size_of_ow_read_word 0224  
              MAX17345_set_relearn_voltage@r 0009                                     _showText 30F2  
                                   _ow_reset 1EDE                                    showText@t 0002  
                  MAX17345_read_word@command 0003                                    ow_reset@r 0001  
                                 _ODCONCbits 000EA0                                   _ODCONFbits 000EB2  
                                   _vfprintf 2CB4                                    printf@fmt 0057  
               ?_MAX17345_set_charge_current 0007                                 _SSP1STATbits 000F94  
               __size_of_MAX17320_write_word 0042                 MAX17345_set_charge_current@r 0009  
                           ___aomod@dividend 0001                                    putch@data 0002  
                                 _INLVLCbits 000E9E                               _vfpfcnvrt$1660 009A  
               ?_MAX17345_set_charge_voltage 0007                                     isalpha@c 0001  
                                   isdigit@c 0001                       MAX17345_read_word@data 0005  
                               _ow_read_word 1AD4                   MAX17320_write_word@address 0003  
                                   islower@c 0001                                     isspace@c 0001  
                MAX17345_set_input_current@r 0009                                     isupper@c 0001  
                 MAX17345_write_word@command 0002               ??_MAX17345_set_relearn_voltage 0009  
                              ow_read_word@H 0005                                ow_read_word@L 0006  
                                   printf@ap 009F                              ___aomod@divisor 0009  
               MAX17345_set_charge_voltage@r 0009                                  ??_vfpfcnvrt 004B  
                            ___aomod@counter 0011                       __size_of_i2c_read_byte 0020  
              ??_MAX17345_set_charge_current 0009                                   _SSP1DATPPS 000E1A  
                                 _SSP1CLKPPS 000E19                                _ow_write_word 1CF8  
                                 _RX5PPSbits 000E17                                     toupper@c 0007  
                    MAX17345_write_word@data 0004                ??_MAX17345_set_charge_voltage 0009  
                               ___aodiv@sign 0012                            i2c_read_byte@data 0001  
                         _MAX17320_read_word 2E86                                 ___aomod@sign 0012  
